
weather_parameters_monitoring_system.elf:     file format elf32-avr

Sections:
Idx Name          Size      VMA       LMA       File off  Algn
  0 .data         000000fa  00800100  00002e62  00002f16  2**0
                  CONTENTS, ALLOC, LOAD, DATA
  1 .text         00002e62  00000000  00000000  000000b4  2**1
                  CONTENTS, ALLOC, LOAD, READONLY, CODE
  2 .bss          00000055  008001fa  008001fa  00003010  2**0
                  ALLOC
  3 .eeprom       00000200  00810000  00810000  00003010  2**0
                  CONTENTS, ALLOC, LOAD, DATA
  4 .debug_aranges 000000a0  00000000  00000000  00003210  2**0
                  CONTENTS, READONLY, DEBUGGING
  5 .debug_pubnames 00000423  00000000  00000000  000032b0  2**0
                  CONTENTS, READONLY, DEBUGGING
  6 .debug_info   00001fb9  00000000  00000000  000036d3  2**0
                  CONTENTS, READONLY, DEBUGGING
  7 .debug_abbrev 00000884  00000000  00000000  0000568c  2**0
                  CONTENTS, READONLY, DEBUGGING
  8 .debug_line   00001a3a  00000000  00000000  00005f10  2**0
                  CONTENTS, READONLY, DEBUGGING
  9 .debug_frame  00000370  00000000  00000000  0000794c  2**2
                  CONTENTS, READONLY, DEBUGGING
 10 .debug_str    000005c7  00000000  00000000  00007cbc  2**0
                  CONTENTS, READONLY, DEBUGGING
 11 .debug_loc    00001382  00000000  00000000  00008283  2**0
                  CONTENTS, READONLY, DEBUGGING
 12 .debug_ranges 000000d8  00000000  00000000  00009605  2**0
                  CONTENTS, READONLY, DEBUGGING

Disassembly of section .text:

00000000 <__vectors>:
       0:	0c 94 08 01 	jmp	0x210	; 0x210 <__ctors_end>
       4:	0c 94 25 01 	jmp	0x24a	; 0x24a <__bad_interrupt>
       8:	0c 94 25 01 	jmp	0x24a	; 0x24a <__bad_interrupt>
       c:	0c 94 25 01 	jmp	0x24a	; 0x24a <__bad_interrupt>
      10:	0c 94 25 01 	jmp	0x24a	; 0x24a <__bad_interrupt>
      14:	0c 94 25 01 	jmp	0x24a	; 0x24a <__bad_interrupt>
      18:	0c 94 25 01 	jmp	0x24a	; 0x24a <__bad_interrupt>
      1c:	0c 94 25 01 	jmp	0x24a	; 0x24a <__bad_interrupt>
      20:	0c 94 25 01 	jmp	0x24a	; 0x24a <__bad_interrupt>
      24:	0c 94 25 01 	jmp	0x24a	; 0x24a <__bad_interrupt>
      28:	0c 94 25 01 	jmp	0x24a	; 0x24a <__bad_interrupt>
      2c:	0c 94 25 01 	jmp	0x24a	; 0x24a <__bad_interrupt>
      30:	0c 94 25 01 	jmp	0x24a	; 0x24a <__bad_interrupt>
      34:	0c 94 25 01 	jmp	0x24a	; 0x24a <__bad_interrupt>
      38:	0c 94 25 01 	jmp	0x24a	; 0x24a <__bad_interrupt>
      3c:	0c 94 25 01 	jmp	0x24a	; 0x24a <__bad_interrupt>
      40:	0c 94 25 01 	jmp	0x24a	; 0x24a <__bad_interrupt>
      44:	0c 94 25 01 	jmp	0x24a	; 0x24a <__bad_interrupt>
      48:	0c 94 25 01 	jmp	0x24a	; 0x24a <__bad_interrupt>
      4c:	0c 94 25 01 	jmp	0x24a	; 0x24a <__bad_interrupt>
      50:	0c 94 25 01 	jmp	0x24a	; 0x24a <__bad_interrupt>
      54:	0c 94 25 01 	jmp	0x24a	; 0x24a <__bad_interrupt>
      58:	0c 94 25 01 	jmp	0x24a	; 0x24a <__bad_interrupt>
      5c:	0c 94 25 01 	jmp	0x24a	; 0x24a <__bad_interrupt>
      60:	0c 94 25 01 	jmp	0x24a	; 0x24a <__bad_interrupt>
      64:	0c 94 25 01 	jmp	0x24a	; 0x24a <__bad_interrupt>
      68:	0c 94 25 01 	jmp	0x24a	; 0x24a <__bad_interrupt>
      6c:	0c 94 25 01 	jmp	0x24a	; 0x24a <__bad_interrupt>
      70:	0c 94 25 01 	jmp	0x24a	; 0x24a <__bad_interrupt>
      74:	0c 94 25 01 	jmp	0x24a	; 0x24a <__bad_interrupt>
      78:	0c 94 25 01 	jmp	0x24a	; 0x24a <__bad_interrupt>
      7c:	0c 94 25 01 	jmp	0x24a	; 0x24a <__bad_interrupt>
      80:	0c 94 25 01 	jmp	0x24a	; 0x24a <__bad_interrupt>
      84:	0c 94 25 01 	jmp	0x24a	; 0x24a <__bad_interrupt>
      88:	0c 94 25 01 	jmp	0x24a	; 0x24a <__bad_interrupt>
      8c:	07 63       	ori	r16, 0x37	; 55
      8e:	42 36       	cpi	r20, 0x62	; 98
      90:	b7 9b       	sbis	0x16, 7	; 22
      92:	d8 a7       	std	Y+40, r29	; 0x28
      94:	1a 39       	cpi	r17, 0x9A	; 154
      96:	68 56       	subi	r22, 0x68	; 104
      98:	18 ae       	std	Y+56, r1	; 0x38
      9a:	ba ab       	std	Y+50, r27	; 0x32
      9c:	55 8c       	ldd	r5, Z+29	; 0x1d
      9e:	1d 3c       	cpi	r17, 0xCD	; 205
      a0:	b7 cc       	rjmp	.-1682   	; 0xfffffa10 <__eeprom_end+0xff7ef810>
      a2:	57 63       	ori	r21, 0x37	; 55
      a4:	bd 6d       	ori	r27, 0xDD	; 221
      a6:	ed fd       	.word	0xfded	; ????
      a8:	75 3e       	cpi	r23, 0xE5	; 229
      aa:	f6 17       	cp	r31, r22
      ac:	72 31       	cpi	r23, 0x12	; 18
      ae:	bf 00       	.word	0x00bf	; ????
      b0:	00 00       	nop
      b2:	80 3f       	cpi	r24, 0xF0	; 240
      b4:	08 00       	.word	0x0008	; ????
      b6:	00 00       	nop
      b8:	be 92       	st	-X, r11
      ba:	24 49       	sbci	r18, 0x94	; 148
      bc:	12 3e       	cpi	r17, 0xE2	; 226
      be:	ab aa       	std	Y+51, r10	; 0x33
      c0:	aa 2a       	or	r10, r26
      c2:	be cd       	rjmp	.-1156   	; 0xfffffc40 <__eeprom_end+0xff7efa40>
      c4:	cc cc       	rjmp	.-1640   	; 0xfffffa5e <__eeprom_end+0xff7ef85e>
      c6:	4c 3e       	cpi	r20, 0xEC	; 236
      c8:	00 00       	nop
      ca:	00 80       	ld	r0, Z
      cc:	be ab       	std	Y+54, r27	; 0x36
      ce:	aa aa       	std	Y+50, r10	; 0x32
      d0:	aa 3e       	cpi	r26, 0xEA	; 234
      d2:	00 00       	nop
      d4:	00 00       	nop
      d6:	bf 00       	.word	0x00bf	; ????
      d8:	00 00       	nop
      da:	80 3f       	cpi	r24, 0xF0	; 240
      dc:	00 00       	nop
      de:	00 00       	nop
      e0:	00 08       	sbc	r0, r0
      e2:	41 78       	andi	r20, 0x81	; 129
      e4:	d3 bb       	out	0x13, r29	; 19
      e6:	43 87       	std	Z+11, r20	; 0x0b
      e8:	d1 13       	cpse	r29, r17
      ea:	3d 19       	sub	r19, r13
      ec:	0e 3c       	cpi	r16, 0xCE	; 206
      ee:	c3 bd       	out	0x23, r28	; 35
      f0:	42 82       	std	Z+2, r4	; 0x02
      f2:	ad 2b       	or	r26, r29
      f4:	3e 68       	ori	r19, 0x8E	; 142
      f6:	ec 82       	std	Y+4, r14	; 0x04
      f8:	76 be       	out	0x36, r7	; 54
      fa:	d9 8f       	std	Y+25, r29	; 0x19
      fc:	e1 a9       	ldd	r30, Z+49	; 0x31
      fe:	3e 4c       	sbci	r19, 0xCE	; 206
     100:	80 ef       	ldi	r24, 0xF0	; 240
     102:	ff be       	out	0x3f, r15	; 63
     104:	01 c4       	rjmp	.+2050   	; 0x908 <LCDsendCommand+0x1c>
     106:	ff 7f       	andi	r31, 0xFF	; 255
     108:	3f 00       	.word	0x003f	; ????
     10a:	00 00       	nop
     10c:	00 00       	nop

0000010e <__c.1790>:
     10e:	6e 61 6e 00                                         nan.

00000112 <__c.1788>:
     112:	69 6e 66 00 00 40 7a 10 f3 5a 00 a0 72 4e 18 09     inf..@z..Z..rN..
     122:	00 10 a5 d4 e8 00 00 e8 76 48 17 00 00 e4 0b 54     ........vH.....T
     132:	02 00 00 ca 9a 3b 00 00 00 e1 f5 05 00 00 80 96     .....;..........
     142:	98 00 00 00 40 42 0f 00 00 00 a0 86 01 00 00 00     ....@B..........
     152:	10 27 00 00 00 00 e8 03 00 00 00 00 64 00 00 00     .'..........d...
     162:	00 00 0a 00 00 00 00 00 01 00 00 00 00 00 2c 76     ..............,v
     172:	d8 88 dc 67 4f 08 23 df c1 df ae 59 e1 b1 b7 96     ...gO.#....Y....
     182:	e5 e3 e4 53 c6 3a e6 51 99 76 96 e8 e6 c2 84 26     ...S.:.Q.v.....&
     192:	eb 89 8c 9b 62 ed 40 7c 6f fc ef bc 9c 9f 40 f2     ....b.@|o.....@.
     1a2:	ba a5 6f a5 f4 90 05 5a 2a f7 5c 93 6b 6c f9 67     ..o....Z*.\.kl.g
     1b2:	6d c1 1b fc e0 e4 0d 47 fe f5 20 e6 b5 00 d0 ed     m......G.. .....
     1c2:	90 2e 03 00 94 35 77 05 00 80 84 1e 08 00 00 20     .....5w........ 
     1d2:	4e 0a 00 00 00 c8 0c 33 33 33 33 0f 98 6e 12 83     N......3333..n..
     1e2:	11 41 ef 8d 21 14 89 3b e6 55 16 cf fe e6 db 18     .A..!..;.U......
     1f2:	d1 84 4b 38 1b f7 7c 1d 90 1d a4 bb e4 24 20 32     ..K8..|......$ 2
     202:	84 72 5e 22 81 00 c9 f1 24 ec a1 e5 3d 27           .r^"....$...='

00000210 <__ctors_end>:
     210:	11 24       	eor	r1, r1
     212:	1f be       	out	0x3f, r1	; 63
     214:	cf ef       	ldi	r28, 0xFF	; 255
     216:	d0 e1       	ldi	r29, 0x10	; 16
     218:	de bf       	out	0x3e, r29	; 62
     21a:	cd bf       	out	0x3d, r28	; 61

0000021c <__do_copy_data>:
     21c:	11 e0       	ldi	r17, 0x01	; 1
     21e:	a0 e0       	ldi	r26, 0x00	; 0
     220:	b1 e0       	ldi	r27, 0x01	; 1
     222:	e2 e6       	ldi	r30, 0x62	; 98
     224:	fe e2       	ldi	r31, 0x2E	; 46
     226:	02 c0       	rjmp	.+4      	; 0x22c <.do_copy_data_start>

00000228 <.do_copy_data_loop>:
     228:	05 90       	lpm	r0, Z+
     22a:	0d 92       	st	X+, r0

0000022c <.do_copy_data_start>:
     22c:	aa 3f       	cpi	r26, 0xFA	; 250
     22e:	b1 07       	cpc	r27, r17
     230:	d9 f7       	brne	.-10     	; 0x228 <.do_copy_data_loop>

00000232 <__do_clear_bss>:
     232:	12 e0       	ldi	r17, 0x02	; 2
     234:	aa ef       	ldi	r26, 0xFA	; 250
     236:	b1 e0       	ldi	r27, 0x01	; 1
     238:	01 c0       	rjmp	.+2      	; 0x23c <.do_clear_bss_start>

0000023a <.do_clear_bss_loop>:
     23a:	1d 92       	st	X+, r1

0000023c <.do_clear_bss_start>:
     23c:	af 34       	cpi	r26, 0x4F	; 79
     23e:	b1 07       	cpc	r27, r17
     240:	e1 f7       	brne	.-8      	; 0x23a <.do_clear_bss_loop>
     242:	0e 94 c1 02 	call	0x582	; 0x582 <main>
     246:	0c 94 2f 17 	jmp	0x2e5e	; 0x2e5e <_exit>

0000024a <__bad_interrupt>:
     24a:	0c 94 00 00 	jmp	0	; 0x0 <__vectors>

0000024e <getBtnStatus>:
char *press_unit[] = {"Pa", "hPa", "mmHg"};
int temp_unit_ind = 0, press_unit_ind = 0; 

unsigned char getBtnStatus(unsigned char BUTTON_ID)
{
	return (!(BUTTON_PIN & (1 << BUTTON_ID)));
     24e:	23 b3       	in	r18, 0x13	; 19
     250:	30 e0       	ldi	r19, 0x00	; 0
     252:	02 c0       	rjmp	.+4      	; 0x258 <getBtnStatus+0xa>
     254:	35 95       	asr	r19
     256:	27 95       	ror	r18
     258:	8a 95       	dec	r24
     25a:	e2 f7       	brpl	.-8      	; 0x254 <getBtnStatus+0x6>
     25c:	20 95       	com	r18
}
     25e:	82 2f       	mov	r24, r18
     260:	81 70       	andi	r24, 0x01	; 1
     262:	08 95       	ret

00000264 <getPrevBtnStatus>:

unsigned char getPrevBtnStatus(unsigned char BUTTON_ID)
{
     264:	20 91 a3 01 	lds	r18, 0x01A3
     268:	30 e0       	ldi	r19, 0x00	; 0
     26a:	02 c0       	rjmp	.+4      	; 0x270 <getPrevBtnStatus+0xc>
     26c:	35 95       	asr	r19
     26e:	27 95       	ror	r18
     270:	8a 95       	dec	r24
     272:	e2 f7       	brpl	.-8      	; 0x26c <getPrevBtnStatus+0x8>
     274:	20 95       	com	r18
	return (!(PREV_BUTTON_PIN & (1<< BUTTON_ID)));
}
     276:	82 2f       	mov	r24, r18
     278:	81 70       	andi	r24, 0x01	; 1
     27a:	08 95       	ret

0000027c <setPressUnitFormat>:
         }
 }
}

void setPressUnitFormat(void)
{
     27c:	cf 93       	push	r28
     27e:	df 93       	push	r29
 int i, pos_x = 0; //pos_x_max = TEMP_UNITS_NUM * 2;
 char oK = 0;               
 
 LCDclr();
     280:	0e 94 c5 04 	call	0x98a	; 0x98a <LCDclr>
 LCDGotoXY(0,0);
     284:	80 e0       	ldi	r24, 0x00	; 0
     286:	60 e0       	ldi	r22, 0x00	; 0
     288:	0e 94 cd 04 	call	0x99a	; 0x99a <LCDGotoXY>
 LCDstring("*Pressure Units*");
     28c:	80 e0       	ldi	r24, 0x00	; 0
     28e:	91 e0       	ldi	r25, 0x01	; 1
     290:	0e 94 dc 04 	call	0x9b8	; 0x9b8 <LCDstring>
 LCDGotoXY(0,1);
     294:	80 e0       	ldi	r24, 0x00	; 0
     296:	61 e0       	ldi	r22, 0x01	; 1
     298:	0e 94 cd 04 	call	0x99a	; 0x99a <LCDGotoXY>
 for (i = 0; i < PRESS_UNITS_NUM; i++)
 {
    LCDstring(press_unit[i]);
     29c:	80 91 b3 01 	lds	r24, 0x01B3
     2a0:	90 91 b4 01 	lds	r25, 0x01B4
     2a4:	0e 94 dc 04 	call	0x9b8	; 0x9b8 <LCDstring>
	LCDsendChar(' ');
     2a8:	80 e2       	ldi	r24, 0x20	; 32
     2aa:	0e 94 55 04 	call	0x8aa	; 0x8aa <LCDsendChar>
 LCDGotoXY(0,0);
 LCDstring("*Pressure Units*");
 LCDGotoXY(0,1);
 for (i = 0; i < PRESS_UNITS_NUM; i++)
 {
    LCDstring(press_unit[i]);
     2ae:	80 91 b5 01 	lds	r24, 0x01B5
     2b2:	90 91 b6 01 	lds	r25, 0x01B6
     2b6:	0e 94 dc 04 	call	0x9b8	; 0x9b8 <LCDstring>
	LCDsendChar(' ');
     2ba:	80 e2       	ldi	r24, 0x20	; 32
     2bc:	0e 94 55 04 	call	0x8aa	; 0x8aa <LCDsendChar>
 LCDGotoXY(0,0);
 LCDstring("*Pressure Units*");
 LCDGotoXY(0,1);
 for (i = 0; i < PRESS_UNITS_NUM; i++)
 {
    LCDstring(press_unit[i]);
     2c0:	80 91 b7 01 	lds	r24, 0x01B7
     2c4:	90 91 b8 01 	lds	r25, 0x01B8
     2c8:	0e 94 dc 04 	call	0x9b8	; 0x9b8 <LCDstring>
	LCDsendChar(' ');
     2cc:	80 e2       	ldi	r24, 0x20	; 32
     2ce:	0e 94 55 04 	call	0x8aa	; 0x8aa <LCDsendChar>
     2d2:	c0 e0       	ldi	r28, 0x00	; 0
     2d4:	d0 e0       	ldi	r29, 0x00	; 0
     2d6:	3f c0       	rjmp	.+126    	; 0x356 <setPressUnitFormat+0xda>
   LCDGotoXY(pos_x, 2);
   LCDsendChar('^');
 
  if (getBtnStatus(SELECT_PLUS_BTN_PIN))
   {
		if (!getPrevBtnStatus(SELECT_PLUS_BTN_PIN))
     2d8:	80 91 a3 01 	lds	r24, 0x01A3
     2dc:	81 ff       	sbrs	r24, 1
     2de:	0e c0       	rjmp	.+28     	; 0x2fc <setPressUnitFormat+0x80>
		{
			LCDGotoXY(pos_x, 2);
     2e0:	8c 2f       	mov	r24, r28
     2e2:	62 e0       	ldi	r22, 0x02	; 2
     2e4:	0e 94 cd 04 	call	0x99a	; 0x99a <LCDGotoXY>
            LCDsendChar(' ');
     2e8:	80 e2       	ldi	r24, 0x20	; 32
     2ea:	0e 94 55 04 	call	0x8aa	; 0x8aa <LCDsendChar>
			if (pos_x < (PRESS_UNITS_NUM - 1) * 2)
     2ee:	c4 30       	cpi	r28, 0x04	; 4
     2f0:	d1 05       	cpc	r29, r1
     2f2:	1c f0       	brlt	.+6      	; 0x2fa <setPressUnitFormat+0x7e>
     2f4:	c0 e0       	ldi	r28, 0x00	; 0
     2f6:	d0 e0       	ldi	r29, 0x00	; 0
     2f8:	01 c0       	rjmp	.+2      	; 0x2fc <setPressUnitFormat+0x80>
			  pos_x += 2; 
     2fa:	22 96       	adiw	r28, 0x02	; 2
			else
			  pos_x = 0;			
        }
   }

   if (getBtnStatus(SELECT_MINUS_BTN_PIN))
     2fc:	9a 99       	sbic	0x13, 2	; 19
     2fe:	11 c0       	rjmp	.+34     	; 0x322 <setPressUnitFormat+0xa6>
   {
		if (!getPrevBtnStatus(SELECT_MINUS_BTN_PIN))
     300:	80 91 a3 01 	lds	r24, 0x01A3
     304:	82 ff       	sbrs	r24, 2
     306:	0d c0       	rjmp	.+26     	; 0x322 <setPressUnitFormat+0xa6>
        {
            LCDGotoXY(pos_x, 2);
     308:	8c 2f       	mov	r24, r28
     30a:	62 e0       	ldi	r22, 0x02	; 2
     30c:	0e 94 cd 04 	call	0x99a	; 0x99a <LCDGotoXY>
            LCDsendChar(' ');
     310:	80 e2       	ldi	r24, 0x20	; 32
     312:	0e 94 55 04 	call	0x8aa	; 0x8aa <LCDsendChar>
			if (pos_x < 0)
     316:	d7 fd       	sbrc	r29, 7
     318:	03 c0       	rjmp	.+6      	; 0x320 <setPressUnitFormat+0xa4>
     31a:	c4 e0       	ldi	r28, 0x04	; 4
     31c:	d0 e0       	ldi	r29, 0x00	; 0
     31e:	01 c0       	rjmp	.+2      	; 0x322 <setPressUnitFormat+0xa6>
			  pos_x -= 2; 
     320:	22 97       	sbiw	r28, 0x02	; 2
			else
			  pos_x = 2*(PRESS_UNITS_NUM - 1);			 
        }
     }

     if (getBtnStatus(MENU_ENTER_BTN_PIN))
     322:	98 99       	sbic	0x13, 0	; 19
     324:	0e c0       	rjmp	.+28     	; 0x342 <setPressUnitFormat+0xc6>
     {
       if (!getPrevBtnStatus(MENU_ENTER_BTN_PIN))
     326:	80 91 a3 01 	lds	r24, 0x01A3
     32a:	80 ff       	sbrs	r24, 0
     32c:	0a c0       	rjmp	.+20     	; 0x342 <setPressUnitFormat+0xc6>
       {
          press_unit_ind = pos_x / 2;
     32e:	ce 01       	movw	r24, r28
     330:	62 e0       	ldi	r22, 0x02	; 2
     332:	70 e0       	ldi	r23, 0x00	; 0
     334:	0e 94 f8 14 	call	0x29f0	; 0x29f0 <__divmodhi4>
     338:	70 93 fd 01 	sts	0x01FD, r23
     33c:	60 93 fc 01 	sts	0x01FC, r22
     340:	17 c0       	rjmp	.+46     	; 0x370 <setPressUnitFormat+0xf4>
		  return;
       }
     }

     if (getBtnStatus(EXIT_BTN_PIN))
     342:	9b 99       	sbic	0x13, 3	; 19
     344:	08 c0       	rjmp	.+16     	; 0x356 <setPressUnitFormat+0xda>
         {
                if(!getPrevBtnStatus(EXIT_BTN_PIN))
     346:	80 91 a3 01 	lds	r24, 0x01A3
     34a:	83 ff       	sbrs	r24, 3
     34c:	04 c0       	rjmp	.+8      	; 0x356 <setPressUnitFormat+0xda>
                {
                        PREV_BUTTON_PIN = BUTTON_PIN;
     34e:	83 b3       	in	r24, 0x13	; 19
     350:	80 93 a3 01 	sts	0x01A3, r24
     354:	0d c0       	rjmp	.+26     	; 0x370 <setPressUnitFormat+0xf4>
	LCDsendChar(' ');
 }
 
 while(!oK)
 {
   PREV_BUTTON_PIN = BUTTON_PIN;   
     356:	83 b3       	in	r24, 0x13	; 19
     358:	80 93 a3 01 	sts	0x01A3, r24
   LCDGotoXY(pos_x, 2);
     35c:	8c 2f       	mov	r24, r28
     35e:	62 e0       	ldi	r22, 0x02	; 2
     360:	0e 94 cd 04 	call	0x99a	; 0x99a <LCDGotoXY>
   LCDsendChar('^');
     364:	8e e5       	ldi	r24, 0x5E	; 94
     366:	0e 94 55 04 	call	0x8aa	; 0x8aa <LCDsendChar>
 
  if (getBtnStatus(SELECT_PLUS_BTN_PIN))
     36a:	99 9b       	sbis	0x13, 1	; 19
     36c:	b5 cf       	rjmp	.-150    	; 0x2d8 <setPressUnitFormat+0x5c>
     36e:	c6 cf       	rjmp	.-116    	; 0x2fc <setPressUnitFormat+0x80>
                        PREV_BUTTON_PIN = BUTTON_PIN;
                        return;
                }
         }
 }
} 
     370:	df 91       	pop	r29
     372:	cf 91       	pop	r28
     374:	08 95       	ret

00000376 <setTempUnitFormat>:
{
	return (!(PREV_BUTTON_PIN & (1<< BUTTON_ID)));
}

void setTempUnitFormat(void)
{
     376:	cf 93       	push	r28
     378:	df 93       	push	r29
 int i, pos_x = 0; //pos_x_max = TEMP_UNITS_NUM * 2;
 char oK = 0;               
 
 LCDclr();
     37a:	0e 94 c5 04 	call	0x98a	; 0x98a <LCDclr>
 LCDGotoXY(0,0);
     37e:	80 e0       	ldi	r24, 0x00	; 0
     380:	60 e0       	ldi	r22, 0x00	; 0
     382:	0e 94 cd 04 	call	0x99a	; 0x99a <LCDGotoXY>
 LCDstring("*Temperature Units*");
     386:	81 e1       	ldi	r24, 0x11	; 17
     388:	91 e0       	ldi	r25, 0x01	; 1
     38a:	0e 94 dc 04 	call	0x9b8	; 0x9b8 <LCDstring>
 LCDGotoXY(0,1);
     38e:	80 e0       	ldi	r24, 0x00	; 0
     390:	61 e0       	ldi	r22, 0x01	; 1
     392:	0e 94 cd 04 	call	0x99a	; 0x99a <LCDGotoXY>
 for (i = 0; i < TEMP_UNITS_NUM; i++)
 {
    LCDsendChar(temp_unit[i]);
     396:	80 91 a4 01 	lds	r24, 0x01A4
     39a:	0e 94 55 04 	call	0x8aa	; 0x8aa <LCDsendChar>
	LCDsendChar(' ');
     39e:	80 e2       	ldi	r24, 0x20	; 32
     3a0:	0e 94 55 04 	call	0x8aa	; 0x8aa <LCDsendChar>
 LCDGotoXY(0,0);
 LCDstring("*Temperature Units*");
 LCDGotoXY(0,1);
 for (i = 0; i < TEMP_UNITS_NUM; i++)
 {
    LCDsendChar(temp_unit[i]);
     3a4:	80 91 a5 01 	lds	r24, 0x01A5
     3a8:	0e 94 55 04 	call	0x8aa	; 0x8aa <LCDsendChar>
	LCDsendChar(' ');
     3ac:	80 e2       	ldi	r24, 0x20	; 32
     3ae:	0e 94 55 04 	call	0x8aa	; 0x8aa <LCDsendChar>
 LCDGotoXY(0,0);
 LCDstring("*Temperature Units*");
 LCDGotoXY(0,1);
 for (i = 0; i < TEMP_UNITS_NUM; i++)
 {
    LCDsendChar(temp_unit[i]);
     3b2:	80 91 a6 01 	lds	r24, 0x01A6
     3b6:	0e 94 55 04 	call	0x8aa	; 0x8aa <LCDsendChar>
	LCDsendChar(' ');
     3ba:	80 e2       	ldi	r24, 0x20	; 32
     3bc:	0e 94 55 04 	call	0x8aa	; 0x8aa <LCDsendChar>
     3c0:	c0 e0       	ldi	r28, 0x00	; 0
     3c2:	d0 e0       	ldi	r29, 0x00	; 0
     3c4:	3f c0       	rjmp	.+126    	; 0x444 <setTempUnitFormat+0xce>
   LCDGotoXY(pos_x, 2);
   LCDsendChar('^');
 
  if (getBtnStatus(SELECT_PLUS_BTN_PIN))
   {
		if (!getPrevBtnStatus(SELECT_PLUS_BTN_PIN))
     3c6:	80 91 a3 01 	lds	r24, 0x01A3
     3ca:	81 ff       	sbrs	r24, 1
     3cc:	0e c0       	rjmp	.+28     	; 0x3ea <setTempUnitFormat+0x74>
		{
			LCDGotoXY(pos_x, 2);
     3ce:	8c 2f       	mov	r24, r28
     3d0:	62 e0       	ldi	r22, 0x02	; 2
     3d2:	0e 94 cd 04 	call	0x99a	; 0x99a <LCDGotoXY>
            LCDsendChar(' ');
     3d6:	80 e2       	ldi	r24, 0x20	; 32
     3d8:	0e 94 55 04 	call	0x8aa	; 0x8aa <LCDsendChar>
			if (pos_x < (TEMP_UNITS_NUM - 1) * 2)
     3dc:	c4 30       	cpi	r28, 0x04	; 4
     3de:	d1 05       	cpc	r29, r1
     3e0:	1c f0       	brlt	.+6      	; 0x3e8 <setTempUnitFormat+0x72>
     3e2:	c0 e0       	ldi	r28, 0x00	; 0
     3e4:	d0 e0       	ldi	r29, 0x00	; 0
     3e6:	01 c0       	rjmp	.+2      	; 0x3ea <setTempUnitFormat+0x74>
			  pos_x += 2; 
     3e8:	22 96       	adiw	r28, 0x02	; 2
			else
			  pos_x = 0;			
        }
   }

   if (getBtnStatus(SELECT_MINUS_BTN_PIN))
     3ea:	9a 99       	sbic	0x13, 2	; 19
     3ec:	11 c0       	rjmp	.+34     	; 0x410 <setTempUnitFormat+0x9a>
   {
		if (!getPrevBtnStatus(SELECT_MINUS_BTN_PIN))
     3ee:	80 91 a3 01 	lds	r24, 0x01A3
     3f2:	82 ff       	sbrs	r24, 2
     3f4:	0d c0       	rjmp	.+26     	; 0x410 <setTempUnitFormat+0x9a>
        {
            LCDGotoXY(pos_x, 2);
     3f6:	8c 2f       	mov	r24, r28
     3f8:	62 e0       	ldi	r22, 0x02	; 2
     3fa:	0e 94 cd 04 	call	0x99a	; 0x99a <LCDGotoXY>
            LCDsendChar(' ');
     3fe:	80 e2       	ldi	r24, 0x20	; 32
     400:	0e 94 55 04 	call	0x8aa	; 0x8aa <LCDsendChar>
			if (pos_x < 0)
     404:	d7 fd       	sbrc	r29, 7
     406:	03 c0       	rjmp	.+6      	; 0x40e <setTempUnitFormat+0x98>
     408:	c4 e0       	ldi	r28, 0x04	; 4
     40a:	d0 e0       	ldi	r29, 0x00	; 0
     40c:	01 c0       	rjmp	.+2      	; 0x410 <setTempUnitFormat+0x9a>
			  pos_x -= 2; 
     40e:	22 97       	sbiw	r28, 0x02	; 2
			else
			  pos_x = 2*(TEMP_UNITS_NUM - 1);			 
        }
     }

     if (getBtnStatus(MENU_ENTER_BTN_PIN))
     410:	98 99       	sbic	0x13, 0	; 19
     412:	0e c0       	rjmp	.+28     	; 0x430 <setTempUnitFormat+0xba>
     {
       if (!getPrevBtnStatus(MENU_ENTER_BTN_PIN))
     414:	80 91 a3 01 	lds	r24, 0x01A3
     418:	80 ff       	sbrs	r24, 0
     41a:	0a c0       	rjmp	.+20     	; 0x430 <setTempUnitFormat+0xba>
       {
          temp_unit_ind = pos_x / 2;
     41c:	ce 01       	movw	r24, r28
     41e:	62 e0       	ldi	r22, 0x02	; 2
     420:	70 e0       	ldi	r23, 0x00	; 0
     422:	0e 94 f8 14 	call	0x29f0	; 0x29f0 <__divmodhi4>
     426:	70 93 fb 01 	sts	0x01FB, r23
     42a:	60 93 fa 01 	sts	0x01FA, r22
     42e:	17 c0       	rjmp	.+46     	; 0x45e <setTempUnitFormat+0xe8>
		  return;
       }
     }

     if (getBtnStatus(EXIT_BTN_PIN))
     430:	9b 99       	sbic	0x13, 3	; 19
     432:	08 c0       	rjmp	.+16     	; 0x444 <setTempUnitFormat+0xce>
         {
                if(!getPrevBtnStatus(EXIT_BTN_PIN))
     434:	80 91 a3 01 	lds	r24, 0x01A3
     438:	83 ff       	sbrs	r24, 3
     43a:	04 c0       	rjmp	.+8      	; 0x444 <setTempUnitFormat+0xce>
                {
                        PREV_BUTTON_PIN = BUTTON_PIN;
     43c:	83 b3       	in	r24, 0x13	; 19
     43e:	80 93 a3 01 	sts	0x01A3, r24
     442:	0d c0       	rjmp	.+26     	; 0x45e <setTempUnitFormat+0xe8>
	LCDsendChar(' ');
 }
 
 while(!oK)
 {
   PREV_BUTTON_PIN = BUTTON_PIN;   
     444:	83 b3       	in	r24, 0x13	; 19
     446:	80 93 a3 01 	sts	0x01A3, r24
   LCDGotoXY(pos_x, 2);
     44a:	8c 2f       	mov	r24, r28
     44c:	62 e0       	ldi	r22, 0x02	; 2
     44e:	0e 94 cd 04 	call	0x99a	; 0x99a <LCDGotoXY>
   LCDsendChar('^');
     452:	8e e5       	ldi	r24, 0x5E	; 94
     454:	0e 94 55 04 	call	0x8aa	; 0x8aa <LCDsendChar>
 
  if (getBtnStatus(SELECT_PLUS_BTN_PIN))
     458:	99 9b       	sbis	0x13, 1	; 19
     45a:	b5 cf       	rjmp	.-150    	; 0x3c6 <setTempUnitFormat+0x50>
     45c:	c6 cf       	rjmp	.-116    	; 0x3ea <setTempUnitFormat+0x74>
                        PREV_BUTTON_PIN = BUTTON_PIN;
                        return;
                }
         }
 }
}
     45e:	df 91       	pop	r29
     460:	cf 91       	pop	r28
     462:	08 95       	ret

00000464 <mainMenu>:
 }
} 


void mainMenu(void)
{
     464:	df 92       	push	r13
     466:	ef 92       	push	r14
     468:	ff 92       	push	r15
     46a:	0f 93       	push	r16
     46c:	1f 93       	push	r17
     46e:	df 93       	push	r29
     470:	cf 93       	push	r28
     472:	cd b7       	in	r28, 0x3d	; 61
     474:	de b7       	in	r29, 0x3e	; 62
     476:	66 97       	sbiw	r28, 0x16	; 22
     478:	0f b6       	in	r0, 0x3f	; 63
     47a:	f8 94       	cli
     47c:	de bf       	out	0x3e, r29	; 62
     47e:	0f be       	out	0x3f, r0	; 63
     480:	cd bf       	out	0x3d, r28	; 61
  char *menu_items[] = {"Set Tempature Format", "Set Pressure Format", 
    "      Exit      "};
     482:	de 01       	movw	r26, r28
     484:	11 96       	adiw	r26, 0x01	; 1
     486:	e3 ef       	ldi	r30, 0xF3	; 243
     488:	f1 e0       	ldi	r31, 0x01	; 1
     48a:	86 e0       	ldi	r24, 0x06	; 6
     48c:	01 90       	ld	r0, Z+
     48e:	0d 92       	st	X+, r0
     490:	81 50       	subi	r24, 0x01	; 1
     492:	e1 f7       	brne	.-8      	; 0x48c <mainMenu+0x28>
  char menu_title[] = "< Main Menu >"; // Units Conversion
     494:	de 01       	movw	r26, r28
     496:	17 96       	adiw	r26, 0x07	; 7
     498:	e5 e2       	ldi	r30, 0x25	; 37
     49a:	f1 e0       	ldi	r31, 0x01	; 1
     49c:	8e e0       	ldi	r24, 0x0E	; 14
     49e:	01 90       	ld	r0, Z+
     4a0:	0d 92       	st	X+, r0
     4a2:	81 50       	subi	r24, 0x01	; 1
     4a4:	e1 f7       	brne	.-8      	; 0x49e <mainMenu+0x3a>
  unsigned char selected = 0;
  
  LCDGotoXY(0,1);
     4a6:	61 e0       	ldi	r22, 0x01	; 1
     4a8:	0e 94 cd 04 	call	0x99a	; 0x99a <LCDGotoXY>
  LCDstring(menu_title);
     4ac:	97 e0       	ldi	r25, 0x07	; 7
     4ae:	e9 2e       	mov	r14, r25
     4b0:	f1 2c       	mov	r15, r1
     4b2:	ec 0e       	add	r14, r28
     4b4:	fd 1e       	adc	r15, r29
     4b6:	c7 01       	movw	r24, r14
     4b8:	0e 94 dc 04 	call	0x9b8	; 0x9b8 <LCDstring>
     4bc:	00 e0       	ldi	r16, 0x00	; 0

  while(1)
  {
    PREV_BUTTON_PIN = BUTTON_PIN;
    LCDGotoXY(2,0);
    LCDstring(menu_title);
     4be:	fe 8a       	std	Y+22, r15	; 0x16
     4c0:	ed 8a       	std	Y+21, r14	; 0x15
     4c2:	dd 88       	ldd	r13, Y+21	; 0x15
     4c4:	1e 89       	ldd	r17, Y+22	; 0x16
    LCDGotoXY(0,1);
    LCDstring(menu_items[selected]);
     4c6:	7e 01       	movw	r14, r28
     4c8:	08 94       	sec
     4ca:	e1 1c       	adc	r14, r1
     4cc:	f1 1c       	adc	r15, r1
  LCDGotoXY(0,1);
  LCDstring(menu_title);

  while(1)
  {
    PREV_BUTTON_PIN = BUTTON_PIN;
     4ce:	83 b3       	in	r24, 0x13	; 19
     4d0:	80 93 a3 01 	sts	0x01A3, r24
    LCDGotoXY(2,0);
     4d4:	82 e0       	ldi	r24, 0x02	; 2
     4d6:	60 e0       	ldi	r22, 0x00	; 0
     4d8:	0e 94 cd 04 	call	0x99a	; 0x99a <LCDGotoXY>
    LCDstring(menu_title);
     4dc:	8d 2d       	mov	r24, r13
     4de:	91 2f       	mov	r25, r17
     4e0:	0e 94 dc 04 	call	0x9b8	; 0x9b8 <LCDstring>
    LCDGotoXY(0,1);
     4e4:	80 e0       	ldi	r24, 0x00	; 0
     4e6:	61 e0       	ldi	r22, 0x01	; 1
     4e8:	0e 94 cd 04 	call	0x99a	; 0x99a <LCDGotoXY>
    LCDstring(menu_items[selected]);
     4ec:	e0 2f       	mov	r30, r16
     4ee:	f0 e0       	ldi	r31, 0x00	; 0
     4f0:	ee 0f       	add	r30, r30
     4f2:	ff 1f       	adc	r31, r31
     4f4:	ee 0d       	add	r30, r14
     4f6:	ff 1d       	adc	r31, r15
     4f8:	80 81       	ld	r24, Z
     4fa:	91 81       	ldd	r25, Z+1	; 0x01
     4fc:	0e 94 dc 04 	call	0x9b8	; 0x9b8 <LCDstring>
    if(getBtnStatus(SELECT_PLUS_BTN_PIN))
     500:	99 99       	sbic	0x13, 1	; 19
     502:	09 c0       	rjmp	.+18     	; 0x516 <mainMenu+0xb2>
    {
      if(!getPrevBtnStatus(SELECT_PLUS_BTN_PIN))
     504:	80 91 a3 01 	lds	r24, 0x01A3
     508:	81 ff       	sbrs	r24, 1
     50a:	05 c0       	rjmp	.+10     	; 0x516 <mainMenu+0xb2>
        if(selected == 5) selected = 0;
     50c:	05 30       	cpi	r16, 0x05	; 5
     50e:	11 f4       	brne	.+4      	; 0x514 <mainMenu+0xb0>
     510:	00 e0       	ldi	r16, 0x00	; 0
     512:	01 c0       	rjmp	.+2      	; 0x516 <mainMenu+0xb2>
        else selected++;
     514:	0f 5f       	subi	r16, 0xFF	; 255
    }

    if(getBtnStatus(SELECT_MINUS_BTN_PIN))
     516:	9a 99       	sbic	0x13, 2	; 19
     518:	09 c0       	rjmp	.+18     	; 0x52c <mainMenu+0xc8>
    {
      if (!getPrevBtnStatus(SELECT_MINUS_BTN_PIN))
     51a:	80 91 a3 01 	lds	r24, 0x01A3
     51e:	82 ff       	sbrs	r24, 2
     520:	05 c0       	rjmp	.+10     	; 0x52c <mainMenu+0xc8>
        if (selected == 0) selected = 5;
     522:	00 23       	and	r16, r16
     524:	11 f4       	brne	.+4      	; 0x52a <mainMenu+0xc6>
     526:	05 e0       	ldi	r16, 0x05	; 5
     528:	01 c0       	rjmp	.+2      	; 0x52c <mainMenu+0xc8>
        else selected--;
     52a:	01 50       	subi	r16, 0x01	; 1
    }

    if(getBtnStatus(MENU_ENTER_BTN_PIN))
     52c:	98 99       	sbic	0x13, 0	; 19
     52e:	12 c0       	rjmp	.+36     	; 0x554 <mainMenu+0xf0>
		if(!getPrevBtnStatus(MENU_ENTER_BTN_PIN))
     530:	80 91 a3 01 	lds	r24, 0x01A3
     534:	80 ff       	sbrs	r24, 0
     536:	0e c0       	rjmp	.+28     	; 0x554 <mainMenu+0xf0>
		{
			switch(selected)
     538:	01 30       	cpi	r16, 0x01	; 1
     53a:	41 f0       	breq	.+16     	; 0x54c <mainMenu+0xe8>
     53c:	01 30       	cpi	r16, 0x01	; 1
     53e:	18 f0       	brcs	.+6      	; 0x546 <mainMenu+0xe2>
     540:	02 30       	cpi	r16, 0x02	; 2
     542:	31 f4       	brne	.+12     	; 0x550 <mainMenu+0xec>
     544:	10 c0       	rjmp	.+32     	; 0x566 <mainMenu+0x102>
			{
				case 0: setTempUnitFormat(); break; 
     546:	0e 94 bb 01 	call	0x376	; 0x376 <setTempUnitFormat>
     54a:	02 c0       	rjmp	.+4      	; 0x550 <mainMenu+0xec>
				case 1: setPressUnitFormat(); break;
     54c:	0e 94 3e 01 	call	0x27c	; 0x27c <setPressUnitFormat>
				case 2: return;				
				default: break;
			}
        LCDclr();
     550:	0e 94 c5 04 	call	0x98a	; 0x98a <LCDclr>
		
      }

    if (getBtnStatus(EXIT_BTN_PIN))
     554:	9b 99       	sbic	0x13, 3	; 19
     556:	bb cf       	rjmp	.-138    	; 0x4ce <mainMenu+0x6a>
    {
     if (!getPrevBtnStatus(EXIT_BTN_PIN))
     558:	80 91 a3 01 	lds	r24, 0x01A3
     55c:	83 ff       	sbrs	r24, 3
     55e:	b7 cf       	rjmp	.-146    	; 0x4ce <mainMenu+0x6a>
     {
       PREV_BUTTON_PIN = BUTTON_PIN;
     560:	83 b3       	in	r24, 0x13	; 19
     562:	80 93 a3 01 	sts	0x01A3, r24
       return;
     }
    }
  }
}
     566:	66 96       	adiw	r28, 0x16	; 22
     568:	0f b6       	in	r0, 0x3f	; 63
     56a:	f8 94       	cli
     56c:	de bf       	out	0x3e, r29	; 62
     56e:	0f be       	out	0x3f, r0	; 63
     570:	cd bf       	out	0x3d, r28	; 61
     572:	cf 91       	pop	r28
     574:	df 91       	pop	r29
     576:	1f 91       	pop	r17
     578:	0f 91       	pop	r16
     57a:	ff 90       	pop	r15
     57c:	ef 90       	pop	r14
     57e:	df 90       	pop	r13
     580:	08 95       	ret

00000582 <main>:

int main(void)
{
     582:	2f 92       	push	r2
     584:	3f 92       	push	r3
     586:	4f 92       	push	r4
     588:	5f 92       	push	r5
     58a:	6f 92       	push	r6
     58c:	7f 92       	push	r7
     58e:	8f 92       	push	r8
     590:	9f 92       	push	r9
     592:	af 92       	push	r10
     594:	bf 92       	push	r11
     596:	cf 92       	push	r12
     598:	df 92       	push	r13
     59a:	ef 92       	push	r14
     59c:	ff 92       	push	r15
     59e:	0f 93       	push	r16
     5a0:	1f 93       	push	r17
     5a2:	df 93       	push	r29
     5a4:	cf 93       	push	r28
     5a6:	cd b7       	in	r28, 0x3d	; 61
     5a8:	de b7       	in	r29, 0x3e	; 62
     5aa:	ae 97       	sbiw	r28, 0x2e	; 46
     5ac:	0f b6       	in	r0, 0x3f	; 63
     5ae:	f8 94       	cli
     5b0:	de bf       	out	0x3e, r29	; 62
     5b2:	0f be       	out	0x3f, r0	; 63
     5b4:	cd bf       	out	0x3d, r28	; 61
	/* BMP180  */
	int32_t bmp180_temp = 0;
     5b6:	1a 82       	std	Y+2, r1	; 0x02
     5b8:	1b 82       	std	Y+3, r1	; 0x03
     5ba:	1c 82       	std	Y+4, r1	; 0x04
     5bc:	1d 82       	std	Y+5, r1	; 0x05
	int32_t bmp180_pressure = 0;
     5be:	1e 82       	std	Y+6, r1	; 0x06
     5c0:	1f 82       	std	Y+7, r1	; 0x07
     5c2:	18 86       	std	Y+8, r1	; 0x08
     5c4:	19 86       	std	Y+9, r1	; 0x09
	int16_t bmp180_calib_int16_t[8];
	int16_t bmp180_calib_uint16_t[3];
	uint8_t error_code = 0;
     5c6:	19 82       	std	Y+1, r1	; 0x01
	/* DHT22 */
	struct dht22 dht;
	float dht_temp = 0.0f, dht_hum = 0.0f;
     5c8:	80 e0       	ldi	r24, 0x00	; 0
     5ca:	90 e0       	ldi	r25, 0x00	; 0
     5cc:	a0 e0       	ldi	r26, 0x00	; 0
     5ce:	b0 e0       	ldi	r27, 0x00	; 0
     5d0:	8a 87       	std	Y+10, r24	; 0x0a
     5d2:	9b 87       	std	Y+11, r25	; 0x0b
     5d4:	ac 87       	std	Y+12, r26	; 0x0c
     5d6:	bd 87       	std	Y+13, r27	; 0x0d
     5d8:	8e 87       	std	Y+14, r24	; 0x0e
     5da:	9f 87       	std	Y+15, r25	; 0x0f
     5dc:	a8 8b       	std	Y+16, r26	; 0x10
     5de:	b9 8b       	std	Y+17, r27	; 0x11
	/* LM35 */
	unsigned int val;
	float lm35_temp;
  
	/* ³í³ö³àë³çàö³ÿ êíîïîê */
	BUTTON_DDR&=~(1<<MENU_ENTER_BTN_PIN)&~(1<<SELECT_PLUS_BTN_PIN)&~(1<<SELECT_MINUS_BTN_PIN)&~(1<<EXIT_BTN_PIN);
     5e0:	84 b3       	in	r24, 0x14	; 20
     5e2:	80 7f       	andi	r24, 0xF0	; 240
     5e4:	84 bb       	out	0x14, r24	; 20
	BUTTON_PORT|=(1<<MENU_ENTER_BTN_PIN)|(1<<SELECT_PLUS_BTN_PIN)|(1<<SELECT_MINUS_BTN_PIN)|(1<<EXIT_BTN_PIN);	
     5e6:	85 b3       	in	r24, 0x15	; 21
     5e8:	8f 60       	ori	r24, 0x0F	; 15
     5ea:	85 bb       	out	0x15, r24	; 21
	
	/* ³í³ö³àë³çàö³ÿ ÀÖÏ, ÐÊÄ  */
	initADC();
     5ec:	0e 94 b2 0d 	call	0x1b64	; 0x1b64 <initADC>
	LCDinit();
     5f0:	0e 94 93 04 	call	0x926	; 0x926 <LCDinit>
	LCDcursorOFF();  
     5f4:	0e 94 57 05 	call	0xaae	; 0xaae <LCDcursorOFF>
	/* ³í³ö³àë³çàö³ÿ UART0 */
	//uart_init();
	/* ³í³ö³àë³çàö³ÿ TWI */
	i2cSetBitrate(1000);
     5f8:	88 ee       	ldi	r24, 0xE8	; 232
     5fa:	93 e0       	ldi	r25, 0x03	; 3
     5fc:	0e 94 dc 05 	call	0xbb8	; 0xbb8 <i2cSetBitrate>
	/* ³í³ö³àë³çàö³ÿ äàâà÷à BMP180 */
	bmp180Calibration(bmp180_calib_int16_t, bmp180_calib_uint16_t, &error_code);
     600:	ce 01       	movw	r24, r28
     602:	4f 96       	adiw	r24, 0x1f	; 31
     604:	be 01       	movw	r22, r28
     606:	6e 5e       	subi	r22, 0xEE	; 238
     608:	7f 4f       	sbci	r23, 0xFF	; 255
     60a:	ae 01       	movw	r20, r28
     60c:	4f 5f       	subi	r20, 0xFF	; 255
     60e:	5f 4f       	sbci	r21, 0xFF	; 255
     610:	0e 94 07 0b 	call	0x160e	; 0x160e <bmp180Calibration>
	/* ³í³ö³àë³çàö³ÿ äàâà÷à DHT22 */
	dht_init(&dht,3);
     614:	ce 01       	movw	r24, r28
     616:	48 96       	adiw	r24, 0x18	; 24
     618:	63 e0       	ldi	r22, 0x03	; 3
     61a:	0e 94 ad 0b 	call	0x175a	; 0x175a <dht_init>
  
	LCDGotoXY(0,0);    
     61e:	80 e0       	ldi	r24, 0x00	; 0
     620:	60 e0       	ldi	r22, 0x00	; 0
     622:	0e 94 cd 04 	call	0x99a	; 0x99a <LCDGotoXY>
	LCDstring("Weather Parameters");
     626:	83 e3       	ldi	r24, 0x33	; 51
     628:	91 e0       	ldi	r25, 0x01	; 1
     62a:	0e 94 dc 04 	call	0x9b8	; 0x9b8 <LCDstring>
	LCDGotoXY(0,1);
     62e:	80 e0       	ldi	r24, 0x00	; 0
     630:	61 e0       	ldi	r22, 0x01	; 1
     632:	0e 94 cd 04 	call	0x99a	; 0x99a <LCDGotoXY>
	LCDstring("Monitoring System");
     636:	86 e4       	ldi	r24, 0x46	; 70
     638:	91 e0       	ldi	r25, 0x01	; 1
     63a:	0e 94 dc 04 	call	0x9b8	; 0x9b8 <LCDstring>
	LCDGotoXY(0,2);  
     63e:	80 e0       	ldi	r24, 0x00	; 0
     640:	62 e0       	ldi	r22, 0x02	; 2
     642:	0e 94 cd 04 	call	0x99a	; 0x99a <LCDGotoXY>
	LCDstring("KNEM-22");
     646:	88 e5       	ldi	r24, 0x58	; 88
     648:	91 e0       	ldi	r25, 0x01	; 1
     64a:	0e 94 dc 04 	call	0x9b8	; 0x9b8 <LCDstring>
	LCDGotoXY(0,3); 
     64e:	80 e0       	ldi	r24, 0x00	; 0
     650:	63 e0       	ldi	r22, 0x03	; 3
     652:	0e 94 cd 04 	call	0x99a	; 0x99a <LCDGotoXY>
	LCDstring("Nazar Kurovetskyy");
     656:	80 e6       	ldi	r24, 0x60	; 96
     658:	91 e0       	ldi	r25, 0x01	; 1
     65a:	0e 94 dc 04 	call	0x9b8	; 0x9b8 <LCDstring>
     65e:	80 e1       	ldi	r24, 0x10	; 16
     660:	97 e2       	ldi	r25, 0x27	; 39
    milliseconds can be achieved.
 */
void
_delay_loop_2(uint16_t __count)
{
	__asm__ volatile (
     662:	20 e9       	ldi	r18, 0x90	; 144
     664:	31 e0       	ldi	r19, 0x01	; 1
     666:	f9 01       	movw	r30, r18
     668:	31 97       	sbiw	r30, 0x01	; 1
     66a:	f1 f7       	brne	.-4      	; 0x668 <main+0xe6>
		__ticks = (uint16_t) (__ms * 10.0);
		while(__ticks)
		{
			// wait 1/10 ms
			_delay_loop_2(((F_CPU) / 4e3) / 10);
			__ticks --;
     66c:	01 97       	sbiw	r24, 0x01	; 1
		__ticks = 1;
	else if (__tmp > 65535)
	{
		//	__ticks = requested delay in 1/10 ms
		__ticks = (uint16_t) (__ms * 10.0);
		while(__ticks)
     66e:	d9 f7       	brne	.-10     	; 0x666 <main+0xe4>
	_delay_ms(1000);
	LCDclr();	
     670:	0e 94 c5 04 	call	0x98a	; 0x98a <LCDclr>
		bmp180Convert(bmp180_calib_int16_t, bmp180_calib_uint16_t, &bmp180_temp, &bmp180_pressure, &error_code);
		//printf("%ld;%ld;%ld\n", bmp180_temp/10, bmp180_pressure, bmp180CalcAltitude(bmp180_pressure)/10);
		//printf("Temperature: %ld\n", bmp180_temp);
		//printf("Pressure: %ld Pa\n", bmp180_pressure);
		//printf("Altitude: %ld m\n\n", bmp180CalcAltitude(bmp180_pressure)/10);
		sprintf(lcd_buffer,"%+.1f%cC %1.f hPa", (float) bmp180_temp/10, 0xdf, (float) bmp180_pressure * 0.01);
     674:	6e ef       	ldi	r22, 0xFE	; 254
     676:	a6 2e       	mov	r10, r22
     678:	61 e0       	ldi	r22, 0x01	; 1
     67a:	b6 2e       	mov	r11, r22
     67c:	5f ed       	ldi	r21, 0xDF	; 223
     67e:	85 2e       	mov	r8, r21
     680:	91 2c       	mov	r9, r1
		val = readADC(0); //measure temp ADC0 pin from LM35
		lm35_temp = getTemp_lm35(val); 
		sprintf(lcd_buffer,"%ld m %+.1f%cC", bmp180CalcAltitude(bmp180_pressure)/10, lm35_temp, 0xdf);
		LCDGotoXY(0,1);    
		LCDstring(lcd_buffer);
		dht_read_data(&dht, &dht_temp, &dht_hum);
     682:	4e e0       	ldi	r20, 0x0E	; 14
     684:	24 2e       	mov	r2, r20
     686:	31 2c       	mov	r3, r1
     688:	2c 0e       	add	r2, r28
     68a:	3d 1e       	adc	r3, r29
		sprintf(lcd_buffer,"%+.1f%cC %.1f%%", dht_temp, 0xdf,  dht_hum);
     68c:	33 e9       	ldi	r19, 0x93	; 147
     68e:	43 2e       	mov	r4, r19
     690:	31 e0       	ldi	r19, 0x01	; 1
     692:	53 2e       	mov	r5, r19
     694:	20 e4       	ldi	r18, 0x40	; 64
     696:	62 2e       	mov	r6, r18
     698:	2c e9       	ldi	r18, 0x9C	; 156
     69a:	72 2e       	mov	r7, r18
	_delay_ms(1000);
	LCDclr();	
  
	while(1)
	{	
		bmp180Convert(bmp180_calib_int16_t, bmp180_calib_uint16_t, &bmp180_temp, &bmp180_pressure, &error_code);
     69c:	ce 01       	movw	r24, r28
     69e:	4f 96       	adiw	r24, 0x1f	; 31
     6a0:	be 01       	movw	r22, r28
     6a2:	6e 5e       	subi	r22, 0xEE	; 238
     6a4:	7f 4f       	sbci	r23, 0xFF	; 255
     6a6:	ae 01       	movw	r20, r28
     6a8:	4e 5f       	subi	r20, 0xFE	; 254
     6aa:	5f 4f       	sbci	r21, 0xFF	; 255
     6ac:	9e 01       	movw	r18, r28
     6ae:	2a 5f       	subi	r18, 0xFA	; 250
     6b0:	3f 4f       	sbci	r19, 0xFF	; 255
     6b2:	8e 01       	movw	r16, r28
     6b4:	0f 5f       	subi	r16, 0xFF	; 255
     6b6:	1f 4f       	sbci	r17, 0xFF	; 255
     6b8:	0e 94 2e 09 	call	0x125c	; 0x125c <bmp180Convert>
		//printf("%ld;%ld;%ld\n", bmp180_temp/10, bmp180_pressure, bmp180CalcAltitude(bmp180_pressure)/10);
		//printf("Temperature: %ld\n", bmp180_temp);
		//printf("Pressure: %ld Pa\n", bmp180_pressure);
		//printf("Altitude: %ld m\n\n", bmp180CalcAltitude(bmp180_pressure)/10);
		sprintf(lcd_buffer,"%+.1f%cC %1.f hPa", (float) bmp180_temp/10, 0xdf, (float) bmp180_pressure * 0.01);
     6bc:	2d b7       	in	r18, 0x3d	; 61
     6be:	3e b7       	in	r19, 0x3e	; 62
     6c0:	2e 50       	subi	r18, 0x0E	; 14
     6c2:	30 40       	sbci	r19, 0x00	; 0
     6c4:	0f b6       	in	r0, 0x3f	; 63
     6c6:	f8 94       	cli
     6c8:	3e bf       	out	0x3e, r19	; 62
     6ca:	0f be       	out	0x3f, r0	; 63
     6cc:	2d bf       	out	0x3d, r18	; 61
     6ce:	0d b7       	in	r16, 0x3d	; 61
     6d0:	1e b7       	in	r17, 0x3e	; 62
     6d2:	0f 5f       	subi	r16, 0xFF	; 255
     6d4:	1f 4f       	sbci	r17, 0xFF	; 255
     6d6:	ad b7       	in	r26, 0x3d	; 61
     6d8:	be b7       	in	r27, 0x3e	; 62
     6da:	12 96       	adiw	r26, 0x02	; 2
     6dc:	bc 92       	st	X, r11
     6de:	ae 92       	st	-X, r10
     6e0:	11 97       	sbiw	r26, 0x01	; 1
     6e2:	22 e7       	ldi	r18, 0x72	; 114
     6e4:	31 e0       	ldi	r19, 0x01	; 1
     6e6:	f8 01       	movw	r30, r16
     6e8:	33 83       	std	Z+3, r19	; 0x03
     6ea:	22 83       	std	Z+2, r18	; 0x02
     6ec:	6a 81       	ldd	r22, Y+2	; 0x02
     6ee:	7b 81       	ldd	r23, Y+3	; 0x03
     6f0:	8c 81       	ldd	r24, Y+4	; 0x04
     6f2:	9d 81       	ldd	r25, Y+5	; 0x05
     6f4:	0e 94 61 12 	call	0x24c2	; 0x24c2 <__floatsisf>
     6f8:	20 e0       	ldi	r18, 0x00	; 0
     6fa:	30 e0       	ldi	r19, 0x00	; 0
     6fc:	40 e2       	ldi	r20, 0x20	; 32
     6fe:	51 e4       	ldi	r21, 0x41	; 65
     700:	0e 94 c6 11 	call	0x238c	; 0x238c <__divsf3>
     704:	d8 01       	movw	r26, r16
     706:	14 96       	adiw	r26, 0x04	; 4
     708:	6d 93       	st	X+, r22
     70a:	7d 93       	st	X+, r23
     70c:	8d 93       	st	X+, r24
     70e:	9c 93       	st	X, r25
     710:	17 97       	sbiw	r26, 0x07	; 7
     712:	19 96       	adiw	r26, 0x09	; 9
     714:	9c 92       	st	X, r9
     716:	8e 92       	st	-X, r8
     718:	18 97       	sbiw	r26, 0x08	; 8
     71a:	6e 81       	ldd	r22, Y+6	; 0x06
     71c:	7f 81       	ldd	r23, Y+7	; 0x07
     71e:	88 85       	ldd	r24, Y+8	; 0x08
     720:	99 85       	ldd	r25, Y+9	; 0x09
     722:	0e 94 61 12 	call	0x24c2	; 0x24c2 <__floatsisf>
     726:	2a e0       	ldi	r18, 0x0A	; 10
     728:	37 ed       	ldi	r19, 0xD7	; 215
     72a:	43 e2       	ldi	r20, 0x23	; 35
     72c:	5c e3       	ldi	r21, 0x3C	; 60
     72e:	0e 94 11 13 	call	0x2622	; 0x2622 <__mulsf3>
     732:	f8 01       	movw	r30, r16
     734:	62 87       	std	Z+10, r22	; 0x0a
     736:	73 87       	std	Z+11, r23	; 0x0b
     738:	84 87       	std	Z+12, r24	; 0x0c
     73a:	95 87       	std	Z+13, r25	; 0x0d
     73c:	0e 94 ad 16 	call	0x2d5a	; 0x2d5a <sprintf>
		LCDGotoXY(0,0);    
     740:	2d b7       	in	r18, 0x3d	; 61
     742:	3e b7       	in	r19, 0x3e	; 62
     744:	22 5f       	subi	r18, 0xF2	; 242
     746:	3f 4f       	sbci	r19, 0xFF	; 255
     748:	0f b6       	in	r0, 0x3f	; 63
     74a:	f8 94       	cli
     74c:	3e bf       	out	0x3e, r19	; 62
     74e:	0f be       	out	0x3f, r0	; 63
     750:	2d bf       	out	0x3d, r18	; 61
     752:	80 e0       	ldi	r24, 0x00	; 0
     754:	60 e0       	ldi	r22, 0x00	; 0
     756:	0e 94 cd 04 	call	0x99a	; 0x99a <LCDGotoXY>
		LCDstring(lcd_buffer);
     75a:	c5 01       	movw	r24, r10
     75c:	0e 94 dc 04 	call	0x9b8	; 0x9b8 <LCDstring>
		val = readADC(0); //measure temp ADC0 pin from LM35
     760:	80 e0       	ldi	r24, 0x00	; 0
     762:	0e 94 b7 0d 	call	0x1b6e	; 0x1b6e <readADC>
		lm35_temp = getTemp_lm35(val); 
     766:	0e 94 c3 0d 	call	0x1b86	; 0x1b86 <getTemp_lm35>
     76a:	6b 01       	movw	r12, r22
     76c:	7c 01       	movw	r14, r24
		sprintf(lcd_buffer,"%ld m %+.1f%cC", bmp180CalcAltitude(bmp180_pressure)/10, lm35_temp, 0xdf);
     76e:	6e 81       	ldd	r22, Y+6	; 0x06
     770:	7f 81       	ldd	r23, Y+7	; 0x07
     772:	88 85       	ldd	r24, Y+8	; 0x08
     774:	99 85       	ldd	r25, Y+9	; 0x09
     776:	0e 94 85 0b 	call	0x170a	; 0x170a <bmp180CalcAltitude>
     77a:	ad b7       	in	r26, 0x3d	; 61
     77c:	be b7       	in	r27, 0x3e	; 62
     77e:	1e 97       	sbiw	r26, 0x0e	; 14
     780:	0f b6       	in	r0, 0x3f	; 63
     782:	f8 94       	cli
     784:	be bf       	out	0x3e, r27	; 62
     786:	0f be       	out	0x3f, r0	; 63
     788:	ad bf       	out	0x3d, r26	; 61
     78a:	0d b7       	in	r16, 0x3d	; 61
     78c:	1e b7       	in	r17, 0x3e	; 62
     78e:	0f 5f       	subi	r16, 0xFF	; 255
     790:	1f 4f       	sbci	r17, 0xFF	; 255
     792:	12 96       	adiw	r26, 0x02	; 2
     794:	bc 92       	st	X, r11
     796:	ae 92       	st	-X, r10
     798:	11 97       	sbiw	r26, 0x01	; 1
     79a:	24 e8       	ldi	r18, 0x84	; 132
     79c:	31 e0       	ldi	r19, 0x01	; 1
     79e:	f8 01       	movw	r30, r16
     7a0:	33 83       	std	Z+3, r19	; 0x03
     7a2:	22 83       	std	Z+2, r18	; 0x02
     7a4:	2a e0       	ldi	r18, 0x0A	; 10
     7a6:	30 e0       	ldi	r19, 0x00	; 0
     7a8:	40 e0       	ldi	r20, 0x00	; 0
     7aa:	50 e0       	ldi	r21, 0x00	; 0
     7ac:	0e 94 2d 15 	call	0x2a5a	; 0x2a5a <__divmodsi4>
     7b0:	d8 01       	movw	r26, r16
     7b2:	14 96       	adiw	r26, 0x04	; 4
     7b4:	2d 93       	st	X+, r18
     7b6:	3d 93       	st	X+, r19
     7b8:	4d 93       	st	X+, r20
     7ba:	5c 93       	st	X, r21
     7bc:	17 97       	sbiw	r26, 0x07	; 7
     7be:	f8 01       	movw	r30, r16
     7c0:	c0 86       	std	Z+8, r12	; 0x08
     7c2:	d1 86       	std	Z+9, r13	; 0x09
     7c4:	e2 86       	std	Z+10, r14	; 0x0a
     7c6:	f3 86       	std	Z+11, r15	; 0x0b
     7c8:	95 86       	std	Z+13, r9	; 0x0d
     7ca:	84 86       	std	Z+12, r8	; 0x0c
     7cc:	0e 94 ad 16 	call	0x2d5a	; 0x2d5a <sprintf>
		LCDGotoXY(0,1);    
     7d0:	2d b7       	in	r18, 0x3d	; 61
     7d2:	3e b7       	in	r19, 0x3e	; 62
     7d4:	22 5f       	subi	r18, 0xF2	; 242
     7d6:	3f 4f       	sbci	r19, 0xFF	; 255
     7d8:	0f b6       	in	r0, 0x3f	; 63
     7da:	f8 94       	cli
     7dc:	3e bf       	out	0x3e, r19	; 62
     7de:	0f be       	out	0x3f, r0	; 63
     7e0:	2d bf       	out	0x3d, r18	; 61
     7e2:	80 e0       	ldi	r24, 0x00	; 0
     7e4:	61 e0       	ldi	r22, 0x01	; 1
     7e6:	0e 94 cd 04 	call	0x99a	; 0x99a <LCDGotoXY>
		LCDstring(lcd_buffer);
     7ea:	c5 01       	movw	r24, r10
     7ec:	0e 94 dc 04 	call	0x9b8	; 0x9b8 <LCDstring>
		dht_read_data(&dht, &dht_temp, &dht_hum);
     7f0:	ce 01       	movw	r24, r28
     7f2:	48 96       	adiw	r24, 0x18	; 24
     7f4:	be 01       	movw	r22, r28
     7f6:	66 5f       	subi	r22, 0xF6	; 246
     7f8:	7f 4f       	sbci	r23, 0xFF	; 255
     7fa:	a1 01       	movw	r20, r2
     7fc:	0e 94 1f 0d 	call	0x1a3e	; 0x1a3e <dht_read_data>
		sprintf(lcd_buffer,"%+.1f%cC %.1f%%", dht_temp, 0xdf,  dht_hum);
     800:	8d b7       	in	r24, 0x3d	; 61
     802:	9e b7       	in	r25, 0x3e	; 62
     804:	0e 97       	sbiw	r24, 0x0e	; 14
     806:	0f b6       	in	r0, 0x3f	; 63
     808:	f8 94       	cli
     80a:	9e bf       	out	0x3e, r25	; 62
     80c:	0f be       	out	0x3f, r0	; 63
     80e:	8d bf       	out	0x3d, r24	; 61
     810:	ed b7       	in	r30, 0x3d	; 61
     812:	fe b7       	in	r31, 0x3e	; 62
     814:	31 96       	adiw	r30, 0x01	; 1
     816:	ad b7       	in	r26, 0x3d	; 61
     818:	be b7       	in	r27, 0x3e	; 62
     81a:	12 96       	adiw	r26, 0x02	; 2
     81c:	bc 92       	st	X, r11
     81e:	ae 92       	st	-X, r10
     820:	11 97       	sbiw	r26, 0x01	; 1
     822:	53 82       	std	Z+3, r5	; 0x03
     824:	42 82       	std	Z+2, r4	; 0x02
     826:	8a 85       	ldd	r24, Y+10	; 0x0a
     828:	9b 85       	ldd	r25, Y+11	; 0x0b
     82a:	ac 85       	ldd	r26, Y+12	; 0x0c
     82c:	bd 85       	ldd	r27, Y+13	; 0x0d
     82e:	84 83       	std	Z+4, r24	; 0x04
     830:	95 83       	std	Z+5, r25	; 0x05
     832:	a6 83       	std	Z+6, r26	; 0x06
     834:	b7 83       	std	Z+7, r27	; 0x07
     836:	91 86       	std	Z+9, r9	; 0x09
     838:	80 86       	std	Z+8, r8	; 0x08
     83a:	8e 85       	ldd	r24, Y+14	; 0x0e
     83c:	9f 85       	ldd	r25, Y+15	; 0x0f
     83e:	a8 89       	ldd	r26, Y+16	; 0x10
     840:	b9 89       	ldd	r27, Y+17	; 0x11
     842:	82 87       	std	Z+10, r24	; 0x0a
     844:	93 87       	std	Z+11, r25	; 0x0b
     846:	a4 87       	std	Z+12, r26	; 0x0c
     848:	b5 87       	std	Z+13, r27	; 0x0d
     84a:	0e 94 ad 16 	call	0x2d5a	; 0x2d5a <sprintf>
		LCDGotoXY(0,2);    
     84e:	ed b7       	in	r30, 0x3d	; 61
     850:	fe b7       	in	r31, 0x3e	; 62
     852:	3e 96       	adiw	r30, 0x0e	; 14
     854:	0f b6       	in	r0, 0x3f	; 63
     856:	f8 94       	cli
     858:	fe bf       	out	0x3e, r31	; 62
     85a:	0f be       	out	0x3f, r0	; 63
     85c:	ed bf       	out	0x3d, r30	; 61
     85e:	80 e0       	ldi	r24, 0x00	; 0
     860:	62 e0       	ldi	r22, 0x02	; 2
     862:	0e 94 cd 04 	call	0x99a	; 0x99a <LCDGotoXY>
		LCDstring(lcd_buffer);
     866:	c5 01       	movw	r24, r10
     868:	0e 94 dc 04 	call	0x9b8	; 0x9b8 <LCDstring>
     86c:	c3 01       	movw	r24, r6
     86e:	01 97       	sbiw	r24, 0x01	; 1
     870:	f1 f7       	brne	.-4      	; 0x86e <main+0x2ec>
		_delay_ms(10);
		if (getBtnStatus(MENU_ENTER_BTN_PIN))
     872:	98 99       	sbic	0x13, 0	; 19
     874:	0a c0       	rjmp	.+20     	; 0x88a <main+0x308>
          if (!getPrevBtnStatus(MENU_ENTER_BTN_PIN))
     876:	80 91 a3 01 	lds	r24, 0x01A3
     87a:	80 ff       	sbrs	r24, 0
     87c:	06 c0       	rjmp	.+12     	; 0x88a <main+0x308>
          {
            LCDclr();
     87e:	0e 94 c5 04 	call	0x98a	; 0x98a <LCDclr>
            mainMenu();
     882:	0e 94 32 02 	call	0x464	; 0x464 <mainMenu>
            LCDclr();;
     886:	0e 94 c5 04 	call	0x98a	; 0x98a <LCDclr>
          }
        PREV_BUTTON_PIN = BUTTON_PIN;
     88a:	83 b3       	in	r24, 0x13	; 19
     88c:	80 93 a3 01 	sts	0x01A3, r24
     890:	05 cf       	rjmp	.-502    	; 0x69c <main+0x11a>

00000892 <LCDstrLen>:
		__ticks = (uint16_t)__tmp;
	_delay_loop_2(__ticks);
}
*/
uint8_t LCDstrLen(char *s)
{
     892:	ac 01       	movw	r20, r24
     894:	20 e0       	ldi	r18, 0x00	; 0
     896:	01 c0       	rjmp	.+2      	; 0x89a <LCDstrLen+0x8>
	uint8_t i=0;
	while (s[i]!='\0') i++;
     898:	2f 5f       	subi	r18, 0xFF	; 255
     89a:	fa 01       	movw	r30, r20
     89c:	e2 0f       	add	r30, r18
     89e:	f1 1d       	adc	r31, r1
     8a0:	80 81       	ld	r24, Z
     8a2:	88 23       	and	r24, r24
     8a4:	c9 f7       	brne	.-14     	; 0x898 <LCDstrLen+0x6>
	return i;
}
     8a6:	82 2f       	mov	r24, r18
     8a8:	08 95       	ret

000008aa <LCDsendChar>:

void LCDsendChar(uint8_t ch)		//Sends Char to LCD
{
	//ch=(ch&0b00001111);
	//ch=~ch;
	LDP=(ch&0b11110000);
     8aa:	28 2f       	mov	r18, r24
     8ac:	20 7f       	andi	r18, 0xF0	; 240
     8ae:	2b bb       	out	0x1b, r18	; 27
	LCP|=1<<LCD_RS;
     8b0:	d8 9a       	sbi	0x1b, 0	; 27
	LCP|=1<<LCD_E;		
     8b2:	da 9a       	sbi	0x1b, 2	; 27
     8b4:	20 ea       	ldi	r18, 0xA0	; 160
     8b6:	3f e0       	ldi	r19, 0x0F	; 15
     8b8:	f9 01       	movw	r30, r18
     8ba:	31 97       	sbiw	r30, 0x01	; 1
     8bc:	f1 f7       	brne	.-4      	; 0x8ba <LCDsendChar+0x10>
	_delay_ms(1);
	LCP&=~(1<<LCD_E);	
     8be:	da 98       	cbi	0x1b, 2	; 27
	LCP&=~(1<<LCD_RS);
     8c0:	d8 98       	cbi	0x1b, 0	; 27
     8c2:	f9 01       	movw	r30, r18
     8c4:	31 97       	sbiw	r30, 0x01	; 1
     8c6:	f1 f7       	brne	.-4      	; 0x8c4 <LCDsendChar+0x1a>
	_delay_ms(1);
	LDP=((ch&0b00001111)<<4);
     8c8:	90 e0       	ldi	r25, 0x00	; 0
     8ca:	44 e0       	ldi	r20, 0x04	; 4
     8cc:	88 0f       	add	r24, r24
     8ce:	99 1f       	adc	r25, r25
     8d0:	4a 95       	dec	r20
     8d2:	e1 f7       	brne	.-8      	; 0x8cc <LCDsendChar+0x22>
     8d4:	8b bb       	out	0x1b, r24	; 27
	LCP|=1<<LCD_RS;
     8d6:	d8 9a       	sbi	0x1b, 0	; 27
	LCP|=1<<LCD_E;		
     8d8:	da 9a       	sbi	0x1b, 2	; 27
     8da:	c9 01       	movw	r24, r18
     8dc:	01 97       	sbiw	r24, 0x01	; 1
     8de:	f1 f7       	brne	.-4      	; 0x8dc <LCDsendChar+0x32>
	_delay_ms(1);
	LCP&=~(1<<LCD_E);	
     8e0:	da 98       	cbi	0x1b, 2	; 27
	LCP&=~(1<<LCD_RS);
     8e2:	d8 98       	cbi	0x1b, 0	; 27
     8e4:	c9 01       	movw	r24, r18
     8e6:	01 97       	sbiw	r24, 0x01	; 1
     8e8:	f1 f7       	brne	.-4      	; 0x8e6 <LCDsendChar+0x3c>
	_delay_ms(1);
}
     8ea:	08 95       	ret

000008ec <LCDsendCommand>:
void LCDsendCommand(uint8_t cmd)	//Sends Command to LCD
{
	LDP=(cmd&0b11110000);
     8ec:	28 2f       	mov	r18, r24
     8ee:	20 7f       	andi	r18, 0xF0	; 240
     8f0:	2b bb       	out	0x1b, r18	; 27
	LCP|=1<<LCD_E;		
     8f2:	da 9a       	sbi	0x1b, 2	; 27
     8f4:	20 ea       	ldi	r18, 0xA0	; 160
     8f6:	3f e0       	ldi	r19, 0x0F	; 15
     8f8:	f9 01       	movw	r30, r18
     8fa:	31 97       	sbiw	r30, 0x01	; 1
     8fc:	f1 f7       	brne	.-4      	; 0x8fa <LCDsendCommand+0xe>
	_delay_ms(1);
	LCP&=~(1<<LCD_E);
     8fe:	da 98       	cbi	0x1b, 2	; 27
     900:	f9 01       	movw	r30, r18
     902:	31 97       	sbiw	r30, 0x01	; 1
     904:	f1 f7       	brne	.-4      	; 0x902 <LCDsendCommand+0x16>
	_delay_ms(1);
	LDP=((cmd&0b00001111)<<4);	
     906:	90 e0       	ldi	r25, 0x00	; 0
     908:	54 e0       	ldi	r21, 0x04	; 4
     90a:	88 0f       	add	r24, r24
     90c:	99 1f       	adc	r25, r25
     90e:	5a 95       	dec	r21
     910:	e1 f7       	brne	.-8      	; 0x90a <LCDsendCommand+0x1e>
     912:	8b bb       	out	0x1b, r24	; 27
	LCP|=1<<LCD_E;		
     914:	da 9a       	sbi	0x1b, 2	; 27
     916:	c9 01       	movw	r24, r18
     918:	01 97       	sbiw	r24, 0x01	; 1
     91a:	f1 f7       	brne	.-4      	; 0x918 <LCDsendCommand+0x2c>
	_delay_ms(1);
	LCP&=~(1<<LCD_E);
     91c:	da 98       	cbi	0x1b, 2	; 27
     91e:	c9 01       	movw	r24, r18
     920:	01 97       	sbiw	r24, 0x01	; 1
     922:	f1 f7       	brne	.-4      	; 0x920 <LCDsendCommand+0x34>
	_delay_ms(1);
}
     924:	08 95       	ret

00000926 <LCDinit>:
     926:	80 e6       	ldi	r24, 0x60	; 96
     928:	9a ee       	ldi	r25, 0xEA	; 234
     92a:	01 97       	sbiw	r24, 0x01	; 1
     92c:	f1 f7       	brne	.-4      	; 0x92a <LCDinit+0x4>
void LCDinit(void)//Initializes LCD
{
	_delay_ms(15);
	LDP=0x00;
     92e:	1b ba       	out	0x1b, r1	; 27
	LCP=0x00;
     930:	1b ba       	out	0x1b, r1	; 27
	LDDR|=1<<LCD_D7|1<<LCD_D6|1<<LCD_D5|1<<LCD_D4;
     932:	8a b3       	in	r24, 0x1a	; 26
     934:	80 6f       	ori	r24, 0xF0	; 240
     936:	8a bb       	out	0x1a, r24	; 26
	LCDR|=1<<LCD_E|1<<LCD_RW|1<<LCD_RS;
     938:	8a b3       	in	r24, 0x1a	; 26
     93a:	87 60       	ori	r24, 0x07	; 7
     93c:	8a bb       	out	0x1a, r24	; 26
   //---------one------
	LDP=0<<LCD_D7|0<<LCD_D6|1<<LCD_D5|1<<LCD_D4; //4 bit mode
     93e:	80 e3       	ldi	r24, 0x30	; 48
     940:	8b bb       	out	0x1b, r24	; 27
	LCP|=1<<LCD_E|0<<LCD_RW|0<<LCD_RS;		
     942:	da 9a       	sbi	0x1b, 2	; 27
     944:	20 ea       	ldi	r18, 0xA0	; 160
     946:	3f e0       	ldi	r19, 0x0F	; 15
     948:	f9 01       	movw	r30, r18
     94a:	31 97       	sbiw	r30, 0x01	; 1
     94c:	f1 f7       	brne	.-4      	; 0x94a <LCDinit+0x24>
	_delay_ms(1);
	LCP&=~(1<<LCD_E);
     94e:	da 98       	cbi	0x1b, 2	; 27
     950:	f9 01       	movw	r30, r18
     952:	31 97       	sbiw	r30, 0x01	; 1
     954:	f1 f7       	brne	.-4      	; 0x952 <LCDinit+0x2c>
	_delay_ms(1);
	//-----------two-----------
	LDP=0<<LCD_D7|0<<LCD_D6|1<<LCD_D5|1<<LCD_D4; //4 bit mode
     956:	8b bb       	out	0x1b, r24	; 27
	LCP|=1<<LCD_E|0<<LCD_RW|0<<LCD_RS;		
     958:	da 9a       	sbi	0x1b, 2	; 27
     95a:	c9 01       	movw	r24, r18
     95c:	01 97       	sbiw	r24, 0x01	; 1
     95e:	f1 f7       	brne	.-4      	; 0x95c <LCDinit+0x36>
	_delay_ms(1);
	LCP&=~(1<<LCD_E);
     960:	da 98       	cbi	0x1b, 2	; 27
     962:	c9 01       	movw	r24, r18
     964:	01 97       	sbiw	r24, 0x01	; 1
     966:	f1 f7       	brne	.-4      	; 0x964 <LCDinit+0x3e>
	_delay_ms(1);
	//-------three-------------
	LDP=0<<LCD_D7|0<<LCD_D6|1<<LCD_D5|0<<LCD_D4; //4 bit mode
     968:	80 e2       	ldi	r24, 0x20	; 32
     96a:	8b bb       	out	0x1b, r24	; 27
	LCP|=1<<LCD_E|0<<LCD_RW|0<<LCD_RS;		
     96c:	da 9a       	sbi	0x1b, 2	; 27
     96e:	c9 01       	movw	r24, r18
     970:	01 97       	sbiw	r24, 0x01	; 1
     972:	f1 f7       	brne	.-4      	; 0x970 <LCDinit+0x4a>
	_delay_ms(1);
	LCP&=~(1<<LCD_E);
     974:	da 98       	cbi	0x1b, 2	; 27
     976:	c9 01       	movw	r24, r18
     978:	01 97       	sbiw	r24, 0x01	; 1
     97a:	f1 f7       	brne	.-4      	; 0x978 <LCDinit+0x52>
	_delay_ms(1);
	//--------4 bit--dual line---------------
	LCDsendCommand(0b00101000);
     97c:	88 e2       	ldi	r24, 0x28	; 40
     97e:	0e 94 76 04 	call	0x8ec	; 0x8ec <LCDsendCommand>
   //-----increment address, cursor shift------
	LCDsendCommand(0b00001110);
     982:	8e e0       	ldi	r24, 0x0E	; 14
     984:	0e 94 76 04 	call	0x8ec	; 0x8ec <LCDsendCommand>


}			
     988:	08 95       	ret

0000098a <LCDclr>:
void LCDclr(void)				//Clears LCD
{
	LCDsendCommand(1<<LCD_CLR);
     98a:	81 e0       	ldi	r24, 0x01	; 1
     98c:	0e 94 76 04 	call	0x8ec	; 0x8ec <LCDsendCommand>
}
     990:	08 95       	ret

00000992 <LCDhome>:
void LCDhome(void)			//LCD cursor home
{
	LCDsendCommand(1<<LCD_HOME);
     992:	82 e0       	ldi	r24, 0x02	; 2
     994:	0e 94 76 04 	call	0x8ec	; 0x8ec <LCDsendCommand>
}
     998:	08 95       	ret

0000099a <LCDGotoXY>:

void LCDGotoXY(uint8_t x, uint8_t y)	//Cursor to X Y position
{
	register uint8_t DDRAMAddr;
	// remap lines into proper order
	switch(y)
     99a:	62 30       	cpi	r22, 0x02	; 2
     99c:	31 f0       	breq	.+12     	; 0x9aa <LCDGotoXY+0x10>
     99e:	63 30       	cpi	r22, 0x03	; 3
     9a0:	31 f0       	breq	.+12     	; 0x9ae <LCDGotoXY+0x14>
     9a2:	61 30       	cpi	r22, 0x01	; 1
     9a4:	29 f4       	brne	.+10     	; 0x9b0 <LCDGotoXY+0x16>
	{
	case 0: DDRAMAddr = LCD_LINE0_DDRAMADDR+x; break;
	case 1: DDRAMAddr = LCD_LINE1_DDRAMADDR+x; break;
     9a6:	80 5c       	subi	r24, 0xC0	; 192
     9a8:	03 c0       	rjmp	.+6      	; 0x9b0 <LCDGotoXY+0x16>
	case 2: DDRAMAddr = LCD_LINE2_DDRAMADDR+x; break;
     9aa:	8c 5e       	subi	r24, 0xEC	; 236
     9ac:	01 c0       	rjmp	.+2      	; 0x9b0 <LCDGotoXY+0x16>
	case 3: DDRAMAddr = LCD_LINE3_DDRAMADDR+x; break;
     9ae:	8c 5a       	subi	r24, 0xAC	; 172
	default: DDRAMAddr = LCD_LINE0_DDRAMADDR+x;
	}
	// set data address
	LCDsendCommand(1<<LCD_DDRAM | DDRAMAddr);
     9b0:	80 68       	ori	r24, 0x80	; 128
     9b2:	0e 94 76 04 	call	0x8ec	; 0x8ec <LCDsendCommand>
	
}
     9b6:	08 95       	ret

000009b8 <LCDstring>:
	}	
	while(i++<33) LCDsendChar(' ');
}*/

void LCDstring(char* data)	//Outputs string to LCD
{
     9b8:	1f 93       	push	r17
     9ba:	cf 93       	push	r28
     9bc:	df 93       	push	r29
     9be:	ec 01       	movw	r28, r24
	register uint8_t i=0;//, j=0; 
//	uint8_t nline=0;
	
	// check to make sure we have a good pointer
	if (!data) return;
     9c0:	00 97       	sbiw	r24, 0x00	; 0
     9c2:	91 f0       	breq	.+36     	; 0x9e8 <LCDstring+0x30>
     9c4:	10 e0       	ldi	r17, 0x00	; 0
     9c6:	0a c0       	rjmp	.+20     	; 0x9dc <LCDstring+0x24>
	
	// print data
	while (data[i] != '\0') 
	{
		if (data[i] == '\n') 
     9c8:	8a 30       	cpi	r24, 0x0A	; 10
     9ca:	29 f4       	brne	.+10     	; 0x9d6 <LCDstring+0x1e>
		  LCDGotoXY(0,1);
     9cc:	80 e0       	ldi	r24, 0x00	; 0
     9ce:	61 e0       	ldi	r22, 0x01	; 1
     9d0:	0e 94 cd 04 	call	0x99a	; 0x99a <LCDGotoXY>
     9d4:	02 c0       	rjmp	.+4      	; 0x9da <LCDstring+0x22>
			/*if(data[i] >= 0x80)		// ÿêùî ñèìâîë íå ëàòèíñüêèé òî,
		    {
		      data[i] -= 0x80;        // çìåíøóºìî òàáëèöþ
		      data[i] = eeprom_read_word(&TabWin[i]);     // ïåðåêîäîâóºìî 
			}*/
			LCDsendChar(data[i]);
     9d6:	0e 94 55 04 	call	0x8aa	; 0x8aa <LCDsendChar>
		}
		i++;
     9da:	1f 5f       	subi	r17, 0xFF	; 255
	
	// check to make sure we have a good pointer
	if (!data) return;
	
	// print data
	while (data[i] != '\0') 
     9dc:	fe 01       	movw	r30, r28
     9de:	e1 0f       	add	r30, r17
     9e0:	f1 1d       	adc	r31, r1
     9e2:	80 81       	ld	r24, Z
     9e4:	88 23       	and	r24, r24
     9e6:	81 f7       	brne	.-32     	; 0x9c8 <LCDstring+0x10>
			}*/
			LCDsendChar(data[i]);
		}
		i++;
    }	
}
     9e8:	df 91       	pop	r29
     9ea:	cf 91       	pop	r28
     9ec:	1f 91       	pop	r17
     9ee:	08 95       	ret

000009f0 <CopyStringtoLCD>:
}
//Copies string from flash memory to LCD at x y position
//const uint8_t welcomeln1[] PROGMEM="AVR LCD DEMO\0";
//CopyStringtoLCD(welcomeln1, 3, 1);	
void CopyStringtoLCD(const uint8_t *FlashLoc, uint8_t x, uint8_t y)
{
     9f0:	1f 93       	push	r17
     9f2:	cf 93       	push	r28
     9f4:	df 93       	push	r29
     9f6:	ec 01       	movw	r28, r24
     9f8:	86 2f       	mov	r24, r22
	uint8_t i;
	LCDGotoXY(x,y);
     9fa:	64 2f       	mov	r22, r20
     9fc:	0e 94 cd 04 	call	0x99a	; 0x99a <LCDGotoXY>
     a00:	10 e0       	ldi	r17, 0x00	; 0
     a02:	03 c0       	rjmp	.+6      	; 0xa0a <CopyStringtoLCD+0x1a>
	for(i=0;(uint8_t)pgm_read_byte(&FlashLoc[i]);i++)
	{
		LCDsendChar((uint8_t)pgm_read_byte(&FlashLoc[i]));
     a04:	0e 94 55 04 	call	0x8aa	; 0x8aa <LCDsendChar>
//CopyStringtoLCD(welcomeln1, 3, 1);	
void CopyStringtoLCD(const uint8_t *FlashLoc, uint8_t x, uint8_t y)
{
	uint8_t i;
	LCDGotoXY(x,y);
	for(i=0;(uint8_t)pgm_read_byte(&FlashLoc[i]);i++)
     a08:	1f 5f       	subi	r17, 0xFF	; 255
     a0a:	fe 01       	movw	r30, r28
     a0c:	e1 0f       	add	r30, r17
     a0e:	f1 1d       	adc	r31, r1
     a10:	84 91       	lpm	r24, Z+
     a12:	88 23       	and	r24, r24
     a14:	b9 f7       	brne	.-18     	; 0xa04 <CopyStringtoLCD+0x14>
	{
		LCDsendChar((uint8_t)pgm_read_byte(&FlashLoc[i]));
	}
}
     a16:	df 91       	pop	r29
     a18:	cf 91       	pop	r28
     a1a:	1f 91       	pop	r17
     a1c:	08 95       	ret

00000a1e <LCDdefinechar>:
0b00000000,
0b00000000
};
LCDdefinechar(backslash,0);
*/
void LCDdefinechar(const uint8_t *pc,uint8_t char_code){
     a1e:	ef 92       	push	r14
     a20:	ff 92       	push	r15
     a22:	0f 93       	push	r16
     a24:	1f 93       	push	r17
     a26:	cf 93       	push	r28
     a28:	df 93       	push	r29
     a2a:	7c 01       	movw	r14, r24
     a2c:	16 2f       	mov	r17, r22
	uint8_t a, pcc;
	uint16_t i;
	a=(char_code<<3)|0x40;
     a2e:	11 0f       	add	r17, r17
     a30:	11 0f       	add	r17, r17
     a32:	11 0f       	add	r17, r17
     a34:	10 64       	ori	r17, 0x40	; 64
     a36:	c0 e0       	ldi	r28, 0x00	; 0
     a38:	d0 e0       	ldi	r29, 0x00	; 0
	for (i=0; i<8; i++){
		pcc=pgm_read_byte(&pc[i]);
     a3a:	f7 01       	movw	r30, r14
     a3c:	ec 0f       	add	r30, r28
     a3e:	fd 1f       	adc	r31, r29
     a40:	04 91       	lpm	r16, Z+
		LCDsendCommand(a++);
     a42:	81 2f       	mov	r24, r17
     a44:	8c 0f       	add	r24, r28
     a46:	0e 94 76 04 	call	0x8ec	; 0x8ec <LCDsendCommand>
		LCDsendChar(pcc);
     a4a:	80 2f       	mov	r24, r16
     a4c:	0e 94 55 04 	call	0x8aa	; 0x8aa <LCDsendChar>
*/
void LCDdefinechar(const uint8_t *pc,uint8_t char_code){
	uint8_t a, pcc;
	uint16_t i;
	a=(char_code<<3)|0x40;
	for (i=0; i<8; i++){
     a50:	21 96       	adiw	r28, 0x01	; 1
     a52:	c8 30       	cpi	r28, 0x08	; 8
     a54:	d1 05       	cpc	r29, r1
     a56:	89 f7       	brne	.-30     	; 0xa3a <LCDdefinechar+0x1c>
		pcc=pgm_read_byte(&pc[i]);
		LCDsendCommand(a++);
		LCDsendChar(pcc);
		}
}
     a58:	df 91       	pop	r29
     a5a:	cf 91       	pop	r28
     a5c:	1f 91       	pop	r17
     a5e:	0f 91       	pop	r16
     a60:	ff 90       	pop	r15
     a62:	ef 90       	pop	r14
     a64:	08 95       	ret

00000a66 <LCDshiftLeft>:

void LCDshiftLeft(uint8_t n)	//Scrol n of characters Right
{
     a66:	0f 93       	push	r16
     a68:	1f 93       	push	r17
     a6a:	08 2f       	mov	r16, r24
     a6c:	10 e0       	ldi	r17, 0x00	; 0
     a6e:	04 c0       	rjmp	.+8      	; 0xa78 <LCDshiftLeft+0x12>
	for (uint8_t i=0;i<n;i++)
	{
		LCDsendCommand(0x1E);
     a70:	8e e1       	ldi	r24, 0x1E	; 30
     a72:	0e 94 76 04 	call	0x8ec	; 0x8ec <LCDsendCommand>
		}
}

void LCDshiftLeft(uint8_t n)	//Scrol n of characters Right
{
	for (uint8_t i=0;i<n;i++)
     a76:	1f 5f       	subi	r17, 0xFF	; 255
     a78:	10 17       	cp	r17, r16
     a7a:	d0 f3       	brcs	.-12     	; 0xa70 <LCDshiftLeft+0xa>
	{
		LCDsendCommand(0x1E);
	}
}
     a7c:	1f 91       	pop	r17
     a7e:	0f 91       	pop	r16
     a80:	08 95       	ret

00000a82 <LCDshiftRight>:
void LCDshiftRight(uint8_t n)	//Scrol n of characters Left
{
     a82:	0f 93       	push	r16
     a84:	1f 93       	push	r17
     a86:	08 2f       	mov	r16, r24
     a88:	10 e0       	ldi	r17, 0x00	; 0
     a8a:	04 c0       	rjmp	.+8      	; 0xa94 <LCDshiftRight+0x12>
	for (uint8_t i=0;i<n;i++)
	{
		LCDsendCommand(0x18);
     a8c:	88 e1       	ldi	r24, 0x18	; 24
     a8e:	0e 94 76 04 	call	0x8ec	; 0x8ec <LCDsendCommand>
		LCDsendCommand(0x1E);
	}
}
void LCDshiftRight(uint8_t n)	//Scrol n of characters Left
{
	for (uint8_t i=0;i<n;i++)
     a92:	1f 5f       	subi	r17, 0xFF	; 255
     a94:	10 17       	cp	r17, r16
     a96:	d0 f3       	brcs	.-12     	; 0xa8c <LCDshiftRight+0xa>
	{
		LCDsendCommand(0x18);
	}
}
     a98:	1f 91       	pop	r17
     a9a:	0f 91       	pop	r16
     a9c:	08 95       	ret

00000a9e <LCDcursorOn>:
void LCDcursorOn(void) //displays LCD cursor
{
	LCDsendCommand(0x0E);
     a9e:	8e e0       	ldi	r24, 0x0E	; 14
     aa0:	0e 94 76 04 	call	0x8ec	; 0x8ec <LCDsendCommand>
}
     aa4:	08 95       	ret

00000aa6 <LCDcursorOnBlink>:
void LCDcursorOnBlink(void)	//displays LCD blinking cursor
{
	LCDsendCommand(0x0F);
     aa6:	8f e0       	ldi	r24, 0x0F	; 15
     aa8:	0e 94 76 04 	call	0x8ec	; 0x8ec <LCDsendCommand>
}
     aac:	08 95       	ret

00000aae <LCDcursorOFF>:
void LCDcursorOFF(void)	//turns OFF cursor
{
	LCDsendCommand(0x0C);
     aae:	8c e0       	ldi	r24, 0x0C	; 12
     ab0:	0e 94 76 04 	call	0x8ec	; 0x8ec <LCDsendCommand>
}
     ab4:	08 95       	ret

00000ab6 <LCDblank>:
void LCDblank(void)		//blanks LCD
{
	LCDsendCommand(0x08);
     ab6:	88 e0       	ldi	r24, 0x08	; 8
     ab8:	0e 94 76 04 	call	0x8ec	; 0x8ec <LCDsendCommand>
}
     abc:	08 95       	ret

00000abe <LCDvisible>:
void LCDvisible(void)		//Shows LCD
{
	LCDsendCommand(0x0C);
     abe:	8c e0       	ldi	r24, 0x0C	; 12
     ac0:	0e 94 76 04 	call	0x8ec	; 0x8ec <LCDsendCommand>
}
     ac4:	08 95       	ret

00000ac6 <LCDcursorLeft>:
void LCDcursorLeft(uint8_t n)	//Moves cursor by n poisitions left
{
     ac6:	0f 93       	push	r16
     ac8:	1f 93       	push	r17
     aca:	08 2f       	mov	r16, r24
     acc:	10 e0       	ldi	r17, 0x00	; 0
     ace:	04 c0       	rjmp	.+8      	; 0xad8 <LCDcursorLeft+0x12>
	for (uint8_t i=0;i<n;i++)
	{
		LCDsendCommand(0x10);
     ad0:	80 e1       	ldi	r24, 0x10	; 16
     ad2:	0e 94 76 04 	call	0x8ec	; 0x8ec <LCDsendCommand>
{
	LCDsendCommand(0x0C);
}
void LCDcursorLeft(uint8_t n)	//Moves cursor by n poisitions left
{
	for (uint8_t i=0;i<n;i++)
     ad6:	1f 5f       	subi	r17, 0xFF	; 255
     ad8:	10 17       	cp	r17, r16
     ada:	d0 f3       	brcs	.-12     	; 0xad0 <LCDcursorLeft+0xa>
	{
		LCDsendCommand(0x10);
	}
}
     adc:	1f 91       	pop	r17
     ade:	0f 91       	pop	r16
     ae0:	08 95       	ret

00000ae2 <LCDcursorRight>:
void LCDcursorRight(uint8_t n)	//Moves cursor by n poisitions left
{
     ae2:	0f 93       	push	r16
     ae4:	1f 93       	push	r17
     ae6:	08 2f       	mov	r16, r24
     ae8:	10 e0       	ldi	r17, 0x00	; 0
     aea:	04 c0       	rjmp	.+8      	; 0xaf4 <LCDcursorRight+0x12>
	for (uint8_t i=0;i<n;i++)
	{
		LCDsendCommand(0x14);
     aec:	84 e1       	ldi	r24, 0x14	; 20
     aee:	0e 94 76 04 	call	0x8ec	; 0x8ec <LCDsendCommand>
		LCDsendCommand(0x10);
	}
}
void LCDcursorRight(uint8_t n)	//Moves cursor by n poisitions left
{
	for (uint8_t i=0;i<n;i++)
     af2:	1f 5f       	subi	r17, 0xFF	; 255
     af4:	10 17       	cp	r17, r16
     af6:	d0 f3       	brcs	.-12     	; 0xaec <LCDcursorRight+0xa>
	{
		LCDsendCommand(0x14);
	}
}
     af8:	1f 91       	pop	r17
     afa:	0f 91       	pop	r16
     afc:	08 95       	ret

00000afe <LCDWriteInt>:

void LCDWriteInt(int val,unsigned int field_length)
{
     afe:	ef 92       	push	r14
     b00:	ff 92       	push	r15
     b02:	0f 93       	push	r16
     b04:	1f 93       	push	r17
     b06:	df 93       	push	r29
     b08:	cf 93       	push	r28
     b0a:	00 d0       	rcall	.+0      	; 0xb0c <LCDWriteInt+0xe>
     b0c:	00 d0       	rcall	.+0      	; 0xb0e <LCDWriteInt+0x10>
     b0e:	0f 92       	push	r0
     b10:	cd b7       	in	r28, 0x3d	; 61
     b12:	de b7       	in	r29, 0x3e	; 62
     b14:	9c 01       	movw	r18, r24
     b16:	8b 01       	movw	r16, r22
	2)unsigned int field_length :total length of field in which the value is printed
	must be between 1-5 if it is -1 the field length is no of digits in the val

	****************************************************************/

	char str[5]={0,0,0,0,0};
     b18:	fe 01       	movw	r30, r28
     b1a:	31 96       	adiw	r30, 0x01	; 1
     b1c:	85 e0       	ldi	r24, 0x05	; 5
     b1e:	df 01       	movw	r26, r30
     b20:	1d 92       	st	X+, r1
     b22:	8a 95       	dec	r24
     b24:	e9 f7       	brne	.-6      	; 0xb20 <LCDWriteInt+0x22>
     b26:	fe 01       	movw	r30, r28
     b28:	35 96       	adiw	r30, 0x05	; 5
     b2a:	0d c0       	rjmp	.+26     	; 0xb46 <LCDWriteInt+0x48>
	int i=4,j=0;
	while(val)
	{
	str[i]=val%10;
     b2c:	c9 01       	movw	r24, r18
     b2e:	6a e0       	ldi	r22, 0x0A	; 10
     b30:	70 e0       	ldi	r23, 0x00	; 0
     b32:	0e 94 f8 14 	call	0x29f0	; 0x29f0 <__divmodhi4>
     b36:	80 83       	st	Z, r24
	val=val/10;
     b38:	c9 01       	movw	r24, r18
     b3a:	6a e0       	ldi	r22, 0x0A	; 10
     b3c:	70 e0       	ldi	r23, 0x00	; 0
     b3e:	0e 94 f8 14 	call	0x29f0	; 0x29f0 <__divmodhi4>
     b42:	9b 01       	movw	r18, r22
     b44:	31 97       	sbiw	r30, 0x01	; 1

	****************************************************************/

	char str[5]={0,0,0,0,0};
	int i=4,j=0;
	while(val)
     b46:	21 15       	cp	r18, r1
     b48:	31 05       	cpc	r19, r1
     b4a:	81 f7       	brne	.-32     	; 0xb2c <LCDWriteInt+0x2e>
	{
	str[i]=val%10;
	val=val/10;
	i--;
	}
	if(field_length==-1)
     b4c:	bf ef       	ldi	r27, 0xFF	; 255
     b4e:	0f 3f       	cpi	r16, 0xFF	; 255
     b50:	1b 07       	cpc	r17, r27
     b52:	79 f4       	brne	.+30     	; 0xb72 <LCDWriteInt+0x74>
     b54:	20 e0       	ldi	r18, 0x00	; 0
     b56:	30 e0       	ldi	r19, 0x00	; 0
		while(str[j]==0) j++;
     b58:	ae 01       	movw	r20, r28
     b5a:	4f 5f       	subi	r20, 0xFF	; 255
     b5c:	5f 4f       	sbci	r21, 0xFF	; 255
     b5e:	02 c0       	rjmp	.+4      	; 0xb64 <LCDWriteInt+0x66>
     b60:	2f 5f       	subi	r18, 0xFF	; 255
     b62:	3f 4f       	sbci	r19, 0xFF	; 255
     b64:	fa 01       	movw	r30, r20
     b66:	e2 0f       	add	r30, r18
     b68:	f3 1f       	adc	r31, r19
     b6a:	80 81       	ld	r24, Z
     b6c:	88 23       	and	r24, r24
     b6e:	c1 f3       	breq	.-16     	; 0xb60 <LCDWriteInt+0x62>
     b70:	04 c0       	rjmp	.+8      	; 0xb7a <LCDWriteInt+0x7c>
	else
		j=5-field_length;
     b72:	25 e0       	ldi	r18, 0x05	; 5
     b74:	30 e0       	ldi	r19, 0x00	; 0
     b76:	20 1b       	sub	r18, r16
     b78:	31 0b       	sbc	r19, r17
     b7a:	7e 01       	movw	r14, r28
     b7c:	08 94       	sec
     b7e:	e1 1c       	adc	r14, r1
     b80:	f1 1c       	adc	r15, r1
     b82:	e2 0e       	add	r14, r18
     b84:	f3 1e       	adc	r15, r19
     b86:	89 01       	movw	r16, r18
     b88:	08 c0       	rjmp	.+16     	; 0xb9a <LCDWriteInt+0x9c>

	if(val<0) LCDsendChar('-');
	for(i=j;i<5;i++)
	{
	  LCDsendChar(48+str[i]);
     b8a:	f7 01       	movw	r30, r14
     b8c:	81 91       	ld	r24, Z+
     b8e:	7f 01       	movw	r14, r30
     b90:	80 5d       	subi	r24, 0xD0	; 208
     b92:	0e 94 55 04 	call	0x8aa	; 0x8aa <LCDsendChar>
		while(str[j]==0) j++;
	else
		j=5-field_length;

	if(val<0) LCDsendChar('-');
	for(i=j;i<5;i++)
     b96:	0f 5f       	subi	r16, 0xFF	; 255
     b98:	1f 4f       	sbci	r17, 0xFF	; 255
     b9a:	05 30       	cpi	r16, 0x05	; 5
     b9c:	11 05       	cpc	r17, r1
     b9e:	ac f3       	brlt	.-22     	; 0xb8a <LCDWriteInt+0x8c>
	{
	  LCDsendChar(48+str[i]);
	}
}
     ba0:	0f 90       	pop	r0
     ba2:	0f 90       	pop	r0
     ba4:	0f 90       	pop	r0
     ba6:	0f 90       	pop	r0
     ba8:	0f 90       	pop	r0
     baa:	cf 91       	pop	r28
     bac:	df 91       	pop	r29
     bae:	1f 91       	pop	r17
     bb0:	0f 91       	pop	r16
     bb2:	ff 90       	pop	r15
     bb4:	ef 90       	pop	r14
     bb6:	08 95       	ret

00000bb8 <i2cSetBitrate>:
void i2cSetBitrate(uint16_t bitratekHz)
{
	uint8_t bitrate_div;
	// set i2c bitrate
	// Set Prescaler to one --> TWPS = 1
	TWSR =((0<<TWPS0)|(0<<TWPS1));
     bb8:	10 92 71 00 	sts	0x0071, r1
	//calculate bitrate division	
	bitrate_div = (((float)F_CPU/1000.0)/(float)bitratekHz);
     bbc:	a0 e0       	ldi	r26, 0x00	; 0
     bbe:	b0 e0       	ldi	r27, 0x00	; 0
     bc0:	bc 01       	movw	r22, r24
     bc2:	cd 01       	movw	r24, r26
     bc4:	0e 94 5f 12 	call	0x24be	; 0x24be <__floatunsisf>
     bc8:	9b 01       	movw	r18, r22
     bca:	ac 01       	movw	r20, r24
     bcc:	60 e0       	ldi	r22, 0x00	; 0
     bce:	70 e0       	ldi	r23, 0x00	; 0
     bd0:	8a e7       	ldi	r24, 0x7A	; 122
     bd2:	96 e4       	ldi	r25, 0x46	; 70
     bd4:	0e 94 c6 11 	call	0x238c	; 0x238c <__divsf3>
     bd8:	0e 94 33 12 	call	0x2466	; 0x2466 <__fixunssfsi>
	if(bitrate_div >= 16){
     bdc:	60 31       	cpi	r22, 0x10	; 16
     bde:	88 f0       	brcs	.+34     	; 0xc02 <i2cSetBitrate+0x4a>
		bitrate_div = (float)(bitrate_div-16)/8;
     be0:	70 e0       	ldi	r23, 0x00	; 0
     be2:	60 51       	subi	r22, 0x10	; 16
     be4:	70 40       	sbci	r23, 0x00	; 0
     be6:	88 27       	eor	r24, r24
     be8:	77 fd       	sbrc	r23, 7
     bea:	80 95       	com	r24
     bec:	98 2f       	mov	r25, r24
     bee:	0e 94 61 12 	call	0x24c2	; 0x24c2 <__floatsisf>
     bf2:	20 e0       	ldi	r18, 0x00	; 0
     bf4:	30 e0       	ldi	r19, 0x00	; 0
     bf6:	40 e0       	ldi	r20, 0x00	; 0
     bf8:	5e e3       	ldi	r21, 0x3E	; 62
     bfa:	0e 94 11 13 	call	0x2622	; 0x2622 <__mulsf3>
     bfe:	0e 94 33 12 	call	0x2466	; 0x2466 <__fixunssfsi>
	}
	//printf("DIV: %d \n",bitrate_div);
	TWBR=(uint8_t)bitrate_div;
     c02:	60 93 70 00 	sts	0x0070, r22
	//TWBR=0; -> max speed
	PORTC |= ((1<<PINC4) | (1<<PINC5));
     c06:	85 b3       	in	r24, 0x15	; 21
     c08:	80 63       	ori	r24, 0x30	; 48
     c0a:	85 bb       	out	0x15, r24	; 21
}
     c0c:	08 95       	ret

00000c0e <i2cSendStart>:
// 
//----------------------------------------
void i2cSendStart(void)
{
	// send start condition
	TWCR = (1<<TWINT)|(1<<TWSTA)|(1<<TWEN);
     c0e:	84 ea       	ldi	r24, 0xA4	; 164
     c10:	80 93 74 00 	sts	0x0074, r24
}
     c14:	08 95       	ret

00000c16 <i2cSendStop>:
{
	
	uint8_t i = 0;		//time out variable
	uint8_t error_code=0;
	// transmit stop condition
    TWCR = (1<<TWINT)|(1<<TWEN)|(1<<TWSTO);	
     c16:	84 e9       	ldi	r24, 0x94	; 148
     c18:	80 93 74 00 	sts	0x0074, r24
     c1c:	90 e0       	ldi	r25, 0x00	; 0
    can be achieved.
*/
void
_delay_loop_1(uint8_t __count)
{
	__asm__ volatile (
     c1e:	25 e0       	ldi	r18, 0x05	; 5
     c20:	04 c0       	rjmp	.+8      	; 0xc2a <i2cSendStop+0x14>
     c22:	82 2f       	mov	r24, r18
     c24:	8a 95       	dec	r24
     c26:	f1 f7       	brne	.-4      	; 0xc24 <i2cSendStop+0xe>

	// wait until stop condition is executed and bus released
    while ((TWCR & (1<<TWSTO)) && (i < 90)){
		_delay_us(1);
		i++;
     c28:	9f 5f       	subi	r25, 0xFF	; 255
	uint8_t error_code=0;
	// transmit stop condition
    TWCR = (1<<TWINT)|(1<<TWEN)|(1<<TWSTO);	

	// wait until stop condition is executed and bus released
    while ((TWCR & (1<<TWSTO)) && (i < 90)){
     c2a:	80 91 74 00 	lds	r24, 0x0074
     c2e:	84 ff       	sbrs	r24, 4
     c30:	03 c0       	rjmp	.+6      	; 0xc38 <i2cSendStop+0x22>
     c32:	9a 35       	cpi	r25, 0x5A	; 90
     c34:	b1 f7       	brne	.-20     	; 0xc22 <i2cSendStop+0xc>
     c36:	04 c0       	rjmp	.+8      	; 0xc40 <i2cSendStop+0x2a>
		_delay_us(1);
		i++;
	}
	if (i>89){
     c38:	9a 35       	cpi	r25, 0x5A	; 90
     c3a:	10 f4       	brcc	.+4      	; 0xc40 <i2cSendStop+0x2a>
     c3c:	80 e0       	ldi	r24, 0x00	; 0
     c3e:	08 95       	ret
     c40:	85 e0       	ldi	r24, 0x05	; 5
     c42:	8a 95       	dec	r24
     c44:	f1 f7       	brne	.-4      	; 0xc42 <i2cSendStop+0x2c>
     c46:	84 e6       	ldi	r24, 0x64	; 100
		_delay_us(1);
		error_code=100;

	}
	return error_code;
}
     c48:	08 95       	ret

00000c4a <i2cSendByte>:
// 
//----------------------------------------
void i2cSendByte(unsigned char data)
{
	// save data to the TWDR
	TWDR = data;
     c4a:	80 93 73 00 	sts	0x0073, r24
	// begin send
	TWCR = (1<<TWINT)|(1<<TWEN);
     c4e:	84 e8       	ldi	r24, 0x84	; 132
     c50:	80 93 74 00 	sts	0x0074, r24
}
     c54:	08 95       	ret

00000c56 <i2cReceiveByteACK>:
// 
//----------------------------------------
void i2cReceiveByteACK(void)
{

	TWCR = (1<<TWINT)|(1<<TWEN)|(1<<TWEA);
     c56:	84 ec       	ldi	r24, 0xC4	; 196
     c58:	80 93 74 00 	sts	0x0074, r24
}
     c5c:	08 95       	ret

00000c5e <i2cReceiveByteNACK>:
// 
//----------------------------------------
void i2cReceiveByteNACK(void)
{

	TWCR = (1<<TWINT)|(1<<TWEN);
     c5e:	84 e8       	ldi	r24, 0x84	; 132
     c60:	80 93 74 00 	sts	0x0074, r24
}
     c64:	08 95       	ret

00000c66 <i2cWaitForComplete>:
//----------------------------------------
// 
//----------------------------------------
uint8_t i2cWaitForComplete(void)
{
     c66:	90 e0       	ldi	r25, 0x00	; 0
     c68:	25 e0       	ldi	r18, 0x05	; 5
     c6a:	04 c0       	rjmp	.+8      	; 0xc74 <i2cWaitForComplete+0xe>
     c6c:	82 2f       	mov	r24, r18
     c6e:	8a 95       	dec	r24
     c70:	f1 f7       	brne	.-4      	; 0xc6e <i2cWaitForComplete+0x8>
	uint8_t error_code=0;	

	// wait for i2c interface to complete operation
    while ((!(TWCR & (1<<TWINT))) && (i < 90)){
		_delay_us(1);
		i++;
     c72:	9f 5f       	subi	r25, 0xFF	; 255
{
	uint8_t i = 0;		//time out variable
	uint8_t error_code=0;	

	// wait for i2c interface to complete operation
    while ((!(TWCR & (1<<TWINT))) && (i < 90)){
     c74:	80 91 74 00 	lds	r24, 0x0074
     c78:	87 fd       	sbrc	r24, 7
     c7a:	03 c0       	rjmp	.+6      	; 0xc82 <i2cWaitForComplete+0x1c>
     c7c:	9a 35       	cpi	r25, 0x5A	; 90
     c7e:	b1 f7       	brne	.-20     	; 0xc6c <i2cWaitForComplete+0x6>
     c80:	04 c0       	rjmp	.+8      	; 0xc8a <i2cWaitForComplete+0x24>
		_delay_us(1);
		i++;
	}
	if (i>89){
     c82:	9a 35       	cpi	r25, 0x5A	; 90
     c84:	10 f4       	brcc	.+4      	; 0xc8a <i2cWaitForComplete+0x24>
     c86:	80 e0       	ldi	r24, 0x00	; 0
     c88:	08 95       	ret
     c8a:	85 e0       	ldi	r24, 0x05	; 5
     c8c:	8a 95       	dec	r24
     c8e:	f1 f7       	brne	.-4      	; 0xc8c <i2cWaitForComplete+0x26>
     c90:	84 e6       	ldi	r24, 0x64	; 100
		_delay_us(1);
		error_code=100;

	}
	return error_code;
}
     c92:	08 95       	ret

00000c94 <i2cGetReceivedByte>:
// 
//----------------------------------------
uint8_t i2cGetReceivedByte(void)
{
	// retieve received data byte from i2c TWDR
	return (uint8_t)TWDR;
     c94:	80 91 73 00 	lds	r24, 0x0073
}
     c98:	08 95       	ret

00000c9a <checki2cReturnCode>:
//----------------------------------------
uint8_t checki2cReturnCode(uint8_t expected_return_code){
	uint8_t error_code=0;
	uint8_t i=0;
	//while (error_code!=0 && i!=0 && i<3){
		if ((TWSR & 0xF8) != expected_return_code){
     c9a:	20 91 71 00 	lds	r18, 0x0071
     c9e:	30 e0       	ldi	r19, 0x00	; 0
     ca0:	28 7f       	andi	r18, 0xF8	; 248
     ca2:	30 70       	andi	r19, 0x00	; 0
     ca4:	90 e0       	ldi	r25, 0x00	; 0
     ca6:	28 17       	cp	r18, r24
     ca8:	39 07       	cpc	r19, r25
     caa:	11 f0       	breq	.+4      	; 0xcb0 <checki2cReturnCode+0x16>
     cac:	8a e0       	ldi	r24, 0x0A	; 10
     cae:	08 95       	ret
     cb0:	80 e0       	ldi	r24, 0x00	; 0
			error_code=10;
		}
	i++;
//	}
	return error_code;
}
     cb2:	08 95       	ret

00000cb4 <bmp180ReadShort>:

#include "bmp180_lib.h"
#include "twi_lib.h"

uint16_t bmp180ReadShort(uint8_t address, uint8_t* error_code)
{
     cb4:	ef 92       	push	r14
     cb6:	ff 92       	push	r15
     cb8:	0f 93       	push	r16
     cba:	1f 93       	push	r17
     cbc:	cf 93       	push	r28
     cbe:	df 93       	push	r29
     cc0:	18 2f       	mov	r17, r24
     cc2:	eb 01       	movw	r28, r22
// 
//----------------------------------------
void i2cSendStart(void)
{
	// send start condition
	TWCR = (1<<TWINT)|(1<<TWSTA)|(1<<TWEN);
     cc4:	84 ea       	ldi	r24, 0xA4	; 164
     cc6:	80 93 74 00 	sts	0x0074, r24
	uint16_t msb=0;
	uint16_t lsb=0;
	uint16_t data;
	//Send Start Condition
	i2cSendStart();	
	*error_code=i2cWaitForComplete();
     cca:	0e 94 33 06 	call	0xc66	; 0xc66 <i2cWaitForComplete>
     cce:	88 83       	st	Y, r24
	if (*error_code==0){
     cd0:	88 23       	and	r24, r24
     cd2:	49 f4       	brne	.+18     	; 0xce6 <bmp180ReadShort+0x32>
//----------------------------------------
uint8_t checki2cReturnCode(uint8_t expected_return_code){
	uint8_t error_code=0;
	uint8_t i=0;
	//while (error_code!=0 && i!=0 && i<3){
		if ((TWSR & 0xF8) != expected_return_code){
     cd4:	80 91 71 00 	lds	r24, 0x0071
     cd8:	88 7f       	andi	r24, 0xF8	; 248
     cda:	88 30       	cpi	r24, 0x08	; 8
     cdc:	11 f0       	breq	.+4      	; 0xce2 <bmp180ReadShort+0x2e>
     cde:	8a e0       	ldi	r24, 0x0A	; 10
     ce0:	01 c0       	rjmp	.+2      	; 0xce4 <bmp180ReadShort+0x30>
     ce2:	80 e0       	ldi	r24, 0x00	; 0
		*error_code=checki2cReturnCode(TW_START);
     ce4:	88 83       	st	Y, r24
	}

	//Tell Salve go in receive mode
	if (*error_code==0){	
     ce6:	88 81       	ld	r24, Y
     ce8:	88 23       	and	r24, r24
     cea:	49 f4       	brne	.+18     	; 0xcfe <bmp180ReadShort+0x4a>
// 
//----------------------------------------
void i2cSendByte(unsigned char data)
{
	// save data to the TWDR
	TWDR = data;
     cec:	8e ee       	ldi	r24, 0xEE	; 238
     cee:	80 93 73 00 	sts	0x0073, r24
	// begin send
	TWCR = (1<<TWINT)|(1<<TWEN);
     cf2:	84 e8       	ldi	r24, 0x84	; 132
     cf4:	80 93 74 00 	sts	0x0074, r24
		i2cSendByte(BMP180_W);	// write 0xEE
		*error_code=i2cWaitForComplete();
     cf8:	0e 94 33 06 	call	0xc66	; 0xc66 <i2cWaitForComplete>
     cfc:	88 83       	st	Y, r24
	}
	//ACKS
	if (*error_code==0){	
     cfe:	88 81       	ld	r24, Y
     d00:	88 23       	and	r24, r24
     d02:	49 f4       	brne	.+18     	; 0xd16 <bmp180ReadShort+0x62>
//----------------------------------------
uint8_t checki2cReturnCode(uint8_t expected_return_code){
	uint8_t error_code=0;
	uint8_t i=0;
	//while (error_code!=0 && i!=0 && i<3){
		if ((TWSR & 0xF8) != expected_return_code){
     d04:	80 91 71 00 	lds	r24, 0x0071
     d08:	88 7f       	andi	r24, 0xF8	; 248
     d0a:	88 31       	cpi	r24, 0x18	; 24
     d0c:	11 f0       	breq	.+4      	; 0xd12 <bmp180ReadShort+0x5e>
     d0e:	8a e0       	ldi	r24, 0x0A	; 10
     d10:	01 c0       	rjmp	.+2      	; 0xd14 <bmp180ReadShort+0x60>
     d12:	80 e0       	ldi	r24, 0x00	; 0
		*error_code=checki2cReturnCode(TW_MT_SLA_ACK);
     d14:	88 83       	st	Y, r24
	}
	
	//Send read address to Salve
	if (*error_code==0){	
     d16:	88 81       	ld	r24, Y
     d18:	88 23       	and	r24, r24
     d1a:	41 f4       	brne	.+16     	; 0xd2c <bmp180ReadShort+0x78>
// 
//----------------------------------------
void i2cSendByte(unsigned char data)
{
	// save data to the TWDR
	TWDR = data;
     d1c:	10 93 73 00 	sts	0x0073, r17
	// begin send
	TWCR = (1<<TWINT)|(1<<TWEN);
     d20:	84 e8       	ldi	r24, 0x84	; 132
     d22:	80 93 74 00 	sts	0x0074, r24
		i2cSendByte(address);	// write register address
		*error_code=i2cWaitForComplete();
     d26:	0e 94 33 06 	call	0xc66	; 0xc66 <i2cWaitForComplete>
     d2a:	88 83       	st	Y, r24
	}
	//ACKS
	if (*error_code==0){	
     d2c:	88 81       	ld	r24, Y
     d2e:	88 23       	and	r24, r24
     d30:	49 f4       	brne	.+18     	; 0xd44 <bmp180ReadShort+0x90>
//----------------------------------------
uint8_t checki2cReturnCode(uint8_t expected_return_code){
	uint8_t error_code=0;
	uint8_t i=0;
	//while (error_code!=0 && i!=0 && i<3){
		if ((TWSR & 0xF8) != expected_return_code){
     d32:	80 91 71 00 	lds	r24, 0x0071
     d36:	88 7f       	andi	r24, 0xF8	; 248
     d38:	88 32       	cpi	r24, 0x28	; 40
     d3a:	11 f0       	breq	.+4      	; 0xd40 <bmp180ReadShort+0x8c>
     d3c:	8a e0       	ldi	r24, 0x0A	; 10
     d3e:	01 c0       	rjmp	.+2      	; 0xd42 <bmp180ReadShort+0x8e>
     d40:	80 e0       	ldi	r24, 0x00	; 0
		*error_code=checki2cReturnCode(TW_MT_DATA_ACK);
     d42:	88 83       	st	Y, r24
	}

	//Send Restart to Slave
	if (*error_code==0){	
     d44:	88 81       	ld	r24, Y
     d46:	88 23       	and	r24, r24
     d48:	31 f4       	brne	.+12     	; 0xd56 <bmp180ReadShort+0xa2>
// 
//----------------------------------------
void i2cSendStart(void)
{
	// send start condition
	TWCR = (1<<TWINT)|(1<<TWSTA)|(1<<TWEN);
     d4a:	84 ea       	ldi	r24, 0xA4	; 164
     d4c:	80 93 74 00 	sts	0x0074, r24
		i2cSendStart();
		*error_code=i2cWaitForComplete();
     d50:	0e 94 33 06 	call	0xc66	; 0xc66 <i2cWaitForComplete>
     d54:	88 83       	st	Y, r24
	}
	if (*error_code==0){	
     d56:	88 81       	ld	r24, Y
     d58:	88 23       	and	r24, r24
     d5a:	49 f4       	brne	.+18     	; 0xd6e <bmp180ReadShort+0xba>
//----------------------------------------
uint8_t checki2cReturnCode(uint8_t expected_return_code){
	uint8_t error_code=0;
	uint8_t i=0;
	//while (error_code!=0 && i!=0 && i<3){
		if ((TWSR & 0xF8) != expected_return_code){
     d5c:	80 91 71 00 	lds	r24, 0x0071
     d60:	88 7f       	andi	r24, 0xF8	; 248
     d62:	80 31       	cpi	r24, 0x10	; 16
     d64:	11 f0       	breq	.+4      	; 0xd6a <bmp180ReadShort+0xb6>
     d66:	8a e0       	ldi	r24, 0x0A	; 10
     d68:	01 c0       	rjmp	.+2      	; 0xd6c <bmp180ReadShort+0xb8>
     d6a:	80 e0       	ldi	r24, 0x00	; 0
		*error_code=checki2cReturnCode(TW_REP_START);
     d6c:	88 83       	st	Y, r24
	}

	//Tell Salve go in send mode
	if (*error_code==0){	
     d6e:	88 81       	ld	r24, Y
     d70:	88 23       	and	r24, r24
     d72:	49 f4       	brne	.+18     	; 0xd86 <bmp180ReadShort+0xd2>
// 
//----------------------------------------
void i2cSendByte(unsigned char data)
{
	// save data to the TWDR
	TWDR = data;
     d74:	8f ee       	ldi	r24, 0xEF	; 239
     d76:	80 93 73 00 	sts	0x0073, r24
	// begin send
	TWCR = (1<<TWINT)|(1<<TWEN);
     d7a:	84 e8       	ldi	r24, 0x84	; 132
     d7c:	80 93 74 00 	sts	0x0074, r24
		i2cSendByte(BMP180_R);	// read 0xEF
		*error_code=i2cWaitForComplete();
     d80:	0e 94 33 06 	call	0xc66	; 0xc66 <i2cWaitForComplete>
     d84:	88 83       	st	Y, r24
	}

	//ACKS
	if (*error_code==0){	
     d86:	88 81       	ld	r24, Y
     d88:	88 23       	and	r24, r24
     d8a:	49 f4       	brne	.+18     	; 0xd9e <bmp180ReadShort+0xea>
//----------------------------------------
uint8_t checki2cReturnCode(uint8_t expected_return_code){
	uint8_t error_code=0;
	uint8_t i=0;
	//while (error_code!=0 && i!=0 && i<3){
		if ((TWSR & 0xF8) != expected_return_code){
     d8c:	80 91 71 00 	lds	r24, 0x0071
     d90:	88 7f       	andi	r24, 0xF8	; 248
     d92:	80 34       	cpi	r24, 0x40	; 64
     d94:	11 f0       	breq	.+4      	; 0xd9a <bmp180ReadShort+0xe6>
     d96:	8a e0       	ldi	r24, 0x0A	; 10
     d98:	01 c0       	rjmp	.+2      	; 0xd9c <bmp180ReadShort+0xe8>
     d9a:	80 e0       	ldi	r24, 0x00	; 0
		*error_code=checki2cReturnCode(TW_MR_SLA_ACK);
     d9c:	88 83       	st	Y, r24
	}

	//Get MSB from Salve
	if (*error_code==0){	
     d9e:	88 81       	ld	r24, Y
     da0:	88 23       	and	r24, r24
     da2:	31 f4       	brne	.+12     	; 0xdb0 <bmp180ReadShort+0xfc>
// 
//----------------------------------------
void i2cReceiveByteACK(void)
{

	TWCR = (1<<TWINT)|(1<<TWEN)|(1<<TWEA);
     da4:	84 ec       	ldi	r24, 0xC4	; 196
     da6:	80 93 74 00 	sts	0x0074, r24
		i2cReceiveByteACK();
		*error_code=i2cWaitForComplete();
     daa:	0e 94 33 06 	call	0xc66	; 0xc66 <i2cWaitForComplete>
     dae:	88 83       	st	Y, r24
	}

	if (*error_code==0){	
     db0:	88 81       	ld	r24, Y
     db2:	88 23       	and	r24, r24
     db4:	19 f0       	breq	.+6      	; 0xdbc <bmp180ReadShort+0x108>
     db6:	ee 24       	eor	r14, r14
     db8:	ff 24       	eor	r15, r15
     dba:	07 c0       	rjmp	.+14     	; 0xdca <bmp180ReadShort+0x116>
// 
//----------------------------------------
uint8_t i2cGetReceivedByte(void)
{
	// retieve received data byte from i2c TWDR
	return (uint8_t)TWDR;
     dbc:	80 91 73 00 	lds	r24, 0x0073
		msb = i2cGetReceivedByte();	// Get MSB result
     dc0:	e8 2e       	mov	r14, r24
     dc2:	ff 24       	eor	r15, r15
		*error_code=i2cWaitForComplete();
     dc4:	0e 94 33 06 	call	0xc66	; 0xc66 <i2cWaitForComplete>
     dc8:	88 83       	st	Y, r24
	}

	//ACKM
	if (*error_code==0){	
     dca:	88 81       	ld	r24, Y
     dcc:	88 23       	and	r24, r24
     dce:	49 f4       	brne	.+18     	; 0xde2 <bmp180ReadShort+0x12e>
//----------------------------------------
uint8_t checki2cReturnCode(uint8_t expected_return_code){
	uint8_t error_code=0;
	uint8_t i=0;
	//while (error_code!=0 && i!=0 && i<3){
		if ((TWSR & 0xF8) != expected_return_code){
     dd0:	80 91 71 00 	lds	r24, 0x0071
     dd4:	88 7f       	andi	r24, 0xF8	; 248
     dd6:	80 35       	cpi	r24, 0x50	; 80
     dd8:	11 f0       	breq	.+4      	; 0xdde <bmp180ReadShort+0x12a>
     dda:	8a e0       	ldi	r24, 0x0A	; 10
     ddc:	01 c0       	rjmp	.+2      	; 0xde0 <bmp180ReadShort+0x12c>
     dde:	80 e0       	ldi	r24, 0x00	; 0
		*error_code=checki2cReturnCode(TW_MR_DATA_ACK);
     de0:	88 83       	st	Y, r24
	}

	//Get LSB from Slave
	if (*error_code==0){
     de2:	88 81       	ld	r24, Y
     de4:	88 23       	and	r24, r24
     de6:	31 f4       	brne	.+12     	; 0xdf4 <bmp180ReadShort+0x140>
// 
//----------------------------------------
void i2cReceiveByteNACK(void)
{

	TWCR = (1<<TWINT)|(1<<TWEN);
     de8:	84 e8       	ldi	r24, 0x84	; 132
     dea:	80 93 74 00 	sts	0x0074, r24
		i2cReceiveByteNACK();
		*error_code=i2cWaitForComplete();
     dee:	0e 94 33 06 	call	0xc66	; 0xc66 <i2cWaitForComplete>
     df2:	88 83       	st	Y, r24
	}

	if (*error_code==0){	
     df4:	88 81       	ld	r24, Y
     df6:	88 23       	and	r24, r24
     df8:	19 f0       	breq	.+6      	; 0xe00 <bmp180ReadShort+0x14c>
     dfa:	00 e0       	ldi	r16, 0x00	; 0
     dfc:	10 e0       	ldi	r17, 0x00	; 0
     dfe:	07 c0       	rjmp	.+14     	; 0xe0e <bmp180ReadShort+0x15a>
// 
//----------------------------------------
uint8_t i2cGetReceivedByte(void)
{
	// retieve received data byte from i2c TWDR
	return (uint8_t)TWDR;
     e00:	80 91 73 00 	lds	r24, 0x0073
		lsb = i2cGetReceivedByte();	// Get LSB result
     e04:	08 2f       	mov	r16, r24
     e06:	10 e0       	ldi	r17, 0x00	; 0
		*error_code=i2cWaitForComplete();
     e08:	0e 94 33 06 	call	0xc66	; 0xc66 <i2cWaitForComplete>
     e0c:	88 83       	st	Y, r24
	}

	//NACKM
	if (*error_code==0){	
     e0e:	88 81       	ld	r24, Y
     e10:	88 23       	and	r24, r24
     e12:	49 f4       	brne	.+18     	; 0xe26 <bmp180ReadShort+0x172>
//----------------------------------------
uint8_t checki2cReturnCode(uint8_t expected_return_code){
	uint8_t error_code=0;
	uint8_t i=0;
	//while (error_code!=0 && i!=0 && i<3){
		if ((TWSR & 0xF8) != expected_return_code){
     e14:	80 91 71 00 	lds	r24, 0x0071
     e18:	88 7f       	andi	r24, 0xF8	; 248
     e1a:	88 35       	cpi	r24, 0x58	; 88
     e1c:	11 f0       	breq	.+4      	; 0xe22 <bmp180ReadShort+0x16e>
     e1e:	8a e0       	ldi	r24, 0x0A	; 10
     e20:	01 c0       	rjmp	.+2      	; 0xe24 <bmp180ReadShort+0x170>
     e22:	80 e0       	ldi	r24, 0x00	; 0
		*error_code=checki2cReturnCode(TW_MR_DATA_NACK);
     e24:	88 83       	st	Y, r24
	}

	//Send Stop on the Bus
	if (*error_code==0){
     e26:	88 81       	ld	r24, Y
     e28:	88 23       	and	r24, r24
     e2a:	19 f4       	brne	.+6      	; 0xe32 <bmp180ReadShort+0x17e>
		*error_code=i2cSendStop();
     e2c:	0e 94 0b 06 	call	0xc16	; 0xc16 <i2cSendStop>
     e30:	88 83       	st	Y, r24
     e32:	3e 2d       	mov	r19, r14
     e34:	22 27       	eor	r18, r18
     e36:	20 0f       	add	r18, r16
     e38:	31 1f       	adc	r19, r17
	}

	data = (msb << 8) + lsb;
	return data;
}
     e3a:	c9 01       	movw	r24, r18
     e3c:	df 91       	pop	r29
     e3e:	cf 91       	pop	r28
     e40:	1f 91       	pop	r17
     e42:	0f 91       	pop	r16
     e44:	ff 90       	pop	r15
     e46:	ef 90       	pop	r14
     e48:	08 95       	ret

00000e4a <bmp180ReadLong>:
//----------------------------------------

uint32_t bmp180ReadLong(uint8_t address, uint8_t* error_code)
{
     e4a:	6f 92       	push	r6
     e4c:	7f 92       	push	r7
     e4e:	8f 92       	push	r8
     e50:	9f 92       	push	r9
     e52:	af 92       	push	r10
     e54:	bf 92       	push	r11
     e56:	cf 92       	push	r12
     e58:	df 92       	push	r13
     e5a:	ef 92       	push	r14
     e5c:	ff 92       	push	r15
     e5e:	0f 93       	push	r16
     e60:	1f 93       	push	r17
     e62:	cf 93       	push	r28
     e64:	df 93       	push	r29
     e66:	18 2f       	mov	r17, r24
     e68:	eb 01       	movw	r28, r22
// 
//----------------------------------------
void i2cSendStart(void)
{
	// send start condition
	TWCR = (1<<TWINT)|(1<<TWSTA)|(1<<TWEN);
     e6a:	84 ea       	ldi	r24, 0xA4	; 164
     e6c:	80 93 74 00 	sts	0x0074, r24
	uint32_t lsb=0;
	uint32_t xlsb=0;
	uint32_t data;
	//Send Start Condition
	i2cSendStart();	
	*error_code=i2cWaitForComplete();
     e70:	0e 94 33 06 	call	0xc66	; 0xc66 <i2cWaitForComplete>
     e74:	88 83       	st	Y, r24
	if (*error_code==0){
     e76:	88 23       	and	r24, r24
     e78:	49 f4       	brne	.+18     	; 0xe8c <bmp180ReadLong+0x42>
//----------------------------------------
uint8_t checki2cReturnCode(uint8_t expected_return_code){
	uint8_t error_code=0;
	uint8_t i=0;
	//while (error_code!=0 && i!=0 && i<3){
		if ((TWSR & 0xF8) != expected_return_code){
     e7a:	80 91 71 00 	lds	r24, 0x0071
     e7e:	88 7f       	andi	r24, 0xF8	; 248
     e80:	88 30       	cpi	r24, 0x08	; 8
     e82:	11 f0       	breq	.+4      	; 0xe88 <bmp180ReadLong+0x3e>
     e84:	8a e0       	ldi	r24, 0x0A	; 10
     e86:	01 c0       	rjmp	.+2      	; 0xe8a <bmp180ReadLong+0x40>
     e88:	80 e0       	ldi	r24, 0x00	; 0
		*error_code=checki2cReturnCode(TW_START);
     e8a:	88 83       	st	Y, r24
	}

	//Tell Salve go in receive mode
	if (*error_code==0){	
     e8c:	88 81       	ld	r24, Y
     e8e:	88 23       	and	r24, r24
     e90:	49 f4       	brne	.+18     	; 0xea4 <bmp180ReadLong+0x5a>
// 
//----------------------------------------
void i2cSendByte(unsigned char data)
{
	// save data to the TWDR
	TWDR = data;
     e92:	8e ee       	ldi	r24, 0xEE	; 238
     e94:	80 93 73 00 	sts	0x0073, r24
	// begin send
	TWCR = (1<<TWINT)|(1<<TWEN);
     e98:	84 e8       	ldi	r24, 0x84	; 132
     e9a:	80 93 74 00 	sts	0x0074, r24
		i2cSendByte(BMP180_W);	// write 0xEE
		*error_code=i2cWaitForComplete();
     e9e:	0e 94 33 06 	call	0xc66	; 0xc66 <i2cWaitForComplete>
     ea2:	88 83       	st	Y, r24
	}

	//ACKS
	if (*error_code==0){	
     ea4:	88 81       	ld	r24, Y
     ea6:	88 23       	and	r24, r24
     ea8:	49 f4       	brne	.+18     	; 0xebc <bmp180ReadLong+0x72>
//----------------------------------------
uint8_t checki2cReturnCode(uint8_t expected_return_code){
	uint8_t error_code=0;
	uint8_t i=0;
	//while (error_code!=0 && i!=0 && i<3){
		if ((TWSR & 0xF8) != expected_return_code){
     eaa:	80 91 71 00 	lds	r24, 0x0071
     eae:	88 7f       	andi	r24, 0xF8	; 248
     eb0:	88 31       	cpi	r24, 0x18	; 24
     eb2:	11 f0       	breq	.+4      	; 0xeb8 <bmp180ReadLong+0x6e>
     eb4:	8a e0       	ldi	r24, 0x0A	; 10
     eb6:	01 c0       	rjmp	.+2      	; 0xeba <bmp180ReadLong+0x70>
     eb8:	80 e0       	ldi	r24, 0x00	; 0
		*error_code=checki2cReturnCode(TW_MT_SLA_ACK);
     eba:	88 83       	st	Y, r24
	}

	//Send read address to Salve
	if (*error_code==0){	
     ebc:	88 81       	ld	r24, Y
     ebe:	88 23       	and	r24, r24
     ec0:	41 f4       	brne	.+16     	; 0xed2 <bmp180ReadLong+0x88>
// 
//----------------------------------------
void i2cSendByte(unsigned char data)
{
	// save data to the TWDR
	TWDR = data;
     ec2:	10 93 73 00 	sts	0x0073, r17
	// begin send
	TWCR = (1<<TWINT)|(1<<TWEN);
     ec6:	84 e8       	ldi	r24, 0x84	; 132
     ec8:	80 93 74 00 	sts	0x0074, r24
		i2cSendByte(address);	// write register address
		*error_code=i2cWaitForComplete();
     ecc:	0e 94 33 06 	call	0xc66	; 0xc66 <i2cWaitForComplete>
     ed0:	88 83       	st	Y, r24
	}

	//ACKS
	if (*error_code==0){	
     ed2:	88 81       	ld	r24, Y
     ed4:	88 23       	and	r24, r24
     ed6:	49 f4       	brne	.+18     	; 0xeea <bmp180ReadLong+0xa0>
//----------------------------------------
uint8_t checki2cReturnCode(uint8_t expected_return_code){
	uint8_t error_code=0;
	uint8_t i=0;
	//while (error_code!=0 && i!=0 && i<3){
		if ((TWSR & 0xF8) != expected_return_code){
     ed8:	80 91 71 00 	lds	r24, 0x0071
     edc:	88 7f       	andi	r24, 0xF8	; 248
     ede:	88 32       	cpi	r24, 0x28	; 40
     ee0:	11 f0       	breq	.+4      	; 0xee6 <bmp180ReadLong+0x9c>
     ee2:	8a e0       	ldi	r24, 0x0A	; 10
     ee4:	01 c0       	rjmp	.+2      	; 0xee8 <bmp180ReadLong+0x9e>
     ee6:	80 e0       	ldi	r24, 0x00	; 0
		*error_code=checki2cReturnCode(TW_MT_DATA_ACK);
     ee8:	88 83       	st	Y, r24
	}

	//Send Restart to Slave
	if (*error_code==0){	
     eea:	88 81       	ld	r24, Y
     eec:	88 23       	and	r24, r24
     eee:	31 f4       	brne	.+12     	; 0xefc <bmp180ReadLong+0xb2>
// 
//----------------------------------------
void i2cSendStart(void)
{
	// send start condition
	TWCR = (1<<TWINT)|(1<<TWSTA)|(1<<TWEN);
     ef0:	84 ea       	ldi	r24, 0xA4	; 164
     ef2:	80 93 74 00 	sts	0x0074, r24
		i2cSendStart();
		*error_code=i2cWaitForComplete();
     ef6:	0e 94 33 06 	call	0xc66	; 0xc66 <i2cWaitForComplete>
     efa:	88 83       	st	Y, r24
	}
	if (*error_code==0){	
     efc:	88 81       	ld	r24, Y
     efe:	88 23       	and	r24, r24
     f00:	49 f4       	brne	.+18     	; 0xf14 <bmp180ReadLong+0xca>
//----------------------------------------
uint8_t checki2cReturnCode(uint8_t expected_return_code){
	uint8_t error_code=0;
	uint8_t i=0;
	//while (error_code!=0 && i!=0 && i<3){
		if ((TWSR & 0xF8) != expected_return_code){
     f02:	80 91 71 00 	lds	r24, 0x0071
     f06:	88 7f       	andi	r24, 0xF8	; 248
     f08:	80 31       	cpi	r24, 0x10	; 16
     f0a:	11 f0       	breq	.+4      	; 0xf10 <bmp180ReadLong+0xc6>
     f0c:	8a e0       	ldi	r24, 0x0A	; 10
     f0e:	01 c0       	rjmp	.+2      	; 0xf12 <bmp180ReadLong+0xc8>
     f10:	80 e0       	ldi	r24, 0x00	; 0
		*error_code=checki2cReturnCode(TW_REP_START);
     f12:	88 83       	st	Y, r24
	}

	//Tell Salve go in send mode
	if (*error_code==0){	
     f14:	88 81       	ld	r24, Y
     f16:	88 23       	and	r24, r24
     f18:	49 f4       	brne	.+18     	; 0xf2c <bmp180ReadLong+0xe2>
// 
//----------------------------------------
void i2cSendByte(unsigned char data)
{
	// save data to the TWDR
	TWDR = data;
     f1a:	8f ee       	ldi	r24, 0xEF	; 239
     f1c:	80 93 73 00 	sts	0x0073, r24
	// begin send
	TWCR = (1<<TWINT)|(1<<TWEN);
     f20:	84 e8       	ldi	r24, 0x84	; 132
     f22:	80 93 74 00 	sts	0x0074, r24
		i2cSendByte(BMP180_R);	// read 0xEF
		*error_code=i2cWaitForComplete();
     f26:	0e 94 33 06 	call	0xc66	; 0xc66 <i2cWaitForComplete>
     f2a:	88 83       	st	Y, r24
	}

	//ACKS
	if (*error_code==0){	
     f2c:	88 81       	ld	r24, Y
     f2e:	88 23       	and	r24, r24
     f30:	49 f4       	brne	.+18     	; 0xf44 <bmp180ReadLong+0xfa>
//----------------------------------------
uint8_t checki2cReturnCode(uint8_t expected_return_code){
	uint8_t error_code=0;
	uint8_t i=0;
	//while (error_code!=0 && i!=0 && i<3){
		if ((TWSR & 0xF8) != expected_return_code){
     f32:	80 91 71 00 	lds	r24, 0x0071
     f36:	88 7f       	andi	r24, 0xF8	; 248
     f38:	80 34       	cpi	r24, 0x40	; 64
     f3a:	11 f0       	breq	.+4      	; 0xf40 <bmp180ReadLong+0xf6>
     f3c:	8a e0       	ldi	r24, 0x0A	; 10
     f3e:	01 c0       	rjmp	.+2      	; 0xf42 <bmp180ReadLong+0xf8>
     f40:	80 e0       	ldi	r24, 0x00	; 0
		*error_code=checki2cReturnCode(TW_MR_SLA_ACK);
     f42:	88 83       	st	Y, r24
	}

	//Get MSB from Salve
	if (*error_code==0){	
     f44:	88 81       	ld	r24, Y
     f46:	88 23       	and	r24, r24
     f48:	31 f4       	brne	.+12     	; 0xf56 <bmp180ReadLong+0x10c>
// 
//----------------------------------------
void i2cReceiveByteACK(void)
{

	TWCR = (1<<TWINT)|(1<<TWEN)|(1<<TWEA);
     f4a:	84 ec       	ldi	r24, 0xC4	; 196
     f4c:	80 93 74 00 	sts	0x0074, r24
		i2cReceiveByteACK();
		*error_code=i2cWaitForComplete();
     f50:	0e 94 33 06 	call	0xc66	; 0xc66 <i2cWaitForComplete>
     f54:	88 83       	st	Y, r24
	}

	if (*error_code==0){	
     f56:	88 81       	ld	r24, Y
     f58:	88 23       	and	r24, r24
     f5a:	21 f0       	breq	.+8      	; 0xf64 <bmp180ReadLong+0x11a>
     f5c:	66 24       	eor	r6, r6
     f5e:	77 24       	eor	r7, r7
     f60:	43 01       	movw	r8, r6
     f62:	09 c0       	rjmp	.+18     	; 0xf76 <bmp180ReadLong+0x12c>
// 
//----------------------------------------
uint8_t i2cGetReceivedByte(void)
{
	// retieve received data byte from i2c TWDR
	return (uint8_t)TWDR;
     f64:	80 91 73 00 	lds	r24, 0x0073
		msb = i2cGetReceivedByte();	// Get MSB result
     f68:	68 2e       	mov	r6, r24
     f6a:	77 24       	eor	r7, r7
     f6c:	88 24       	eor	r8, r8
     f6e:	99 24       	eor	r9, r9
		*error_code=i2cWaitForComplete();
     f70:	0e 94 33 06 	call	0xc66	; 0xc66 <i2cWaitForComplete>
     f74:	88 83       	st	Y, r24
	}

	//ACKM
	if (*error_code==0){	
     f76:	88 81       	ld	r24, Y
     f78:	88 23       	and	r24, r24
     f7a:	49 f4       	brne	.+18     	; 0xf8e <bmp180ReadLong+0x144>
//----------------------------------------
uint8_t checki2cReturnCode(uint8_t expected_return_code){
	uint8_t error_code=0;
	uint8_t i=0;
	//while (error_code!=0 && i!=0 && i<3){
		if ((TWSR & 0xF8) != expected_return_code){
     f7c:	80 91 71 00 	lds	r24, 0x0071
     f80:	88 7f       	andi	r24, 0xF8	; 248
     f82:	80 35       	cpi	r24, 0x50	; 80
     f84:	11 f0       	breq	.+4      	; 0xf8a <bmp180ReadLong+0x140>
     f86:	8a e0       	ldi	r24, 0x0A	; 10
     f88:	01 c0       	rjmp	.+2      	; 0xf8c <bmp180ReadLong+0x142>
     f8a:	80 e0       	ldi	r24, 0x00	; 0
		*error_code=checki2cReturnCode(TW_MR_DATA_ACK);
     f8c:	88 83       	st	Y, r24
	}

	//Get LSB from Slave
	if (*error_code==0){
     f8e:	88 81       	ld	r24, Y
     f90:	88 23       	and	r24, r24
     f92:	31 f4       	brne	.+12     	; 0xfa0 <bmp180ReadLong+0x156>
// 
//----------------------------------------
void i2cReceiveByteNACK(void)
{

	TWCR = (1<<TWINT)|(1<<TWEN);
     f94:	84 e8       	ldi	r24, 0x84	; 132
     f96:	80 93 74 00 	sts	0x0074, r24
		i2cReceiveByteNACK();
		*error_code=i2cWaitForComplete();
     f9a:	0e 94 33 06 	call	0xc66	; 0xc66 <i2cWaitForComplete>
     f9e:	88 83       	st	Y, r24
	}

	if (*error_code==0){	
     fa0:	88 81       	ld	r24, Y
     fa2:	88 23       	and	r24, r24
     fa4:	21 f0       	breq	.+8      	; 0xfae <bmp180ReadLong+0x164>
     fa6:	aa 24       	eor	r10, r10
     fa8:	bb 24       	eor	r11, r11
     faa:	65 01       	movw	r12, r10
     fac:	09 c0       	rjmp	.+18     	; 0xfc0 <bmp180ReadLong+0x176>
// 
//----------------------------------------
uint8_t i2cGetReceivedByte(void)
{
	// retieve received data byte from i2c TWDR
	return (uint8_t)TWDR;
     fae:	80 91 73 00 	lds	r24, 0x0073
		lsb = i2cGetReceivedByte();	// Get LSB result
     fb2:	a8 2e       	mov	r10, r24
     fb4:	bb 24       	eor	r11, r11
     fb6:	cc 24       	eor	r12, r12
     fb8:	dd 24       	eor	r13, r13
		*error_code=i2cWaitForComplete();
     fba:	0e 94 33 06 	call	0xc66	; 0xc66 <i2cWaitForComplete>
     fbe:	88 83       	st	Y, r24
	}

	//Get XLSB from Slave
	if (*error_code==0){
     fc0:	88 81       	ld	r24, Y
     fc2:	88 23       	and	r24, r24
     fc4:	31 f4       	brne	.+12     	; 0xfd2 <bmp180ReadLong+0x188>
// 
//----------------------------------------
void i2cReceiveByteNACK(void)
{

	TWCR = (1<<TWINT)|(1<<TWEN);
     fc6:	84 e8       	ldi	r24, 0x84	; 132
     fc8:	80 93 74 00 	sts	0x0074, r24
		i2cReceiveByteNACK();
		*error_code=i2cWaitForComplete();
     fcc:	0e 94 33 06 	call	0xc66	; 0xc66 <i2cWaitForComplete>
     fd0:	88 83       	st	Y, r24
	}

	if (*error_code==0){	
     fd2:	88 81       	ld	r24, Y
     fd4:	88 23       	and	r24, r24
     fd6:	21 f0       	breq	.+8      	; 0xfe0 <bmp180ReadLong+0x196>
     fd8:	ee 24       	eor	r14, r14
     fda:	ff 24       	eor	r15, r15
     fdc:	87 01       	movw	r16, r14
     fde:	09 c0       	rjmp	.+18     	; 0xff2 <bmp180ReadLong+0x1a8>
// 
//----------------------------------------
uint8_t i2cGetReceivedByte(void)
{
	// retieve received data byte from i2c TWDR
	return (uint8_t)TWDR;
     fe0:	80 91 73 00 	lds	r24, 0x0073
		xlsb = i2cGetReceivedByte();	// Get XLSB result
     fe4:	e8 2e       	mov	r14, r24
     fe6:	ff 24       	eor	r15, r15
     fe8:	00 e0       	ldi	r16, 0x00	; 0
     fea:	10 e0       	ldi	r17, 0x00	; 0
		*error_code=i2cWaitForComplete();
     fec:	0e 94 33 06 	call	0xc66	; 0xc66 <i2cWaitForComplete>
     ff0:	88 83       	st	Y, r24
	}

	//NACKM
	if (*error_code==0){	
     ff2:	88 81       	ld	r24, Y
     ff4:	88 23       	and	r24, r24
     ff6:	49 f4       	brne	.+18     	; 0x100a <bmp180ReadLong+0x1c0>
//----------------------------------------
uint8_t checki2cReturnCode(uint8_t expected_return_code){
	uint8_t error_code=0;
	uint8_t i=0;
	//while (error_code!=0 && i!=0 && i<3){
		if ((TWSR & 0xF8) != expected_return_code){
     ff8:	80 91 71 00 	lds	r24, 0x0071
     ffc:	88 7f       	andi	r24, 0xF8	; 248
     ffe:	88 35       	cpi	r24, 0x58	; 88
    1000:	11 f0       	breq	.+4      	; 0x1006 <bmp180ReadLong+0x1bc>
    1002:	8a e0       	ldi	r24, 0x0A	; 10
    1004:	01 c0       	rjmp	.+2      	; 0x1008 <bmp180ReadLong+0x1be>
    1006:	80 e0       	ldi	r24, 0x00	; 0
		*error_code=checki2cReturnCode(TW_MR_DATA_NACK);
    1008:	88 83       	st	Y, r24
	}

	//Send Stop on the Bus
	if (*error_code==0){
    100a:	88 81       	ld	r24, Y
    100c:	88 23       	and	r24, r24
    100e:	19 f4       	brne	.+6      	; 0x1016 <bmp180ReadLong+0x1cc>
		*error_code=i2cSendStop();
    1010:	0e 94 0b 06 	call	0xc16	; 0xc16 <i2cSendStop>
    1014:	88 83       	st	Y, r24
    1016:	5c 2d       	mov	r21, r12
    1018:	4b 2d       	mov	r20, r11
    101a:	3a 2d       	mov	r19, r10
    101c:	22 27       	eor	r18, r18
    101e:	d3 01       	movw	r26, r6
    1020:	99 27       	eor	r25, r25
    1022:	88 27       	eor	r24, r24
    1024:	28 0f       	add	r18, r24
    1026:	39 1f       	adc	r19, r25
    1028:	4a 1f       	adc	r20, r26
    102a:	5b 1f       	adc	r21, r27
    102c:	2e 0d       	add	r18, r14
    102e:	3f 1d       	adc	r19, r15
    1030:	40 1f       	adc	r20, r16
    1032:	51 1f       	adc	r21, r17
    1034:	95 e0       	ldi	r25, 0x05	; 5
    1036:	56 95       	lsr	r21
    1038:	47 95       	ror	r20
    103a:	37 95       	ror	r19
    103c:	27 95       	ror	r18
    103e:	9a 95       	dec	r25
    1040:	d1 f7       	brne	.-12     	; 0x1036 <bmp180ReadLong+0x1ec>
	}

	data = ((msb << 16) + (lsb << 8) + xlsb) >> (8-OSS);
	return data;
}
    1042:	b9 01       	movw	r22, r18
    1044:	ca 01       	movw	r24, r20
    1046:	df 91       	pop	r29
    1048:	cf 91       	pop	r28
    104a:	1f 91       	pop	r17
    104c:	0f 91       	pop	r16
    104e:	ff 90       	pop	r15
    1050:	ef 90       	pop	r14
    1052:	df 90       	pop	r13
    1054:	cf 90       	pop	r12
    1056:	bf 90       	pop	r11
    1058:	af 90       	pop	r10
    105a:	9f 90       	pop	r9
    105c:	8f 90       	pop	r8
    105e:	7f 90       	pop	r7
    1060:	6f 90       	pop	r6
    1062:	08 95       	ret

00001064 <bmp180ReadTemp>:
//----------------------------------------

int32_t bmp180ReadTemp(uint8_t* error_code)
{
    1064:	cf 93       	push	r28
    1066:	df 93       	push	r29
    1068:	ec 01       	movw	r28, r24
// 
//----------------------------------------
void i2cSendStart(void)
{
	// send start condition
	TWCR = (1<<TWINT)|(1<<TWSTA)|(1<<TWEN);
    106a:	84 ea       	ldi	r24, 0xA4	; 164
    106c:	80 93 74 00 	sts	0x0074, r24
	int32_t temperature = 0;
	//Send Start Condition
	i2cSendStart();	
	*error_code=i2cWaitForComplete();
    1070:	0e 94 33 06 	call	0xc66	; 0xc66 <i2cWaitForComplete>
    1074:	88 83       	st	Y, r24

	if (*error_code==0){
    1076:	88 23       	and	r24, r24
    1078:	49 f4       	brne	.+18     	; 0x108c <bmp180ReadTemp+0x28>
//----------------------------------------
uint8_t checki2cReturnCode(uint8_t expected_return_code){
	uint8_t error_code=0;
	uint8_t i=0;
	//while (error_code!=0 && i!=0 && i<3){
		if ((TWSR & 0xF8) != expected_return_code){
    107a:	80 91 71 00 	lds	r24, 0x0071
    107e:	88 7f       	andi	r24, 0xF8	; 248
    1080:	88 30       	cpi	r24, 0x08	; 8
    1082:	11 f0       	breq	.+4      	; 0x1088 <bmp180ReadTemp+0x24>
    1084:	8a e0       	ldi	r24, 0x0A	; 10
    1086:	01 c0       	rjmp	.+2      	; 0x108a <bmp180ReadTemp+0x26>
    1088:	80 e0       	ldi	r24, 0x00	; 0
		*error_code=checki2cReturnCode(TW_START);
    108a:	88 83       	st	Y, r24
	}

	//Tell Salve go in receive mode
	if (*error_code==0){	
    108c:	88 81       	ld	r24, Y
    108e:	88 23       	and	r24, r24
    1090:	49 f4       	brne	.+18     	; 0x10a4 <bmp180ReadTemp+0x40>
// 
//----------------------------------------
void i2cSendByte(unsigned char data)
{
	// save data to the TWDR
	TWDR = data;
    1092:	8e ee       	ldi	r24, 0xEE	; 238
    1094:	80 93 73 00 	sts	0x0073, r24
	// begin send
	TWCR = (1<<TWINT)|(1<<TWEN);
    1098:	84 e8       	ldi	r24, 0x84	; 132
    109a:	80 93 74 00 	sts	0x0074, r24
		i2cSendByte(BMP180_W);	// write 0xEE
		*error_code=i2cWaitForComplete();
    109e:	0e 94 33 06 	call	0xc66	; 0xc66 <i2cWaitForComplete>
    10a2:	88 83       	st	Y, r24
	}
	//ACKS
	if (*error_code==0){	
    10a4:	88 81       	ld	r24, Y
    10a6:	88 23       	and	r24, r24
    10a8:	49 f4       	brne	.+18     	; 0x10bc <bmp180ReadTemp+0x58>
//----------------------------------------
uint8_t checki2cReturnCode(uint8_t expected_return_code){
	uint8_t error_code=0;
	uint8_t i=0;
	//while (error_code!=0 && i!=0 && i<3){
		if ((TWSR & 0xF8) != expected_return_code){
    10aa:	80 91 71 00 	lds	r24, 0x0071
    10ae:	88 7f       	andi	r24, 0xF8	; 248
    10b0:	88 31       	cpi	r24, 0x18	; 24
    10b2:	11 f0       	breq	.+4      	; 0x10b8 <bmp180ReadTemp+0x54>
    10b4:	8a e0       	ldi	r24, 0x0A	; 10
    10b6:	01 c0       	rjmp	.+2      	; 0x10ba <bmp180ReadTemp+0x56>
    10b8:	80 e0       	ldi	r24, 0x00	; 0
		*error_code=checki2cReturnCode(TW_MT_SLA_ACK);
    10ba:	88 83       	st	Y, r24
	}

	//Write control register address
	if (*error_code==0){	
    10bc:	88 81       	ld	r24, Y
    10be:	88 23       	and	r24, r24
    10c0:	49 f4       	brne	.+18     	; 0x10d4 <bmp180ReadTemp+0x70>
// 
//----------------------------------------
void i2cSendByte(unsigned char data)
{
	// save data to the TWDR
	TWDR = data;
    10c2:	84 ef       	ldi	r24, 0xF4	; 244
    10c4:	80 93 73 00 	sts	0x0073, r24
	// begin send
	TWCR = (1<<TWINT)|(1<<TWEN);
    10c8:	84 e8       	ldi	r24, 0x84	; 132
    10ca:	80 93 74 00 	sts	0x0074, r24
		i2cSendByte(0xF4);	// write 0xF4
		*error_code=i2cWaitForComplete();
    10ce:	0e 94 33 06 	call	0xc66	; 0xc66 <i2cWaitForComplete>
    10d2:	88 83       	st	Y, r24
	}
	//ACKS
	if (*error_code==0){	
    10d4:	88 81       	ld	r24, Y
    10d6:	88 23       	and	r24, r24
    10d8:	49 f4       	brne	.+18     	; 0x10ec <bmp180ReadTemp+0x88>
//----------------------------------------
uint8_t checki2cReturnCode(uint8_t expected_return_code){
	uint8_t error_code=0;
	uint8_t i=0;
	//while (error_code!=0 && i!=0 && i<3){
		if ((TWSR & 0xF8) != expected_return_code){
    10da:	80 91 71 00 	lds	r24, 0x0071
    10de:	88 7f       	andi	r24, 0xF8	; 248
    10e0:	88 32       	cpi	r24, 0x28	; 40
    10e2:	11 f0       	breq	.+4      	; 0x10e8 <bmp180ReadTemp+0x84>
    10e4:	8a e0       	ldi	r24, 0x0A	; 10
    10e6:	01 c0       	rjmp	.+2      	; 0x10ea <bmp180ReadTemp+0x86>
    10e8:	80 e0       	ldi	r24, 0x00	; 0
		*error_code=checki2cReturnCode(TW_MT_DATA_ACK);
    10ea:	88 83       	st	Y, r24
	}

	//Write control register value
	if (*error_code==0){	
    10ec:	88 81       	ld	r24, Y
    10ee:	88 23       	and	r24, r24
    10f0:	49 f4       	brne	.+18     	; 0x1104 <__stack+0x5>
// 
//----------------------------------------
void i2cSendByte(unsigned char data)
{
	// save data to the TWDR
	TWDR = data;
    10f2:	8e e2       	ldi	r24, 0x2E	; 46
    10f4:	80 93 73 00 	sts	0x0073, r24
	// begin send
	TWCR = (1<<TWINT)|(1<<TWEN);
    10f8:	84 e8       	ldi	r24, 0x84	; 132
    10fa:	80 93 74 00 	sts	0x0074, r24
		i2cSendByte(0x2E);	// write 0x2E
		*error_code=i2cWaitForComplete();
    10fe:	0e 94 33 06 	call	0xc66	; 0xc66 <i2cWaitForComplete>
    1102:	88 83       	st	Y, r24
	}
	//ACKS
	if (*error_code==0){	
    1104:	88 81       	ld	r24, Y
    1106:	88 23       	and	r24, r24
    1108:	49 f4       	brne	.+18     	; 0x111c <__stack+0x1d>
//----------------------------------------
uint8_t checki2cReturnCode(uint8_t expected_return_code){
	uint8_t error_code=0;
	uint8_t i=0;
	//while (error_code!=0 && i!=0 && i<3){
		if ((TWSR & 0xF8) != expected_return_code){
    110a:	80 91 71 00 	lds	r24, 0x0071
    110e:	88 7f       	andi	r24, 0xF8	; 248
    1110:	88 32       	cpi	r24, 0x28	; 40
    1112:	11 f0       	breq	.+4      	; 0x1118 <__stack+0x19>
    1114:	8a e0       	ldi	r24, 0x0A	; 10
    1116:	01 c0       	rjmp	.+2      	; 0x111a <__stack+0x1b>
    1118:	80 e0       	ldi	r24, 0x00	; 0
		*error_code=checki2cReturnCode(TW_MT_DATA_ACK);
    111a:	88 83       	st	Y, r24
	}

	//Send Stop on the Bus
	if (*error_code==0){
    111c:	88 81       	ld	r24, Y
    111e:	88 23       	and	r24, r24
    1120:	19 f4       	brne	.+6      	; 0x1128 <__stack+0x29>
		*error_code=i2cSendStop();
    1122:	0e 94 0b 06 	call	0xc16	; 0xc16 <i2cSendStop>
    1126:	88 83       	st	Y, r24
    milliseconds can be achieved.
 */
void
_delay_loop_2(uint16_t __count)
{
	__asm__ volatile (
    1128:	80 e2       	ldi	r24, 0x20	; 32
    112a:	9e e4       	ldi	r25, 0x4E	; 78
    112c:	01 97       	sbiw	r24, 0x01	; 1
    112e:	f1 f7       	brne	.-4      	; 0x112c <__stack+0x2d>
	}

	_delay_ms(5);	// min time is 4.5ms
	
	if (*error_code==0){
    1130:	88 81       	ld	r24, Y
    1132:	88 23       	and	r24, r24
    1134:	29 f0       	breq	.+10     	; 0x1140 <__stack+0x41>
    1136:	20 e0       	ldi	r18, 0x00	; 0
    1138:	30 e0       	ldi	r19, 0x00	; 0
    113a:	40 e0       	ldi	r20, 0x00	; 0
    113c:	50 e0       	ldi	r21, 0x00	; 0
    113e:	07 c0       	rjmp	.+14     	; 0x114e <__stack+0x4f>
		temperature = bmp180ReadShort(0xF6,error_code);
    1140:	86 ef       	ldi	r24, 0xF6	; 246
    1142:	be 01       	movw	r22, r28
    1144:	0e 94 5a 06 	call	0xcb4	; 0xcb4 <bmp180ReadShort>
    1148:	9c 01       	movw	r18, r24
    114a:	40 e0       	ldi	r20, 0x00	; 0
    114c:	50 e0       	ldi	r21, 0x00	; 0
	}	
	return temperature;
}
    114e:	b9 01       	movw	r22, r18
    1150:	ca 01       	movw	r24, r20
    1152:	df 91       	pop	r29
    1154:	cf 91       	pop	r28
    1156:	08 95       	ret

00001158 <bmp180ReadPressure>:
//----------------------------------------

int32_t bmp180ReadPressure(uint8_t* error_code)
{
    1158:	cf 93       	push	r28
    115a:	df 93       	push	r29
    115c:	ec 01       	movw	r28, r24
// 
//----------------------------------------
void i2cSendStart(void)
{
	// send start condition
	TWCR = (1<<TWINT)|(1<<TWSTA)|(1<<TWEN);
    115e:	84 ea       	ldi	r24, 0xA4	; 164
    1160:	80 93 74 00 	sts	0x0074, r24
	int32_t pressure = 0;
	//Send Start Condition
	i2cSendStart();	
	*error_code=i2cWaitForComplete();
    1164:	0e 94 33 06 	call	0xc66	; 0xc66 <i2cWaitForComplete>
    1168:	98 2f       	mov	r25, r24
    116a:	88 83       	st	Y, r24
	if (error_code==0){
    116c:	20 97       	sbiw	r28, 0x00	; 0
    116e:	51 f4       	brne	.+20     	; 0x1184 <bmp180ReadPressure+0x2c>
//----------------------------------------
uint8_t checki2cReturnCode(uint8_t expected_return_code){
	uint8_t error_code=0;
	uint8_t i=0;
	//while (error_code!=0 && i!=0 && i<3){
		if ((TWSR & 0xF8) != expected_return_code){
    1170:	80 91 71 00 	lds	r24, 0x0071
    1174:	88 7f       	andi	r24, 0xF8	; 248
    1176:	88 30       	cpi	r24, 0x08	; 8
    1178:	11 f0       	breq	.+4      	; 0x117e <bmp180ReadPressure+0x26>
    117a:	8a e0       	ldi	r24, 0x0A	; 10
    117c:	01 c0       	rjmp	.+2      	; 0x1180 <bmp180ReadPressure+0x28>
    117e:	80 e0       	ldi	r24, 0x00	; 0
		*error_code=checki2cReturnCode(TW_START);
    1180:	80 93 00 00 	sts	0x0000, r24
	}

	//Tell Salve go in receive mode
	if (*error_code==0){	
    1184:	99 23       	and	r25, r25
    1186:	49 f4       	brne	.+18     	; 0x119a <bmp180ReadPressure+0x42>
// 
//----------------------------------------
void i2cSendByte(unsigned char data)
{
	// save data to the TWDR
	TWDR = data;
    1188:	8e ee       	ldi	r24, 0xEE	; 238
    118a:	80 93 73 00 	sts	0x0073, r24
	// begin send
	TWCR = (1<<TWINT)|(1<<TWEN);
    118e:	84 e8       	ldi	r24, 0x84	; 132
    1190:	80 93 74 00 	sts	0x0074, r24
		i2cSendByte(BMP180_W);	// write 0xEE
		*error_code=i2cWaitForComplete();
    1194:	0e 94 33 06 	call	0xc66	; 0xc66 <i2cWaitForComplete>
    1198:	88 83       	st	Y, r24
	}
	//ACKS
	if (*error_code==0){	
    119a:	88 81       	ld	r24, Y
    119c:	88 23       	and	r24, r24
    119e:	49 f4       	brne	.+18     	; 0x11b2 <bmp180ReadPressure+0x5a>
//----------------------------------------
uint8_t checki2cReturnCode(uint8_t expected_return_code){
	uint8_t error_code=0;
	uint8_t i=0;
	//while (error_code!=0 && i!=0 && i<3){
		if ((TWSR & 0xF8) != expected_return_code){
    11a0:	80 91 71 00 	lds	r24, 0x0071
    11a4:	88 7f       	andi	r24, 0xF8	; 248
    11a6:	88 31       	cpi	r24, 0x18	; 24
    11a8:	11 f0       	breq	.+4      	; 0x11ae <bmp180ReadPressure+0x56>
    11aa:	8a e0       	ldi	r24, 0x0A	; 10
    11ac:	01 c0       	rjmp	.+2      	; 0x11b0 <bmp180ReadPressure+0x58>
    11ae:	80 e0       	ldi	r24, 0x00	; 0
		*error_code=checki2cReturnCode(TW_MT_SLA_ACK);
    11b0:	88 83       	st	Y, r24
	}

	//Write control register address
	if (*error_code==0){	
    11b2:	88 81       	ld	r24, Y
    11b4:	88 23       	and	r24, r24
    11b6:	49 f4       	brne	.+18     	; 0x11ca <bmp180ReadPressure+0x72>
// 
//----------------------------------------
void i2cSendByte(unsigned char data)
{
	// save data to the TWDR
	TWDR = data;
    11b8:	84 ef       	ldi	r24, 0xF4	; 244
    11ba:	80 93 73 00 	sts	0x0073, r24
	// begin send
	TWCR = (1<<TWINT)|(1<<TWEN);
    11be:	84 e8       	ldi	r24, 0x84	; 132
    11c0:	80 93 74 00 	sts	0x0074, r24
		i2cSendByte(0xF4);	// write 0xF4
		*error_code=i2cWaitForComplete();
    11c4:	0e 94 33 06 	call	0xc66	; 0xc66 <i2cWaitForComplete>
    11c8:	88 83       	st	Y, r24
	}
	//ACKS
	if (*error_code==0){	
    11ca:	88 81       	ld	r24, Y
    11cc:	88 23       	and	r24, r24
    11ce:	49 f4       	brne	.+18     	; 0x11e2 <bmp180ReadPressure+0x8a>
//----------------------------------------
uint8_t checki2cReturnCode(uint8_t expected_return_code){
	uint8_t error_code=0;
	uint8_t i=0;
	//while (error_code!=0 && i!=0 && i<3){
		if ((TWSR & 0xF8) != expected_return_code){
    11d0:	80 91 71 00 	lds	r24, 0x0071
    11d4:	88 7f       	andi	r24, 0xF8	; 248
    11d6:	88 32       	cpi	r24, 0x28	; 40
    11d8:	11 f0       	breq	.+4      	; 0x11de <bmp180ReadPressure+0x86>
    11da:	8a e0       	ldi	r24, 0x0A	; 10
    11dc:	01 c0       	rjmp	.+2      	; 0x11e0 <bmp180ReadPressure+0x88>
    11de:	80 e0       	ldi	r24, 0x00	; 0
		*error_code=checki2cReturnCode(TW_MT_DATA_ACK);
    11e0:	88 83       	st	Y, r24
	}

	//Write control register value
	if (*error_code==0){	
    11e2:	88 81       	ld	r24, Y
    11e4:	88 23       	and	r24, r24
    11e6:	49 f4       	brne	.+18     	; 0x11fa <bmp180ReadPressure+0xa2>
// 
//----------------------------------------
void i2cSendByte(unsigned char data)
{
	// save data to the TWDR
	TWDR = data;
    11e8:	84 ef       	ldi	r24, 0xF4	; 244
    11ea:	80 93 73 00 	sts	0x0073, r24
	// begin send
	TWCR = (1<<TWINT)|(1<<TWEN);
    11ee:	84 e8       	ldi	r24, 0x84	; 132
    11f0:	80 93 74 00 	sts	0x0074, r24
		i2cSendByte(0x34+(OSS<<6));	// write 0x34+(OSS<<6)
		*error_code=i2cWaitForComplete();
    11f4:	0e 94 33 06 	call	0xc66	; 0xc66 <i2cWaitForComplete>
    11f8:	88 83       	st	Y, r24
	}
	//ACKS
	if (*error_code==0){	
    11fa:	88 81       	ld	r24, Y
    11fc:	88 23       	and	r24, r24
    11fe:	49 f4       	brne	.+18     	; 0x1212 <bmp180ReadPressure+0xba>
//----------------------------------------
uint8_t checki2cReturnCode(uint8_t expected_return_code){
	uint8_t error_code=0;
	uint8_t i=0;
	//while (error_code!=0 && i!=0 && i<3){
		if ((TWSR & 0xF8) != expected_return_code){
    1200:	80 91 71 00 	lds	r24, 0x0071
    1204:	88 7f       	andi	r24, 0xF8	; 248
    1206:	88 32       	cpi	r24, 0x28	; 40
    1208:	11 f0       	breq	.+4      	; 0x120e <bmp180ReadPressure+0xb6>
    120a:	8a e0       	ldi	r24, 0x0A	; 10
    120c:	01 c0       	rjmp	.+2      	; 0x1210 <bmp180ReadPressure+0xb8>
    120e:	80 e0       	ldi	r24, 0x00	; 0
		*error_code=checki2cReturnCode(TW_MT_DATA_ACK);
    1210:	88 83       	st	Y, r24
	}

	//Send Stop on the Bus
	if (*error_code==0){
    1212:	88 81       	ld	r24, Y
    1214:	88 23       	and	r24, r24
    1216:	19 f4       	brne	.+6      	; 0x121e <bmp180ReadPressure+0xc6>
		*error_code=i2cSendStop();
    1218:	0e 94 0b 06 	call	0xc16	; 0xc16 <i2cSendStop>
    121c:	88 83       	st	Y, r24
    121e:	8a ef       	ldi	r24, 0xFA	; 250
    1220:	90 e0       	ldi	r25, 0x00	; 0
    1222:	20 e9       	ldi	r18, 0x90	; 144
    1224:	31 e0       	ldi	r19, 0x01	; 1
    1226:	f9 01       	movw	r30, r18
    1228:	31 97       	sbiw	r30, 0x01	; 1
    122a:	f1 f7       	brne	.-4      	; 0x1228 <bmp180ReadPressure+0xd0>
		{
			// wait 1/10 ms
			_delay_loop_2(((F_CPU) / 4e3) / 10);
			__ticks --;
    122c:	01 97       	sbiw	r24, 0x01	; 1
		__ticks = 1;
	else if (__tmp > 65535)
	{
		//	__ticks = requested delay in 1/10 ms
		__ticks = (uint16_t) (__ms * 10.0);
		while(__ticks)
    122e:	d9 f7       	brne	.-10     	; 0x1226 <bmp180ReadPressure+0xce>
	}

	_delay_ms(25);

	if (*error_code==0){
    1230:	88 81       	ld	r24, Y
    1232:	88 23       	and	r24, r24
    1234:	29 f0       	breq	.+10     	; 0x1240 <bmp180ReadPressure+0xe8>
    1236:	20 e0       	ldi	r18, 0x00	; 0
    1238:	30 e0       	ldi	r19, 0x00	; 0
    123a:	40 e0       	ldi	r20, 0x00	; 0
    123c:	50 e0       	ldi	r21, 0x00	; 0
    123e:	09 c0       	rjmp	.+18     	; 0x1252 <bmp180ReadPressure+0xfa>
		pressure = bmp180ReadLong(0xF6,error_code);
    1240:	86 ef       	ldi	r24, 0xF6	; 246
    1242:	be 01       	movw	r22, r28
    1244:	0e 94 25 07 	call	0xe4a	; 0xe4a <bmp180ReadLong>
    1248:	ac 01       	movw	r20, r24
    124a:	cb 01       	movw	r24, r22
    124c:	da 01       	movw	r26, r20
    124e:	9c 01       	movw	r18, r24
    1250:	ad 01       	movw	r20, r26
	}
	
	return pressure;

}
    1252:	b9 01       	movw	r22, r18
    1254:	ca 01       	movw	r24, r20
    1256:	df 91       	pop	r29
    1258:	cf 91       	pop	r28
    125a:	08 95       	ret

0000125c <bmp180Convert>:
//----------------------------------------

void bmp180Convert(int16_t BMP180_calibration_int16_t[],int16_t BMP180_calibration_uint16_t[],int32_t* temperature, int32_t* pressure, uint8_t* error_code)
{
    125c:	2f 92       	push	r2
    125e:	3f 92       	push	r3
    1260:	4f 92       	push	r4
    1262:	5f 92       	push	r5
    1264:	6f 92       	push	r6
    1266:	7f 92       	push	r7
    1268:	8f 92       	push	r8
    126a:	9f 92       	push	r9
    126c:	af 92       	push	r10
    126e:	bf 92       	push	r11
    1270:	cf 92       	push	r12
    1272:	df 92       	push	r13
    1274:	ef 92       	push	r14
    1276:	ff 92       	push	r15
    1278:	0f 93       	push	r16
    127a:	1f 93       	push	r17
    127c:	df 93       	push	r29
    127e:	cf 93       	push	r28
    1280:	cd b7       	in	r28, 0x3d	; 61
    1282:	de b7       	in	r29, 0x3e	; 62
    1284:	62 97       	sbiw	r28, 0x12	; 18
    1286:	0f b6       	in	r0, 0x3f	; 63
    1288:	f8 94       	cli
    128a:	de bf       	out	0x3e, r29	; 62
    128c:	0f be       	out	0x3f, r0	; 63
    128e:	cd bf       	out	0x3d, r28	; 61
    1290:	fc 01       	movw	r30, r24
    1292:	4a 01       	movw	r8, r20
    1294:	3a 8b       	std	Y+18, r19	; 0x12
    1296:	29 8b       	std	Y+17, r18	; 0x11
    1298:	38 01       	movw	r6, r16
	int8_t i;
	int32_t ut=0;
	int32_t up=0;
	int32_t x1, x2, b5, b6, x3, b3, p;
	uint32_t b4, b7;
	int16_t ac1=BMP180_calibration_int16_t[0];
    129a:	20 81       	ld	r18, Z
    129c:	31 81       	ldd	r19, Z+1	; 0x01
    129e:	3a 87       	std	Y+10, r19	; 0x0a
    12a0:	29 87       	std	Y+9, r18	; 0x09
	int16_t ac2=BMP180_calibration_int16_t[1]; 
    12a2:	82 81       	ldd	r24, Z+2	; 0x02
    12a4:	93 81       	ldd	r25, Z+3	; 0x03
    12a6:	98 87       	std	Y+8, r25	; 0x08
    12a8:	8f 83       	std	Y+7, r24	; 0x07
	int16_t ac3=BMP180_calibration_int16_t[2]; 
    12aa:	a4 81       	ldd	r26, Z+4	; 0x04
    12ac:	b5 81       	ldd	r27, Z+5	; 0x05
    12ae:	be 83       	std	Y+6, r27	; 0x06
    12b0:	ad 83       	std	Y+5, r26	; 0x05
	uint16_t ac4=BMP180_calibration_uint16_t[0];
    12b2:	db 01       	movw	r26, r22
    12b4:	0d 90       	ld	r0, X+
    12b6:	bc 91       	ld	r27, X
    12b8:	a0 2d       	mov	r26, r0
    12ba:	b8 8b       	std	Y+16, r27	; 0x10
    12bc:	af 87       	std	Y+15, r26	; 0x0f
	uint16_t ac5=BMP180_calibration_uint16_t[1];
    12be:	db 01       	movw	r26, r22
    12c0:	12 96       	adiw	r26, 0x02	; 2
    12c2:	ad 90       	ld	r10, X+
    12c4:	bc 90       	ld	r11, X
    12c6:	13 97       	sbiw	r26, 0x03	; 3
	uint16_t ac6=BMP180_calibration_uint16_t[2];
    12c8:	14 96       	adiw	r26, 0x04	; 4
    12ca:	cd 90       	ld	r12, X+
    12cc:	dc 90       	ld	r13, X
    12ce:	15 97       	sbiw	r26, 0x05	; 5
	int16_t b1=BMP180_calibration_int16_t[3]; 
    12d0:	26 81       	ldd	r18, Z+6	; 0x06
    12d2:	37 81       	ldd	r19, Z+7	; 0x07
    12d4:	3c 83       	std	Y+4, r19	; 0x04
    12d6:	2b 83       	std	Y+3, r18	; 0x03
	int16_t b2=BMP180_calibration_int16_t[4];
    12d8:	80 85       	ldd	r24, Z+8	; 0x08
    12da:	91 85       	ldd	r25, Z+9	; 0x09
    12dc:	9a 83       	std	Y+2, r25	; 0x02
    12de:	89 83       	std	Y+1, r24	; 0x01
	//int16_t mb=BMP180_calibration_int16_t[5];
	int16_t mc=BMP180_calibration_int16_t[6];
    12e0:	44 84       	ldd	r4, Z+12	; 0x0c
    12e2:	55 84       	ldd	r5, Z+13	; 0x0d
	int16_t md=BMP180_calibration_int16_t[7];
    12e4:	26 84       	ldd	r2, Z+14	; 0x0e
    12e6:	37 84       	ldd	r3, Z+15	; 0x0f

	if (*error_code==0){
    12e8:	d8 01       	movw	r26, r16
    12ea:	8c 91       	ld	r24, X
    12ec:	88 23       	and	r24, r24
    12ee:	21 f0       	breq	.+8      	; 0x12f8 <bmp180Convert+0x9c>
    12f0:	ee 24       	eor	r14, r14
    12f2:	ff 24       	eor	r15, r15
    12f4:	87 01       	movw	r16, r14
    12f6:	05 c0       	rjmp	.+10     	; 0x1302 <bmp180Convert+0xa6>
		ut += bmp180ReadTemp(error_code);
    12f8:	c8 01       	movw	r24, r16
    12fa:	0e 94 32 08 	call	0x1064	; 0x1064 <bmp180ReadTemp>
    12fe:	7b 01       	movw	r14, r22
    1300:	8c 01       	movw	r16, r24
	}
	if (*error_code==0){
    1302:	f3 01       	movw	r30, r6
    1304:	80 81       	ld	r24, Z
    1306:	88 23       	and	r24, r24
    1308:	29 f0       	breq	.+10     	; 0x1314 <bmp180Convert+0xb8>
    130a:	1b 86       	std	Y+11, r1	; 0x0b
    130c:	1c 86       	std	Y+12, r1	; 0x0c
    130e:	1d 86       	std	Y+13, r1	; 0x0d
    1310:	1e 86       	std	Y+14, r1	; 0x0e
    1312:	07 c0       	rjmp	.+14     	; 0x1322 <bmp180Convert+0xc6>
		up = bmp180ReadPressure(error_code);
    1314:	c3 01       	movw	r24, r6
    1316:	0e 94 ac 08 	call	0x1158	; 0x1158 <bmp180ReadPressure>
    131a:	6b 87       	std	Y+11, r22	; 0x0b
    131c:	7c 87       	std	Y+12, r23	; 0x0c
    131e:	8d 87       	std	Y+13, r24	; 0x0d
    1320:	9e 87       	std	Y+14, r25	; 0x0e
	}
	
	x1 = ((int32_t)ut - (int32_t)ac6) * (int32_t)ac5 >> 15;
    1322:	c6 01       	movw	r24, r12
    1324:	a0 e0       	ldi	r26, 0x00	; 0
    1326:	b0 e0       	ldi	r27, 0x00	; 0
    1328:	e8 1a       	sub	r14, r24
    132a:	f9 0a       	sbc	r15, r25
    132c:	0a 0b       	sbc	r16, r26
    132e:	1b 0b       	sbc	r17, r27
    1330:	95 01       	movw	r18, r10
    1332:	40 e0       	ldi	r20, 0x00	; 0
    1334:	50 e0       	ldi	r21, 0x00	; 0
    1336:	c8 01       	movw	r24, r16
    1338:	b7 01       	movw	r22, r14
    133a:	0e 94 d9 14 	call	0x29b2	; 0x29b2 <__mulsi3>
    133e:	7b 01       	movw	r14, r22
    1340:	8c 01       	movw	r16, r24
    1342:	3f e0       	ldi	r19, 0x0F	; 15
    1344:	15 95       	asr	r17
    1346:	07 95       	ror	r16
    1348:	f7 94       	ror	r15
    134a:	e7 94       	ror	r14
    134c:	3a 95       	dec	r19
    134e:	d1 f7       	brne	.-12     	; 0x1344 <bmp180Convert+0xe8>
	x2 = ((int32_t)mc << 11) / (x1 + md);
	b5 = x1 + x2;
    1350:	b2 01       	movw	r22, r4
    1352:	88 27       	eor	r24, r24
    1354:	77 fd       	sbrc	r23, 7
    1356:	80 95       	com	r24
    1358:	98 2f       	mov	r25, r24
    135a:	2b e0       	ldi	r18, 0x0B	; 11
    135c:	66 0f       	add	r22, r22
    135e:	77 1f       	adc	r23, r23
    1360:	88 1f       	adc	r24, r24
    1362:	99 1f       	adc	r25, r25
    1364:	2a 95       	dec	r18
    1366:	d1 f7       	brne	.-12     	; 0x135c <bmp180Convert+0x100>
    1368:	91 01       	movw	r18, r2
    136a:	44 27       	eor	r20, r20
    136c:	37 fd       	sbrc	r19, 7
    136e:	40 95       	com	r20
    1370:	54 2f       	mov	r21, r20
    1372:	2e 0d       	add	r18, r14
    1374:	3f 1d       	adc	r19, r15
    1376:	40 1f       	adc	r20, r16
    1378:	51 1f       	adc	r21, r17
    137a:	0e 94 2d 15 	call	0x2a5a	; 0x2a5a <__divmodsi4>
    137e:	59 01       	movw	r10, r18
    1380:	6a 01       	movw	r12, r20
    1382:	ae 0c       	add	r10, r14
    1384:	bf 1c       	adc	r11, r15
    1386:	c0 1e       	adc	r12, r16
    1388:	d1 1e       	adc	r13, r17
	*temperature = (b5 + 8) >> 4;
    138a:	88 e0       	ldi	r24, 0x08	; 8
    138c:	90 e0       	ldi	r25, 0x00	; 0
    138e:	a0 e0       	ldi	r26, 0x00	; 0
    1390:	b0 e0       	ldi	r27, 0x00	; 0
    1392:	a8 0e       	add	r10, r24
    1394:	b9 1e       	adc	r11, r25
    1396:	ca 1e       	adc	r12, r26
    1398:	db 1e       	adc	r13, r27
    139a:	d6 01       	movw	r26, r12
    139c:	c5 01       	movw	r24, r10
    139e:	14 e0       	ldi	r17, 0x04	; 4
    13a0:	b5 95       	asr	r27
    13a2:	a7 95       	ror	r26
    13a4:	97 95       	ror	r25
    13a6:	87 95       	ror	r24
    13a8:	1a 95       	dec	r17
    13aa:	d1 f7       	brne	.-12     	; 0x13a0 <bmp180Convert+0x144>
    13ac:	f4 01       	movw	r30, r8
    13ae:	80 83       	st	Z, r24
    13b0:	91 83       	std	Z+1, r25	; 0x01
    13b2:	a2 83       	std	Z+2, r26	; 0x02
    13b4:	b3 83       	std	Z+3, r27	; 0x03
	
	b6 = b5 - 4000;
    13b6:	88 e5       	ldi	r24, 0x58	; 88
    13b8:	90 ef       	ldi	r25, 0xF0	; 240
    13ba:	af ef       	ldi	r26, 0xFF	; 255
    13bc:	bf ef       	ldi	r27, 0xFF	; 255
    13be:	a8 0e       	add	r10, r24
    13c0:	b9 1e       	adc	r11, r25
    13c2:	ca 1e       	adc	r12, r26
    13c4:	db 1e       	adc	r13, r27
	x1 = (b2 * ((b6 * b6) >> 12)) >> 11;
    13c6:	c6 01       	movw	r24, r12
    13c8:	b5 01       	movw	r22, r10
    13ca:	a6 01       	movw	r20, r12
    13cc:	95 01       	movw	r18, r10
    13ce:	0e 94 d9 14 	call	0x29b2	; 0x29b2 <__mulsi3>
    13d2:	3b 01       	movw	r6, r22
    13d4:	4c 01       	movw	r8, r24
    13d6:	ac e0       	ldi	r26, 0x0C	; 12
    13d8:	95 94       	asr	r9
    13da:	87 94       	ror	r8
    13dc:	77 94       	ror	r7
    13de:	67 94       	ror	r6
    13e0:	aa 95       	dec	r26
    13e2:	d1 f7       	brne	.-12     	; 0x13d8 <bmp180Convert+0x17c>
	x3 = x1 + x2;
	b3 = (((((int32_t) ac1) * 4 + x3)<<OSS) + 2)>> 2;
	x1 = (ac3 * b6) >> 13;
	x2 = (b1 * ((b6 * b6) >> 12)) >> 16;
	x3 = ((x1 + x2) + 2) >> 2;
	b4 = (ac4 * (uint32_t) (x3 + 32768)) >> 15;
    13e4:	ad 81       	ldd	r26, Y+5	; 0x05
    13e6:	be 81       	ldd	r27, Y+6	; 0x06
    13e8:	9d 01       	movw	r18, r26
    13ea:	44 27       	eor	r20, r20
    13ec:	37 fd       	sbrc	r19, 7
    13ee:	40 95       	com	r20
    13f0:	54 2f       	mov	r21, r20
    13f2:	c6 01       	movw	r24, r12
    13f4:	b5 01       	movw	r22, r10
    13f6:	0e 94 d9 14 	call	0x29b2	; 0x29b2 <__mulsi3>
    13fa:	7b 01       	movw	r14, r22
    13fc:	8c 01       	movw	r16, r24
    13fe:	fd e0       	ldi	r31, 0x0D	; 13
    1400:	15 95       	asr	r17
    1402:	07 95       	ror	r16
    1404:	f7 94       	ror	r15
    1406:	e7 94       	ror	r14
    1408:	fa 95       	dec	r31
    140a:	d1 f7       	brne	.-12     	; 0x1400 <bmp180Convert+0x1a4>
    140c:	82 e0       	ldi	r24, 0x02	; 2
    140e:	90 e0       	ldi	r25, 0x00	; 0
    1410:	a0 e0       	ldi	r26, 0x00	; 0
    1412:	b0 e0       	ldi	r27, 0x00	; 0
    1414:	e8 0e       	add	r14, r24
    1416:	f9 1e       	adc	r15, r25
    1418:	0a 1f       	adc	r16, r26
    141a:	1b 1f       	adc	r17, r27
    141c:	ab 81       	ldd	r26, Y+3	; 0x03
    141e:	bc 81       	ldd	r27, Y+4	; 0x04
    1420:	9d 01       	movw	r18, r26
    1422:	44 27       	eor	r20, r20
    1424:	37 fd       	sbrc	r19, 7
    1426:	40 95       	com	r20
    1428:	54 2f       	mov	r21, r20
    142a:	c4 01       	movw	r24, r8
    142c:	b3 01       	movw	r22, r6
    142e:	0e 94 d9 14 	call	0x29b2	; 0x29b2 <__mulsi3>
    1432:	bc 01       	movw	r22, r24
    1434:	99 27       	eor	r25, r25
    1436:	77 fd       	sbrc	r23, 7
    1438:	90 95       	com	r25
    143a:	89 2f       	mov	r24, r25
    143c:	e6 0e       	add	r14, r22
    143e:	f7 1e       	adc	r15, r23
    1440:	08 1f       	adc	r16, r24
    1442:	19 1f       	adc	r17, r25
    1444:	62 e0       	ldi	r22, 0x02	; 2
    1446:	15 95       	asr	r17
    1448:	07 95       	ror	r16
    144a:	f7 94       	ror	r15
    144c:	e7 94       	ror	r14
    144e:	6a 95       	dec	r22
    1450:	d1 f7       	brne	.-12     	; 0x1446 <bmp180Convert+0x1ea>
    1452:	80 e0       	ldi	r24, 0x00	; 0
    1454:	90 e8       	ldi	r25, 0x80	; 128
    1456:	a0 e0       	ldi	r26, 0x00	; 0
    1458:	b0 e0       	ldi	r27, 0x00	; 0
    145a:	e8 0e       	add	r14, r24
    145c:	f9 1e       	adc	r15, r25
    145e:	0a 1f       	adc	r16, r26
    1460:	1b 1f       	adc	r17, r27
    1462:	af 85       	ldd	r26, Y+15	; 0x0f
    1464:	b8 89       	ldd	r27, Y+16	; 0x10
    1466:	9d 01       	movw	r18, r26
    1468:	40 e0       	ldi	r20, 0x00	; 0
    146a:	50 e0       	ldi	r21, 0x00	; 0
    146c:	c8 01       	movw	r24, r16
    146e:	b7 01       	movw	r22, r14
    1470:	0e 94 d9 14 	call	0x29b2	; 0x29b2 <__mulsi3>
    1474:	1b 01       	movw	r2, r22
    1476:	2c 01       	movw	r4, r24
    1478:	5f e0       	ldi	r21, 0x0F	; 15
    147a:	56 94       	lsr	r5
    147c:	47 94       	ror	r4
    147e:	37 94       	ror	r3
    1480:	27 94       	ror	r2
    1482:	5a 95       	dec	r21
    1484:	d1 f7       	brne	.-12     	; 0x147a <bmp180Convert+0x21e>
	b7 = ((uint32_t) (up - b3) * (50000 >> OSS));
    1486:	ef 81       	ldd	r30, Y+7	; 0x07
    1488:	f8 85       	ldd	r31, Y+8	; 0x08
    148a:	9f 01       	movw	r18, r30
    148c:	44 27       	eor	r20, r20
    148e:	37 fd       	sbrc	r19, 7
    1490:	40 95       	com	r20
    1492:	54 2f       	mov	r21, r20
    1494:	c6 01       	movw	r24, r12
    1496:	b5 01       	movw	r22, r10
    1498:	0e 94 d9 14 	call	0x29b2	; 0x29b2 <__mulsi3>
    149c:	7b 01       	movw	r14, r22
    149e:	8c 01       	movw	r16, r24
    14a0:	4b e0       	ldi	r20, 0x0B	; 11
    14a2:	15 95       	asr	r17
    14a4:	07 95       	ror	r16
    14a6:	f7 94       	ror	r15
    14a8:	e7 94       	ror	r14
    14aa:	4a 95       	dec	r20
    14ac:	d1 f7       	brne	.-12     	; 0x14a2 <bmp180Convert+0x246>
    14ae:	29 85       	ldd	r18, Y+9	; 0x09
    14b0:	3a 85       	ldd	r19, Y+10	; 0x0a
    14b2:	c9 01       	movw	r24, r18
    14b4:	aa 27       	eor	r26, r26
    14b6:	97 fd       	sbrc	r25, 7
    14b8:	a0 95       	com	r26
    14ba:	ba 2f       	mov	r27, r26
    14bc:	32 e0       	ldi	r19, 0x02	; 2
    14be:	88 0f       	add	r24, r24
    14c0:	99 1f       	adc	r25, r25
    14c2:	aa 1f       	adc	r26, r26
    14c4:	bb 1f       	adc	r27, r27
    14c6:	3a 95       	dec	r19
    14c8:	d1 f7       	brne	.-12     	; 0x14be <bmp180Convert+0x262>
    14ca:	e8 0e       	add	r14, r24
    14cc:	f9 1e       	adc	r15, r25
    14ce:	0a 1f       	adc	r16, r26
    14d0:	1b 1f       	adc	r17, r27
    14d2:	89 81       	ldd	r24, Y+1	; 0x01
    14d4:	9a 81       	ldd	r25, Y+2	; 0x02
    14d6:	9c 01       	movw	r18, r24
    14d8:	44 27       	eor	r20, r20
    14da:	37 fd       	sbrc	r19, 7
    14dc:	40 95       	com	r20
    14de:	54 2f       	mov	r21, r20
    14e0:	c4 01       	movw	r24, r8
    14e2:	b3 01       	movw	r22, r6
    14e4:	0e 94 d9 14 	call	0x29b2	; 0x29b2 <__mulsi3>
    14e8:	2b e0       	ldi	r18, 0x0B	; 11
    14ea:	95 95       	asr	r25
    14ec:	87 95       	ror	r24
    14ee:	77 95       	ror	r23
    14f0:	67 95       	ror	r22
    14f2:	2a 95       	dec	r18
    14f4:	d1 f7       	brne	.-12     	; 0x14ea <bmp180Convert+0x28e>
    14f6:	e6 0e       	add	r14, r22
    14f8:	f7 1e       	adc	r15, r23
    14fa:	08 1f       	adc	r16, r24
    14fc:	19 1f       	adc	r17, r25
    14fe:	ee 0c       	add	r14, r14
    1500:	ff 1c       	adc	r15, r15
    1502:	00 1f       	adc	r16, r16
    1504:	11 1f       	adc	r17, r17
    1506:	8b 85       	ldd	r24, Y+11	; 0x0b
    1508:	9c 85       	ldd	r25, Y+12	; 0x0c
    150a:	ad 85       	ldd	r26, Y+13	; 0x0d
    150c:	be 85       	ldd	r27, Y+14	; 0x0e
    150e:	8e 19       	sub	r24, r14
    1510:	9f 09       	sbc	r25, r15
    1512:	a0 0b       	sbc	r26, r16
    1514:	b1 0b       	sbc	r27, r17
    1516:	8b 87       	std	Y+11, r24	; 0x0b
    1518:	9c 87       	std	Y+12, r25	; 0x0c
    151a:	ad 87       	std	Y+13, r26	; 0x0d
    151c:	be 87       	std	Y+14, r27	; 0x0e
    151e:	bc 01       	movw	r22, r24
    1520:	cd 01       	movw	r24, r26
    1522:	2a e6       	ldi	r18, 0x6A	; 106
    1524:	38 e1       	ldi	r19, 0x18	; 24
    1526:	40 e0       	ldi	r20, 0x00	; 0
    1528:	50 e0       	ldi	r21, 0x00	; 0
    152a:	0e 94 d9 14 	call	0x29b2	; 0x29b2 <__mulsi3>
	//p = b7 < 0x80000000 ? (b7 * 2) / b4 : (b7 / b4) * 2;
	
	if (b7 < 0x80000000)
    152e:	97 fd       	sbrc	r25, 7
    1530:	0d c0       	rjmp	.+26     	; 0x154c <bmp180Convert+0x2f0>
	{
		p = (b7 << 1) / b4;
    1532:	66 0f       	add	r22, r22
    1534:	77 1f       	adc	r23, r23
    1536:	88 1f       	adc	r24, r24
    1538:	99 1f       	adc	r25, r25
    153a:	a2 01       	movw	r20, r4
    153c:	91 01       	movw	r18, r2
    153e:	0e 94 0b 15 	call	0x2a16	; 0x2a16 <__udivmodsi4>
    1542:	c9 01       	movw	r24, r18
    1544:	da 01       	movw	r26, r20
    1546:	5c 01       	movw	r10, r24
    1548:	6d 01       	movw	r12, r26
    154a:	0a c0       	rjmp	.+20     	; 0x1560 <bmp180Convert+0x304>
	}
	else
	{ 
		p = (b7 / b4) << 1;
    154c:	a2 01       	movw	r20, r4
    154e:	91 01       	movw	r18, r2
    1550:	0e 94 0b 15 	call	0x2a16	; 0x2a16 <__udivmodsi4>
    1554:	59 01       	movw	r10, r18
    1556:	6a 01       	movw	r12, r20
    1558:	aa 0c       	add	r10, r10
    155a:	bb 1c       	adc	r11, r11
    155c:	cc 1c       	adc	r12, r12
    155e:	dd 1c       	adc	r13, r13
	}

	x1 = (p >> 8) * (p >> 8);
    1560:	55 27       	eor	r21, r21
    1562:	d7 fc       	sbrc	r13, 7
    1564:	5a 95       	dec	r21
    1566:	4d 2d       	mov	r20, r13
    1568:	3c 2d       	mov	r19, r12
    156a:	2b 2d       	mov	r18, r11
	x1 = (x1 * 3038) >> 16;
    156c:	ca 01       	movw	r24, r20
    156e:	b9 01       	movw	r22, r18
    1570:	0e 94 d9 14 	call	0x29b2	; 0x29b2 <__mulsi3>
    1574:	2e ed       	ldi	r18, 0xDE	; 222
    1576:	3b e0       	ldi	r19, 0x0B	; 11
    1578:	40 e0       	ldi	r20, 0x00	; 0
    157a:	50 e0       	ldi	r21, 0x00	; 0
    157c:	0e 94 d9 14 	call	0x29b2	; 0x29b2 <__mulsi3>
    1580:	7b 01       	movw	r14, r22
    1582:	8c 01       	movw	r16, r24
	x2 = (-7357 * p) >> 16;
	*pressure = p + ((x1 + x2 + 3791) >> 4);
    1584:	c6 01       	movw	r24, r12
    1586:	b5 01       	movw	r22, r10
    1588:	23 e4       	ldi	r18, 0x43	; 67
    158a:	33 ee       	ldi	r19, 0xE3	; 227
    158c:	4f ef       	ldi	r20, 0xFF	; 255
    158e:	5f ef       	ldi	r21, 0xFF	; 255
    1590:	0e 94 d9 14 	call	0x29b2	; 0x29b2 <__mulsi3>
    1594:	bc 01       	movw	r22, r24
    1596:	99 27       	eor	r25, r25
    1598:	77 fd       	sbrc	r23, 7
    159a:	90 95       	com	r25
    159c:	89 2f       	mov	r24, r25
    159e:	61 53       	subi	r22, 0x31	; 49
    15a0:	71 4f       	sbci	r23, 0xF1	; 241
    15a2:	8f 4f       	sbci	r24, 0xFF	; 255
    15a4:	9f 4f       	sbci	r25, 0xFF	; 255
    15a6:	78 01       	movw	r14, r16
    15a8:	11 27       	eor	r17, r17
    15aa:	f7 fc       	sbrc	r15, 7
    15ac:	10 95       	com	r17
    15ae:	01 2f       	mov	r16, r17
    15b0:	6e 0d       	add	r22, r14
    15b2:	7f 1d       	adc	r23, r15
    15b4:	80 1f       	adc	r24, r16
    15b6:	91 1f       	adc	r25, r17
    15b8:	e4 e0       	ldi	r30, 0x04	; 4
    15ba:	95 95       	asr	r25
    15bc:	87 95       	ror	r24
    15be:	77 95       	ror	r23
    15c0:	67 95       	ror	r22
    15c2:	ea 95       	dec	r30
    15c4:	d1 f7       	brne	.-12     	; 0x15ba <bmp180Convert+0x35e>
    15c6:	6a 0d       	add	r22, r10
    15c8:	7b 1d       	adc	r23, r11
    15ca:	8c 1d       	adc	r24, r12
    15cc:	9d 1d       	adc	r25, r13
    15ce:	a9 89       	ldd	r26, Y+17	; 0x11
    15d0:	ba 89       	ldd	r27, Y+18	; 0x12
    15d2:	6d 93       	st	X+, r22
    15d4:	7d 93       	st	X+, r23
    15d6:	8d 93       	st	X+, r24
    15d8:	9c 93       	st	X, r25
    15da:	13 97       	sbiw	r26, 0x03	; 3
}
    15dc:	62 96       	adiw	r28, 0x12	; 18
    15de:	0f b6       	in	r0, 0x3f	; 63
    15e0:	f8 94       	cli
    15e2:	de bf       	out	0x3e, r29	; 62
    15e4:	0f be       	out	0x3f, r0	; 63
    15e6:	cd bf       	out	0x3d, r28	; 61
    15e8:	cf 91       	pop	r28
    15ea:	df 91       	pop	r29
    15ec:	1f 91       	pop	r17
    15ee:	0f 91       	pop	r16
    15f0:	ff 90       	pop	r15
    15f2:	ef 90       	pop	r14
    15f4:	df 90       	pop	r13
    15f6:	cf 90       	pop	r12
    15f8:	bf 90       	pop	r11
    15fa:	af 90       	pop	r10
    15fc:	9f 90       	pop	r9
    15fe:	8f 90       	pop	r8
    1600:	7f 90       	pop	r7
    1602:	6f 90       	pop	r6
    1604:	5f 90       	pop	r5
    1606:	4f 90       	pop	r4
    1608:	3f 90       	pop	r3
    160a:	2f 90       	pop	r2
    160c:	08 95       	ret

0000160e <bmp180Calibration>:
//----------------------------------------

void bmp180Calibration(int16_t BMP180_calibration_int16_t[],int16_t BMP180_calibration_uint16_t[], uint8_t* errorcode)
{
    160e:	ef 92       	push	r14
    1610:	ff 92       	push	r15
    1612:	0f 93       	push	r16
    1614:	1f 93       	push	r17
    1616:	cf 93       	push	r28
    1618:	df 93       	push	r29
    161a:	8c 01       	movw	r16, r24
    161c:	7b 01       	movw	r14, r22
    161e:	ea 01       	movw	r28, r20
	if (*errorcode==0){
    1620:	88 81       	ld	r24, Y
    1622:	88 23       	and	r24, r24
    1624:	39 f4       	brne	.+14     	; 0x1634 <bmp180Calibration+0x26>
		BMP180_calibration_int16_t[0] = bmp180ReadShort(0xAA,errorcode);//ac1
    1626:	8a ea       	ldi	r24, 0xAA	; 170
    1628:	ba 01       	movw	r22, r20
    162a:	0e 94 5a 06 	call	0xcb4	; 0xcb4 <bmp180ReadShort>
    162e:	f8 01       	movw	r30, r16
    1630:	91 83       	std	Z+1, r25	; 0x01
    1632:	80 83       	st	Z, r24
	}	
	if (*errorcode==0){	
    1634:	88 81       	ld	r24, Y
    1636:	88 23       	and	r24, r24
    1638:	39 f4       	brne	.+14     	; 0x1648 <bmp180Calibration+0x3a>
		BMP180_calibration_int16_t[1] = bmp180ReadShort(0xAC,errorcode);//ac2
    163a:	8c ea       	ldi	r24, 0xAC	; 172
    163c:	be 01       	movw	r22, r28
    163e:	0e 94 5a 06 	call	0xcb4	; 0xcb4 <bmp180ReadShort>
    1642:	f8 01       	movw	r30, r16
    1644:	93 83       	std	Z+3, r25	; 0x03
    1646:	82 83       	std	Z+2, r24	; 0x02
	}
	if (*errorcode==0){	
    1648:	88 81       	ld	r24, Y
    164a:	88 23       	and	r24, r24
    164c:	39 f4       	brne	.+14     	; 0x165c <bmp180Calibration+0x4e>
		BMP180_calibration_int16_t[2] = bmp180ReadShort(0xAE,errorcode);//ac3
    164e:	8e ea       	ldi	r24, 0xAE	; 174
    1650:	be 01       	movw	r22, r28
    1652:	0e 94 5a 06 	call	0xcb4	; 0xcb4 <bmp180ReadShort>
    1656:	f8 01       	movw	r30, r16
    1658:	95 83       	std	Z+5, r25	; 0x05
    165a:	84 83       	std	Z+4, r24	; 0x04
	}
	if (*errorcode==0){	
    165c:	88 81       	ld	r24, Y
    165e:	88 23       	and	r24, r24
    1660:	39 f4       	brne	.+14     	; 0x1670 <bmp180Calibration+0x62>
		BMP180_calibration_uint16_t[0] = bmp180ReadShort(0xB0,errorcode);//ac4
    1662:	80 eb       	ldi	r24, 0xB0	; 176
    1664:	be 01       	movw	r22, r28
    1666:	0e 94 5a 06 	call	0xcb4	; 0xcb4 <bmp180ReadShort>
    166a:	f7 01       	movw	r30, r14
    166c:	91 83       	std	Z+1, r25	; 0x01
    166e:	80 83       	st	Z, r24
	}
	if (*errorcode==0){	
    1670:	88 81       	ld	r24, Y
    1672:	88 23       	and	r24, r24
    1674:	39 f4       	brne	.+14     	; 0x1684 <bmp180Calibration+0x76>
		BMP180_calibration_uint16_t[1] = bmp180ReadShort(0xB2,errorcode);//ac5
    1676:	82 eb       	ldi	r24, 0xB2	; 178
    1678:	be 01       	movw	r22, r28
    167a:	0e 94 5a 06 	call	0xcb4	; 0xcb4 <bmp180ReadShort>
    167e:	f7 01       	movw	r30, r14
    1680:	93 83       	std	Z+3, r25	; 0x03
    1682:	82 83       	std	Z+2, r24	; 0x02
	}
	if (*errorcode==0){	
    1684:	88 81       	ld	r24, Y
    1686:	88 23       	and	r24, r24
    1688:	39 f4       	brne	.+14     	; 0x1698 <bmp180Calibration+0x8a>
		BMP180_calibration_uint16_t[2] = bmp180ReadShort(0xB4,errorcode);//ac6
    168a:	84 eb       	ldi	r24, 0xB4	; 180
    168c:	be 01       	movw	r22, r28
    168e:	0e 94 5a 06 	call	0xcb4	; 0xcb4 <bmp180ReadShort>
    1692:	f7 01       	movw	r30, r14
    1694:	95 83       	std	Z+5, r25	; 0x05
    1696:	84 83       	std	Z+4, r24	; 0x04
	}
	if (*errorcode==0){	
    1698:	88 81       	ld	r24, Y
    169a:	88 23       	and	r24, r24
    169c:	39 f4       	brne	.+14     	; 0x16ac <bmp180Calibration+0x9e>
		BMP180_calibration_int16_t[3] = bmp180ReadShort(0xB6,errorcode);//b1
    169e:	86 eb       	ldi	r24, 0xB6	; 182
    16a0:	be 01       	movw	r22, r28
    16a2:	0e 94 5a 06 	call	0xcb4	; 0xcb4 <bmp180ReadShort>
    16a6:	f8 01       	movw	r30, r16
    16a8:	97 83       	std	Z+7, r25	; 0x07
    16aa:	86 83       	std	Z+6, r24	; 0x06
	}
	if (*errorcode==0){	
    16ac:	88 81       	ld	r24, Y
    16ae:	88 23       	and	r24, r24
    16b0:	39 f4       	brne	.+14     	; 0x16c0 <bmp180Calibration+0xb2>
		BMP180_calibration_int16_t[4] = bmp180ReadShort(0xB8,errorcode);//b2
    16b2:	88 eb       	ldi	r24, 0xB8	; 184
    16b4:	be 01       	movw	r22, r28
    16b6:	0e 94 5a 06 	call	0xcb4	; 0xcb4 <bmp180ReadShort>
    16ba:	f8 01       	movw	r30, r16
    16bc:	91 87       	std	Z+9, r25	; 0x09
    16be:	80 87       	std	Z+8, r24	; 0x08
	}
	if (*errorcode==0){	
    16c0:	88 81       	ld	r24, Y
    16c2:	88 23       	and	r24, r24
    16c4:	39 f4       	brne	.+14     	; 0x16d4 <bmp180Calibration+0xc6>
		BMP180_calibration_int16_t[5] = bmp180ReadShort(0xBA,errorcode);//mb
    16c6:	8a eb       	ldi	r24, 0xBA	; 186
    16c8:	be 01       	movw	r22, r28
    16ca:	0e 94 5a 06 	call	0xcb4	; 0xcb4 <bmp180ReadShort>
    16ce:	f8 01       	movw	r30, r16
    16d0:	93 87       	std	Z+11, r25	; 0x0b
    16d2:	82 87       	std	Z+10, r24	; 0x0a
	}
	if (*errorcode==0){	
    16d4:	88 81       	ld	r24, Y
    16d6:	88 23       	and	r24, r24
    16d8:	39 f4       	brne	.+14     	; 0x16e8 <bmp180Calibration+0xda>
		BMP180_calibration_int16_t[6] = bmp180ReadShort(0xBC,errorcode);//mc
    16da:	8c eb       	ldi	r24, 0xBC	; 188
    16dc:	be 01       	movw	r22, r28
    16de:	0e 94 5a 06 	call	0xcb4	; 0xcb4 <bmp180ReadShort>
    16e2:	f8 01       	movw	r30, r16
    16e4:	95 87       	std	Z+13, r25	; 0x0d
    16e6:	84 87       	std	Z+12, r24	; 0x0c
	}
	if (*errorcode==0){	
    16e8:	88 81       	ld	r24, Y
    16ea:	88 23       	and	r24, r24
    16ec:	39 f4       	brne	.+14     	; 0x16fc <bmp180Calibration+0xee>
		BMP180_calibration_int16_t[7] = bmp180ReadShort(0xBE,errorcode);//md
    16ee:	8e eb       	ldi	r24, 0xBE	; 190
    16f0:	be 01       	movw	r22, r28
    16f2:	0e 94 5a 06 	call	0xcb4	; 0xcb4 <bmp180ReadShort>
    16f6:	f8 01       	movw	r30, r16
    16f8:	97 87       	std	Z+15, r25	; 0x0f
    16fa:	86 87       	std	Z+14, r24	; 0x0e
	}
}
    16fc:	df 91       	pop	r29
    16fe:	cf 91       	pop	r28
    1700:	1f 91       	pop	r17
    1702:	0f 91       	pop	r16
    1704:	ff 90       	pop	r15
    1706:	ef 90       	pop	r14
    1708:	08 95       	ret

0000170a <bmp180CalcAltitude>:

int32_t bmp180CalcAltitude(int32_t pressure){
	float temp;
	int32_t altitude;
	temp = (float) pressure/101325;
	temp = 1-pow(temp, 0.19029);
    170a:	0e 94 61 12 	call	0x24c2	; 0x24c2 <__floatsisf>
    170e:	20 e8       	ldi	r18, 0x80	; 128
    1710:	36 ee       	ldi	r19, 0xE6	; 230
    1712:	45 ec       	ldi	r20, 0xC5	; 197
    1714:	57 e4       	ldi	r21, 0x47	; 71
    1716:	0e 94 c6 11 	call	0x238c	; 0x238c <__divsf3>
    171a:	22 e6       	ldi	r18, 0x62	; 98
    171c:	3b ed       	ldi	r19, 0xDB	; 219
    171e:	42 e4       	ldi	r20, 0x42	; 66
    1720:	5e e3       	ldi	r21, 0x3E	; 62
    1722:	0e 94 74 13 	call	0x26e8	; 0x26e8 <pow>
    1726:	9b 01       	movw	r18, r22
    1728:	ac 01       	movw	r20, r24
    172a:	60 e0       	ldi	r22, 0x00	; 0
    172c:	70 e0       	ldi	r23, 0x00	; 0
    172e:	80 e8       	ldi	r24, 0x80	; 128
    1730:	9f e3       	ldi	r25, 0x3F	; 63
    1732:	0e 94 5d 11 	call	0x22ba	; 0x22ba <__subsf3>
    1736:	20 e0       	ldi	r18, 0x00	; 0
    1738:	3a e2       	ldi	r19, 0x2A	; 42
    173a:	4d e2       	ldi	r20, 0x2D	; 45
    173c:	57 e4       	ldi	r21, 0x47	; 71
    173e:	0e 94 11 13 	call	0x2622	; 0x2622 <__mulsf3>
    1742:	20 e0       	ldi	r18, 0x00	; 0
    1744:	30 e0       	ldi	r19, 0x00	; 0
    1746:	48 ec       	ldi	r20, 0xC8	; 200
    1748:	52 e4       	ldi	r21, 0x42	; 66
    174a:	0e 94 11 13 	call	0x2622	; 0x2622 <__mulsf3>
    174e:	0e 94 2e 12 	call	0x245c	; 0x245c <__fixsfsi>
    1752:	9b 01       	movw	r18, r22
    1754:	ac 01       	movw	r20, r24
	//altitude = round(44330*temp*10);
	altitude = 44330*temp*100;
	//get altitude in dm
	return altitude;
}
    1756:	ca 01       	movw	r24, r20
    1758:	08 95       	ret

0000175a <dht_init>:
#define DHT_MAXTIMINGS 85


void dht_init(struct dht22 *dht, uint8_t pin)
{
    dht->pin = pin;
    175a:	fc 01       	movw	r30, r24
    175c:	66 83       	std	Z+6, r22	; 0x06
    /* Setup the pins! */
    DDR_DHT &= ~(1 << dht->pin);
    175e:	3a b3       	in	r19, 0x1a	; 26
    1760:	81 e0       	ldi	r24, 0x01	; 1
    1762:	90 e0       	ldi	r25, 0x00	; 0
    1764:	02 c0       	rjmp	.+4      	; 0x176a <dht_init+0x10>
    1766:	88 0f       	add	r24, r24
    1768:	99 1f       	adc	r25, r25
    176a:	6a 95       	dec	r22
    176c:	e2 f7       	brpl	.-8      	; 0x1766 <dht_init+0xc>
    176e:	28 2f       	mov	r18, r24
    1770:	20 95       	com	r18
    1772:	23 23       	and	r18, r19
    1774:	2a bb       	out	0x1a, r18	; 26
    PORT_DHT |= (1 << dht->pin);
    1776:	2b b3       	in	r18, 0x1b	; 27
    1778:	82 2b       	or	r24, r18
    177a:	8b bb       	out	0x1b, r24	; 27
}
    177c:	08 95       	ret

0000177e <dht_read>:

static uint8_t dht_read(struct dht22 *dht)
{
    177e:	ff 92       	push	r15
    1780:	0f 93       	push	r16
    1782:	1f 93       	push	r17
    1784:	cf 93       	push	r28
    1786:	df 93       	push	r29
    1788:	dc 01       	movw	r26, r24
    uint8_t last_state = 1;
    uint16_t counter = 0;
    /*
     * Pull the pin 1 and wait 250 milliseconds
     */
    PORT_DHT |= (1 << dht->pin);
    178a:	2b b3       	in	r18, 0x1b	; 27
    178c:	81 e0       	ldi	r24, 0x01	; 1
    178e:	90 e0       	ldi	r25, 0x00	; 0
    1790:	16 96       	adiw	r26, 0x06	; 6
    1792:	0c 90       	ld	r0, X
    1794:	16 97       	sbiw	r26, 0x06	; 6
    1796:	02 c0       	rjmp	.+4      	; 0x179c <dht_read+0x1e>
    1798:	88 0f       	add	r24, r24
    179a:	99 1f       	adc	r25, r25
    179c:	0a 94       	dec	r0
    179e:	e2 f7       	brpl	.-8      	; 0x1798 <dht_read+0x1a>
    17a0:	28 2b       	or	r18, r24
    17a2:	2b bb       	out	0x1b, r18	; 27
    17a4:	84 ec       	ldi	r24, 0xC4	; 196
    17a6:	99 e0       	ldi	r25, 0x09	; 9
    17a8:	20 e9       	ldi	r18, 0x90	; 144
    17aa:	31 e0       	ldi	r19, 0x01	; 1
    17ac:	f9 01       	movw	r30, r18
    17ae:	31 97       	sbiw	r30, 0x01	; 1
    17b0:	f1 f7       	brne	.-4      	; 0x17ae <dht_read+0x30>
		{
			// wait 1/10 ms
			_delay_loop_2(((F_CPU) / 4e3) / 10);
			__ticks --;
    17b2:	01 97       	sbiw	r24, 0x01	; 1
		__ticks = 1;
	else if (__tmp > 65535)
	{
		//	__ticks = requested delay in 1/10 ms
		__ticks = (uint16_t) (__ms * 10.0);
		while(__ticks)
    17b4:	d9 f7       	brne	.-10     	; 0x17ac <dht_read+0x2e>
    _delay_ms(250);

    dht->data[0] = dht->data[1] = dht->data[2] = dht->data[3] = dht->data[4] = 0;
    17b6:	14 96       	adiw	r26, 0x04	; 4
    17b8:	1c 92       	st	X, r1
    17ba:	14 97       	sbiw	r26, 0x04	; 4
    17bc:	13 96       	adiw	r26, 0x03	; 3
    17be:	1c 92       	st	X, r1
    17c0:	13 97       	sbiw	r26, 0x03	; 3
    17c2:	12 96       	adiw	r26, 0x02	; 2
    17c4:	1c 92       	st	X, r1
    17c6:	12 97       	sbiw	r26, 0x02	; 2
    17c8:	11 96       	adiw	r26, 0x01	; 1
    17ca:	1c 92       	st	X, r1
    17cc:	11 97       	sbiw	r26, 0x01	; 1
    17ce:	1c 92       	st	X, r1

    /* Now pull it low for ~20 milliseconds */
    DDR_DHT |= (1 << dht->pin);
    17d0:	8a b3       	in	r24, 0x1a	; 26
    17d2:	21 e0       	ldi	r18, 0x01	; 1
    17d4:	30 e0       	ldi	r19, 0x00	; 0
    17d6:	16 96       	adiw	r26, 0x06	; 6
    17d8:	0c 90       	ld	r0, X
    17da:	16 97       	sbiw	r26, 0x06	; 6
    17dc:	02 c0       	rjmp	.+4      	; 0x17e2 <dht_read+0x64>
    17de:	22 0f       	add	r18, r18
    17e0:	33 1f       	adc	r19, r19
    17e2:	0a 94       	dec	r0
    17e4:	e2 f7       	brpl	.-8      	; 0x17de <dht_read+0x60>
    17e6:	82 2b       	or	r24, r18
    17e8:	8a bb       	out	0x1a, r24	; 26
    PORT_DHT &= ~(1 << dht->pin);
    17ea:	8b b3       	in	r24, 0x1b	; 27
    17ec:	32 2f       	mov	r19, r18
    17ee:	30 95       	com	r19
    17f0:	83 23       	and	r24, r19
    17f2:	8b bb       	out	0x1b, r24	; 27
    17f4:	88 ec       	ldi	r24, 0xC8	; 200
    17f6:	90 e0       	ldi	r25, 0x00	; 0
    17f8:	40 e9       	ldi	r20, 0x90	; 144
    17fa:	51 e0       	ldi	r21, 0x01	; 1
    17fc:	fa 01       	movw	r30, r20
    17fe:	31 97       	sbiw	r30, 0x01	; 1
    1800:	f1 f7       	brne	.-4      	; 0x17fe <dht_read+0x80>
		{
			// wait 1/10 ms
			_delay_loop_2(((F_CPU) / 4e3) / 10);
			__ticks --;
    1802:	01 97       	sbiw	r24, 0x01	; 1
		__ticks = 1;
	else if (__tmp > 65535)
	{
		//	__ticks = requested delay in 1/10 ms
		__ticks = (uint16_t) (__ms * 10.0);
		while(__ticks)
    1804:	d9 f7       	brne	.-10     	; 0x17fc <dht_read+0x7e>
    _delay_ms(20);
    cli();
    1806:	f8 94       	cli
    PORT_DHT |= (1 << dht->pin);
    1808:	8b b3       	in	r24, 0x1b	; 27
    180a:	28 2b       	or	r18, r24
    180c:	2b bb       	out	0x1b, r18	; 27
    can be achieved.
*/
void
_delay_loop_1(uint8_t __count)
{
	__asm__ volatile (
    180e:	85 ed       	ldi	r24, 0xD5	; 213
    1810:	8a 95       	dec	r24
    1812:	f1 f7       	brne	.-4      	; 0x1810 <dht_read+0x92>
    _delay_us(40);
    DDR_DHT &= ~(1 << dht->pin);
    1814:	8a b3       	in	r24, 0x1a	; 26
    1816:	38 23       	and	r19, r24
    1818:	3a bb       	out	0x1a, r19	; 26
    181a:	10 e0       	ldi	r17, 0x00	; 0
    181c:	e1 e0       	ldi	r30, 0x01	; 1
    181e:	60 e0       	ldi	r22, 0x00	; 0
    1820:	70 e0       	ldi	r23, 0x00	; 0

    /* Read the timings */
    for (i = 0; i < DHT_MAXTIMINGS; i++) {
        counter = 0;
        while (1) {
            tmp = ((PIN_DHT & (1 << dht->pin)) >> 1);
    1822:	c1 e0       	ldi	r28, 0x01	; 1
    1824:	d0 e0       	ldi	r29, 0x00	; 0
    1826:	00 e1       	ldi	r16, 0x10	; 16
    1828:	f0 2e       	mov	r15, r16
    182a:	05 e0       	ldi	r16, 0x05	; 5
    182c:	ae 01       	movw	r20, r28
    182e:	16 96       	adiw	r26, 0x06	; 6
    1830:	0c 90       	ld	r0, X
    1832:	16 97       	sbiw	r26, 0x06	; 6
    1834:	02 c0       	rjmp	.+4      	; 0x183a <dht_read+0xbc>
    1836:	44 0f       	add	r20, r20
    1838:	55 1f       	adc	r21, r21
    183a:	0a 94       	dec	r0
    183c:	e2 f7       	brpl	.-8      	; 0x1836 <dht_read+0xb8>
    183e:	20 e0       	ldi	r18, 0x00	; 0
    1840:	30 e0       	ldi	r19, 0x00	; 0
    1842:	89 b3       	in	r24, 0x19	; 25
    1844:	9f 2d       	mov	r25, r15
    1846:	9a 95       	dec	r25
    1848:	f1 f7       	brne	.-4      	; 0x1846 <dht_read+0xc8>
            _delay_us(3);

            if (tmp != last_state)
    184a:	90 e0       	ldi	r25, 0x00	; 0
    184c:	84 23       	and	r24, r20
    184e:	95 23       	and	r25, r21
    1850:	95 95       	asr	r25
    1852:	87 95       	ror	r24
    1854:	e8 17       	cp	r30, r24
    1856:	41 f4       	brne	.+16     	; 0x1868 <dht_read+0xea>
                break;

            counter++;
    1858:	2f 5f       	subi	r18, 0xFF	; 255
    185a:	3f 4f       	sbci	r19, 0xFF	; 255
    185c:	80 2f       	mov	r24, r16
    185e:	8a 95       	dec	r24
    1860:	f1 f7       	brne	.-4      	; 0x185e <dht_read+0xe0>
            _delay_us(1);

            if (counter == 255)
    1862:	2f 3f       	cpi	r18, 0xFF	; 255
    1864:	31 05       	cpc	r19, r1
    1866:	69 f7       	brne	.-38     	; 0x1842 <dht_read+0xc4>
                break;
        }

        last_state = ((PIN_DHT & (1 << dht->pin)) >> 1);
    1868:	99 b3       	in	r25, 0x19	; 25

        if (counter == 255)
    186a:	2f 3f       	cpi	r18, 0xFF	; 255
    186c:	31 05       	cpc	r19, r1
    186e:	09 f1       	breq	.+66     	; 0x18b2 <dht_read+0x134>
            break;

        /* Ignore first 3 transitions */
        if ((i >= 4) && (i % 2 == 0)) {
    1870:	64 30       	cpi	r22, 0x04	; 4
    1872:	90 f0       	brcs	.+36     	; 0x1898 <dht_read+0x11a>
    1874:	60 fd       	sbrc	r22, 0
    1876:	10 c0       	rjmp	.+32     	; 0x1898 <dht_read+0x11a>
            /* Shove each bit into the storage bytes */
            dht->data[j/8] <<= 1;
    1878:	81 2f       	mov	r24, r17
    187a:	86 95       	lsr	r24
    187c:	86 95       	lsr	r24
    187e:	86 95       	lsr	r24
    1880:	fd 01       	movw	r30, r26
    1882:	e8 0f       	add	r30, r24
    1884:	f1 1d       	adc	r31, r1
    1886:	80 81       	ld	r24, Z
    1888:	88 0f       	add	r24, r24
    188a:	80 83       	st	Z, r24
            if (counter > DHT_COUNT)
    188c:	27 30       	cpi	r18, 0x07	; 7
    188e:	31 05       	cpc	r19, r1
    1890:	10 f0       	brcs	.+4      	; 0x1896 <dht_read+0x118>
                dht->data[j/8] |= 1;
    1892:	81 60       	ori	r24, 0x01	; 1
    1894:	80 83       	st	Z, r24
            j++;
    1896:	1f 5f       	subi	r17, 0xFF	; 255
    1898:	6f 5f       	subi	r22, 0xFF	; 255
    189a:	7f 4f       	sbci	r23, 0xFF	; 255
    PORT_DHT |= (1 << dht->pin);
    _delay_us(40);
    DDR_DHT &= ~(1 << dht->pin);

    /* Read the timings */
    for (i = 0; i < DHT_MAXTIMINGS; i++) {
    189c:	65 35       	cpi	r22, 0x55	; 85
    189e:	71 05       	cpc	r23, r1
    18a0:	41 f0       	breq	.+16     	; 0x18b2 <dht_read+0x134>

            if (counter == 255)
                break;
        }

        last_state = ((PIN_DHT & (1 << dht->pin)) >> 1);
    18a2:	89 2f       	mov	r24, r25
    18a4:	90 e0       	ldi	r25, 0x00	; 0
    18a6:	48 23       	and	r20, r24
    18a8:	59 23       	and	r21, r25
    18aa:	55 95       	asr	r21
    18ac:	47 95       	ror	r20
    18ae:	e4 2f       	mov	r30, r20
    18b0:	bd cf       	rjmp	.-134    	; 0x182c <dht_read+0xae>
                dht->data[j/8] |= 1;
            j++;
        }
    }

    sei();
    18b2:	78 94       	sei
    sum = dht->data[0] + dht->data[1] + dht->data[2] + dht->data[3];
    18b4:	4c 91       	ld	r20, X
    18b6:	11 96       	adiw	r26, 0x01	; 1
    18b8:	2c 91       	ld	r18, X
    18ba:	11 97       	sbiw	r26, 0x01	; 1
    18bc:	12 96       	adiw	r26, 0x02	; 2
    18be:	8c 91       	ld	r24, X
    18c0:	12 97       	sbiw	r26, 0x02	; 2
    18c2:	13 96       	adiw	r26, 0x03	; 3
    18c4:	3c 91       	ld	r19, X
    18c6:	13 97       	sbiw	r26, 0x03	; 3

    if ((j >= 40) && (dht->data[4] == (sum & 0xFF)))
    18c8:	18 32       	cpi	r17, 0x28	; 40
    18ca:	10 f4       	brcc	.+4      	; 0x18d0 <dht_read+0x152>
    18cc:	90 e0       	ldi	r25, 0x00	; 0
    18ce:	09 c0       	rjmp	.+18     	; 0x18e2 <dht_read+0x164>
    18d0:	90 e0       	ldi	r25, 0x00	; 0
    18d2:	24 0f       	add	r18, r20
    18d4:	28 0f       	add	r18, r24
    18d6:	23 0f       	add	r18, r19
    18d8:	14 96       	adiw	r26, 0x04	; 4
    18da:	8c 91       	ld	r24, X
    18dc:	82 17       	cp	r24, r18
    18de:	09 f4       	brne	.+2      	; 0x18e2 <dht_read+0x164>
    18e0:	91 e0       	ldi	r25, 0x01	; 1
        return 1;
    return 0;
}
    18e2:	89 2f       	mov	r24, r25
    18e4:	df 91       	pop	r29
    18e6:	cf 91       	pop	r28
    18e8:	1f 91       	pop	r17
    18ea:	0f 91       	pop	r16
    18ec:	ff 90       	pop	r15
    18ee:	08 95       	ret

000018f0 <dht_read_temp>:

uint8_t dht_read_temp(struct dht22 *dht, float *temp)
{
    18f0:	cf 92       	push	r12
    18f2:	df 92       	push	r13
    18f4:	ef 92       	push	r14
    18f6:	ff 92       	push	r15
    18f8:	0f 93       	push	r16
    18fa:	1f 93       	push	r17
    18fc:	cf 93       	push	r28
    18fe:	df 93       	push	r29
    1900:	ec 01       	movw	r28, r24
    1902:	6b 01       	movw	r12, r22
    if (dht_read(dht)) {
    1904:	0e 94 bf 0b 	call	0x177e	; 0x177e <dht_read>
    1908:	88 23       	and	r24, r24
    190a:	f1 f1       	breq	.+124    	; 0x1988 <dht_read_temp+0x98>
        *temp = dht->data[2] & 0x7F;
        *temp *= 256;
    190c:	6a 81       	ldd	r22, Y+2	; 0x02
    190e:	70 e0       	ldi	r23, 0x00	; 0
    1910:	6f 77       	andi	r22, 0x7F	; 127
    1912:	70 70       	andi	r23, 0x00	; 0
    1914:	88 27       	eor	r24, r24
    1916:	77 fd       	sbrc	r23, 7
    1918:	80 95       	com	r24
    191a:	98 2f       	mov	r25, r24
    191c:	0e 94 61 12 	call	0x24c2	; 0x24c2 <__floatsisf>
    1920:	20 e0       	ldi	r18, 0x00	; 0
    1922:	30 e0       	ldi	r19, 0x00	; 0
    1924:	40 e8       	ldi	r20, 0x80	; 128
    1926:	53 e4       	ldi	r21, 0x43	; 67
    1928:	0e 94 11 13 	call	0x2622	; 0x2622 <__mulsf3>
    192c:	7b 01       	movw	r14, r22
    192e:	8c 01       	movw	r16, r24
    1930:	f6 01       	movw	r30, r12
    1932:	60 83       	st	Z, r22
    1934:	71 83       	std	Z+1, r23	; 0x01
    1936:	82 83       	std	Z+2, r24	; 0x02
    1938:	93 83       	std	Z+3, r25	; 0x03
        *temp += dht->data[3];
        *temp /= 10;
    193a:	6b 81       	ldd	r22, Y+3	; 0x03
    193c:	70 e0       	ldi	r23, 0x00	; 0
    193e:	88 27       	eor	r24, r24
    1940:	77 fd       	sbrc	r23, 7
    1942:	80 95       	com	r24
    1944:	98 2f       	mov	r25, r24
    1946:	0e 94 61 12 	call	0x24c2	; 0x24c2 <__floatsisf>
    194a:	9b 01       	movw	r18, r22
    194c:	ac 01       	movw	r20, r24
    194e:	c8 01       	movw	r24, r16
    1950:	b7 01       	movw	r22, r14
    1952:	0e 94 5e 11 	call	0x22bc	; 0x22bc <__addsf3>
    1956:	20 e0       	ldi	r18, 0x00	; 0
    1958:	30 e0       	ldi	r19, 0x00	; 0
    195a:	40 e2       	ldi	r20, 0x20	; 32
    195c:	51 e4       	ldi	r21, 0x41	; 65
    195e:	0e 94 c6 11 	call	0x238c	; 0x238c <__divsf3>
    1962:	9b 01       	movw	r18, r22
    1964:	ac 01       	movw	r20, r24
    1966:	f6 01       	movw	r30, r12
    1968:	60 83       	st	Z, r22
    196a:	71 83       	std	Z+1, r23	; 0x01
    196c:	82 83       	std	Z+2, r24	; 0x02
    196e:	93 83       	std	Z+3, r25	; 0x03

        if (dht->data[2] & 0x80)
    1970:	8a 81       	ldd	r24, Y+2	; 0x02
    1972:	87 ff       	sbrs	r24, 7
    1974:	08 c0       	rjmp	.+16     	; 0x1986 <dht_read_temp+0x96>
            *temp *= -1;
    1976:	da 01       	movw	r26, r20
    1978:	c9 01       	movw	r24, r18
    197a:	b0 58       	subi	r27, 0x80	; 128
    197c:	f6 01       	movw	r30, r12
    197e:	80 83       	st	Z, r24
    1980:	91 83       	std	Z+1, r25	; 0x01
    1982:	a2 83       	std	Z+2, r26	; 0x02
    1984:	b3 83       	std	Z+3, r27	; 0x03
    1986:	81 e0       	ldi	r24, 0x01	; 1
        return 1;
    }
    return 0;
}
    1988:	df 91       	pop	r29
    198a:	cf 91       	pop	r28
    198c:	1f 91       	pop	r17
    198e:	0f 91       	pop	r16
    1990:	ff 90       	pop	r15
    1992:	ef 90       	pop	r14
    1994:	df 90       	pop	r13
    1996:	cf 90       	pop	r12
    1998:	08 95       	ret

0000199a <dht_read_hum>:

uint8_t dht_read_hum(struct dht22 *dht, float *hum)
{
    199a:	cf 92       	push	r12
    199c:	df 92       	push	r13
    199e:	ef 92       	push	r14
    19a0:	ff 92       	push	r15
    19a2:	0f 93       	push	r16
    19a4:	1f 93       	push	r17
    19a6:	cf 93       	push	r28
    19a8:	df 93       	push	r29
    19aa:	ec 01       	movw	r28, r24
    19ac:	6b 01       	movw	r12, r22
    if (dht_read(dht)) {
    19ae:	0e 94 bf 0b 	call	0x177e	; 0x177e <dht_read>
    19b2:	88 23       	and	r24, r24
    19b4:	11 f4       	brne	.+4      	; 0x19ba <dht_read_hum+0x20>
    19b6:	10 e0       	ldi	r17, 0x00	; 0
    19b8:	38 c0       	rjmp	.+112    	; 0x1a2a <dht_read_hum+0x90>
        *hum = dht->data[0];
        *hum *= 256;
    19ba:	68 81       	ld	r22, Y
    19bc:	70 e0       	ldi	r23, 0x00	; 0
    19be:	80 e0       	ldi	r24, 0x00	; 0
    19c0:	90 e0       	ldi	r25, 0x00	; 0
    19c2:	0e 94 5f 12 	call	0x24be	; 0x24be <__floatunsisf>
    19c6:	20 e0       	ldi	r18, 0x00	; 0
    19c8:	30 e0       	ldi	r19, 0x00	; 0
    19ca:	40 e8       	ldi	r20, 0x80	; 128
    19cc:	53 e4       	ldi	r21, 0x43	; 67
    19ce:	0e 94 11 13 	call	0x2622	; 0x2622 <__mulsf3>
    19d2:	7b 01       	movw	r14, r22
    19d4:	8c 01       	movw	r16, r24
    19d6:	f6 01       	movw	r30, r12
    19d8:	60 83       	st	Z, r22
    19da:	71 83       	std	Z+1, r23	; 0x01
    19dc:	82 83       	std	Z+2, r24	; 0x02
    19de:	93 83       	std	Z+3, r25	; 0x03
        *hum += dht->data[1];
        *hum /= 10;
    19e0:	69 81       	ldd	r22, Y+1	; 0x01
    19e2:	70 e0       	ldi	r23, 0x00	; 0
    19e4:	88 27       	eor	r24, r24
    19e6:	77 fd       	sbrc	r23, 7
    19e8:	80 95       	com	r24
    19ea:	98 2f       	mov	r25, r24
    19ec:	0e 94 61 12 	call	0x24c2	; 0x24c2 <__floatsisf>
    19f0:	9b 01       	movw	r18, r22
    19f2:	ac 01       	movw	r20, r24
    19f4:	c8 01       	movw	r24, r16
    19f6:	b7 01       	movw	r22, r14
    19f8:	0e 94 5e 11 	call	0x22bc	; 0x22bc <__addsf3>
    19fc:	20 e0       	ldi	r18, 0x00	; 0
    19fe:	30 e0       	ldi	r19, 0x00	; 0
    1a00:	40 e2       	ldi	r20, 0x20	; 32
    1a02:	51 e4       	ldi	r21, 0x41	; 65
    1a04:	0e 94 c6 11 	call	0x238c	; 0x238c <__divsf3>
    1a08:	f6 01       	movw	r30, r12
    1a0a:	60 83       	st	Z, r22
    1a0c:	71 83       	std	Z+1, r23	; 0x01
    1a0e:	82 83       	std	Z+2, r24	; 0x02
    1a10:	93 83       	std	Z+3, r25	; 0x03
    1a12:	10 e0       	ldi	r17, 0x00	; 0
    1a14:	20 e0       	ldi	r18, 0x00	; 0
    1a16:	30 e0       	ldi	r19, 0x00	; 0
    1a18:	40 e0       	ldi	r20, 0x00	; 0
    1a1a:	50 e0       	ldi	r21, 0x00	; 0
    1a1c:	0e 94 c2 11 	call	0x2384	; 0x2384 <__cmpsf2>
    1a20:	88 23       	and	r24, r24
    1a22:	09 f4       	brne	.+2      	; 0x1a26 <dht_read_hum+0x8c>
    1a24:	11 e0       	ldi	r17, 0x01	; 1
    1a26:	81 e0       	ldi	r24, 0x01	; 1
    1a28:	18 27       	eor	r17, r24
        if (*hum == 0.0f)
            return 0;
        return 1;
    }
    return 0;
}
    1a2a:	81 2f       	mov	r24, r17
    1a2c:	df 91       	pop	r29
    1a2e:	cf 91       	pop	r28
    1a30:	1f 91       	pop	r17
    1a32:	0f 91       	pop	r16
    1a34:	ff 90       	pop	r15
    1a36:	ef 90       	pop	r14
    1a38:	df 90       	pop	r13
    1a3a:	cf 90       	pop	r12
    1a3c:	08 95       	ret

00001a3e <dht_read_data>:

uint8_t dht_read_data(struct dht22 *dht, float *temp, float *hum)
{
    1a3e:	af 92       	push	r10
    1a40:	bf 92       	push	r11
    1a42:	cf 92       	push	r12
    1a44:	df 92       	push	r13
    1a46:	ef 92       	push	r14
    1a48:	ff 92       	push	r15
    1a4a:	0f 93       	push	r16
    1a4c:	1f 93       	push	r17
    1a4e:	cf 93       	push	r28
    1a50:	df 93       	push	r29
    1a52:	ec 01       	movw	r28, r24
    1a54:	6b 01       	movw	r12, r22
    1a56:	5a 01       	movw	r10, r20
    if (dht_read(dht)) {
    1a58:	0e 94 bf 0b 	call	0x177e	; 0x177e <dht_read>
    1a5c:	88 23       	and	r24, r24
    1a5e:	11 f4       	brne	.+4      	; 0x1a64 <dht_read_data+0x26>
    1a60:	10 e0       	ldi	r17, 0x00	; 0
    1a62:	74 c0       	rjmp	.+232    	; 0x1b4c <dht_read_data+0x10e>
        /* Reading temperature */
        *temp = dht->data[2] & 0x7F;
        *temp *= 256;
    1a64:	6a 81       	ldd	r22, Y+2	; 0x02
    1a66:	70 e0       	ldi	r23, 0x00	; 0
    1a68:	6f 77       	andi	r22, 0x7F	; 127
    1a6a:	70 70       	andi	r23, 0x00	; 0
    1a6c:	88 27       	eor	r24, r24
    1a6e:	77 fd       	sbrc	r23, 7
    1a70:	80 95       	com	r24
    1a72:	98 2f       	mov	r25, r24
    1a74:	0e 94 61 12 	call	0x24c2	; 0x24c2 <__floatsisf>
    1a78:	20 e0       	ldi	r18, 0x00	; 0
    1a7a:	30 e0       	ldi	r19, 0x00	; 0
    1a7c:	40 e8       	ldi	r20, 0x80	; 128
    1a7e:	53 e4       	ldi	r21, 0x43	; 67
    1a80:	0e 94 11 13 	call	0x2622	; 0x2622 <__mulsf3>
    1a84:	7b 01       	movw	r14, r22
    1a86:	8c 01       	movw	r16, r24
    1a88:	f6 01       	movw	r30, r12
    1a8a:	60 83       	st	Z, r22
    1a8c:	71 83       	std	Z+1, r23	; 0x01
    1a8e:	82 83       	std	Z+2, r24	; 0x02
    1a90:	93 83       	std	Z+3, r25	; 0x03
        *temp += dht->data[3];
        *temp /= 10;
    1a92:	6b 81       	ldd	r22, Y+3	; 0x03
    1a94:	70 e0       	ldi	r23, 0x00	; 0
    1a96:	88 27       	eor	r24, r24
    1a98:	77 fd       	sbrc	r23, 7
    1a9a:	80 95       	com	r24
    1a9c:	98 2f       	mov	r25, r24
    1a9e:	0e 94 61 12 	call	0x24c2	; 0x24c2 <__floatsisf>
    1aa2:	9b 01       	movw	r18, r22
    1aa4:	ac 01       	movw	r20, r24
    1aa6:	c8 01       	movw	r24, r16
    1aa8:	b7 01       	movw	r22, r14
    1aaa:	0e 94 5e 11 	call	0x22bc	; 0x22bc <__addsf3>
    1aae:	20 e0       	ldi	r18, 0x00	; 0
    1ab0:	30 e0       	ldi	r19, 0x00	; 0
    1ab2:	40 e2       	ldi	r20, 0x20	; 32
    1ab4:	51 e4       	ldi	r21, 0x41	; 65
    1ab6:	0e 94 c6 11 	call	0x238c	; 0x238c <__divsf3>
    1aba:	9b 01       	movw	r18, r22
    1abc:	ac 01       	movw	r20, r24
    1abe:	f6 01       	movw	r30, r12
    1ac0:	60 83       	st	Z, r22
    1ac2:	71 83       	std	Z+1, r23	; 0x01
    1ac4:	82 83       	std	Z+2, r24	; 0x02
    1ac6:	93 83       	std	Z+3, r25	; 0x03

        if (dht->data[2] & 0x80)
    1ac8:	8a 81       	ldd	r24, Y+2	; 0x02
    1aca:	87 ff       	sbrs	r24, 7
    1acc:	07 c0       	rjmp	.+14     	; 0x1adc <dht_read_data+0x9e>
            *temp *= -1;
    1ace:	da 01       	movw	r26, r20
    1ad0:	c9 01       	movw	r24, r18
    1ad2:	b0 58       	subi	r27, 0x80	; 128
    1ad4:	80 83       	st	Z, r24
    1ad6:	91 83       	std	Z+1, r25	; 0x01
    1ad8:	a2 83       	std	Z+2, r26	; 0x02
    1ada:	b3 83       	std	Z+3, r27	; 0x03

        /* Reading humidity */
        *hum = dht->data[0];
        *hum *= 256;
    1adc:	68 81       	ld	r22, Y
    1ade:	70 e0       	ldi	r23, 0x00	; 0
    1ae0:	80 e0       	ldi	r24, 0x00	; 0
    1ae2:	90 e0       	ldi	r25, 0x00	; 0
    1ae4:	0e 94 5f 12 	call	0x24be	; 0x24be <__floatunsisf>
    1ae8:	20 e0       	ldi	r18, 0x00	; 0
    1aea:	30 e0       	ldi	r19, 0x00	; 0
    1aec:	40 e8       	ldi	r20, 0x80	; 128
    1aee:	53 e4       	ldi	r21, 0x43	; 67
    1af0:	0e 94 11 13 	call	0x2622	; 0x2622 <__mulsf3>
    1af4:	7b 01       	movw	r14, r22
    1af6:	8c 01       	movw	r16, r24
    1af8:	f5 01       	movw	r30, r10
    1afa:	60 83       	st	Z, r22
    1afc:	71 83       	std	Z+1, r23	; 0x01
    1afe:	82 83       	std	Z+2, r24	; 0x02
    1b00:	93 83       	std	Z+3, r25	; 0x03
        *hum += dht->data[1];
        *hum /= 10;
    1b02:	69 81       	ldd	r22, Y+1	; 0x01
    1b04:	70 e0       	ldi	r23, 0x00	; 0
    1b06:	88 27       	eor	r24, r24
    1b08:	77 fd       	sbrc	r23, 7
    1b0a:	80 95       	com	r24
    1b0c:	98 2f       	mov	r25, r24
    1b0e:	0e 94 61 12 	call	0x24c2	; 0x24c2 <__floatsisf>
    1b12:	9b 01       	movw	r18, r22
    1b14:	ac 01       	movw	r20, r24
    1b16:	c8 01       	movw	r24, r16
    1b18:	b7 01       	movw	r22, r14
    1b1a:	0e 94 5e 11 	call	0x22bc	; 0x22bc <__addsf3>
    1b1e:	20 e0       	ldi	r18, 0x00	; 0
    1b20:	30 e0       	ldi	r19, 0x00	; 0
    1b22:	40 e2       	ldi	r20, 0x20	; 32
    1b24:	51 e4       	ldi	r21, 0x41	; 65
    1b26:	0e 94 c6 11 	call	0x238c	; 0x238c <__divsf3>
    1b2a:	f5 01       	movw	r30, r10
    1b2c:	60 83       	st	Z, r22
    1b2e:	71 83       	std	Z+1, r23	; 0x01
    1b30:	82 83       	std	Z+2, r24	; 0x02
    1b32:	93 83       	std	Z+3, r25	; 0x03
    1b34:	10 e0       	ldi	r17, 0x00	; 0
    1b36:	20 e0       	ldi	r18, 0x00	; 0
    1b38:	30 e0       	ldi	r19, 0x00	; 0
    1b3a:	40 e0       	ldi	r20, 0x00	; 0
    1b3c:	50 e0       	ldi	r21, 0x00	; 0
    1b3e:	0e 94 c2 11 	call	0x2384	; 0x2384 <__cmpsf2>
    1b42:	88 23       	and	r24, r24
    1b44:	09 f4       	brne	.+2      	; 0x1b48 <dht_read_data+0x10a>
    1b46:	11 e0       	ldi	r17, 0x01	; 1
    1b48:	81 e0       	ldi	r24, 0x01	; 1
    1b4a:	18 27       	eor	r17, r24
        if (*hum == 0.0f)
            return 0;
        return 1;
    }
    return 0;
}
    1b4c:	81 2f       	mov	r24, r17
    1b4e:	df 91       	pop	r29
    1b50:	cf 91       	pop	r28
    1b52:	1f 91       	pop	r17
    1b54:	0f 91       	pop	r16
    1b56:	ff 90       	pop	r15
    1b58:	ef 90       	pop	r14
    1b5a:	df 90       	pop	r13
    1b5c:	cf 90       	pop	r12
    1b5e:	bf 90       	pop	r11
    1b60:	af 90       	pop	r10
    1b62:	08 95       	ret

00001b64 <initADC>:
#include "lm35.h"
#include <math.h>   //math library  

void initADC(void)
{
 ADMUX=(1<<REFS0);  // For Aref=AVcc
    1b64:	80 e4       	ldi	r24, 0x40	; 64
    1b66:	87 b9       	out	0x07, r24	; 7
 ADCSRA=(1<<ADEN)|(7<<ADPS0);
    1b68:	87 e8       	ldi	r24, 0x87	; 135
    1b6a:	86 b9       	out	0x06, r24	; 6
}                      
    1b6c:	08 95       	ret

00001b6e <readADC>:

unsigned int readADC(unsigned char ch)
{
 //select ADC channel ch must be 0-7
 ch=ch&0b00000111;
 ADMUX|=ch;
    1b6e:	97 b1       	in	r25, 0x07	; 7
    1b70:	87 70       	andi	r24, 0x07	; 7
    1b72:	89 2b       	or	r24, r25
    1b74:	87 b9       	out	0x07, r24	; 7
 //start single conversion
 ADCSRA|=(1<<ADSC);
    1b76:	36 9a       	sbi	0x06, 6	; 6
 //wait for conversion to complete
 while(!(ADCSRA&(1<<ADIF)));
    1b78:	34 9b       	sbis	0x06, 4	; 6
    1b7a:	fe cf       	rjmp	.-4      	; 0x1b78 <readADC+0xa>
 //clear ADIF by writing one to it
 ADCSRA|=(1<<ADIF);
    1b7c:	34 9a       	sbi	0x06, 4	; 6
 return (ADC);
    1b7e:	24 b1       	in	r18, 0x04	; 4
    1b80:	35 b1       	in	r19, 0x05	; 5
}   
    1b82:	c9 01       	movw	r24, r18
    1b84:	08 95       	ret

00001b86 <getTemp_lm35>:

float getTemp_lm35(unsigned int val)
{
    1b86:	a0 e0       	ldi	r26, 0x00	; 0
    1b88:	b0 e0       	ldi	r27, 0x00	; 0
    1b8a:	bc 01       	movw	r22, r24
    1b8c:	cd 01       	movw	r24, r26
    1b8e:	0e 94 5f 12 	call	0x24be	; 0x24be <__floatunsisf>
    1b92:	26 ef       	ldi	r18, 0xF6	; 246
    1b94:	38 e2       	ldi	r19, 0x28	; 40
    1b96:	4c e9       	ldi	r20, 0x9C	; 156
    1b98:	50 e4       	ldi	r21, 0x40	; 64
    1b9a:	0e 94 11 13 	call	0x2622	; 0x2622 <__mulsf3>
    1b9e:	20 e0       	ldi	r18, 0x00	; 0
    1ba0:	30 e0       	ldi	r19, 0x00	; 0
    1ba2:	40 e2       	ldi	r20, 0x20	; 32
    1ba4:	51 e4       	ldi	r21, 0x41	; 65
    1ba6:	0e 94 c6 11 	call	0x238c	; 0x238c <__divsf3>
 float vout;
 
 vout = (float) val*4.88;//0.00494; //voltage in [V]
 temp = (vout/10.00); //calculated temperature in celsius
 return temp;
    1baa:	08 95       	ret

00001bac <vfprintf>:
    1bac:	a1 e1       	ldi	r26, 0x11	; 17
    1bae:	b0 e0       	ldi	r27, 0x00	; 0
    1bb0:	ec ed       	ldi	r30, 0xDC	; 220
    1bb2:	fd e0       	ldi	r31, 0x0D	; 13
    1bb4:	0c 94 48 15 	jmp	0x2a90	; 0x2a90 <__prologue_saves__>
    1bb8:	3c 01       	movw	r6, r24
    1bba:	7f 87       	std	Y+15, r23	; 0x0f
    1bbc:	6e 87       	std	Y+14, r22	; 0x0e
    1bbe:	6a 01       	movw	r12, r20
    1bc0:	fc 01       	movw	r30, r24
    1bc2:	17 82       	std	Z+7, r1	; 0x07
    1bc4:	16 82       	std	Z+6, r1	; 0x06
    1bc6:	83 81       	ldd	r24, Z+3	; 0x03
    1bc8:	81 fd       	sbrc	r24, 1
    1bca:	03 c0       	rjmp	.+6      	; 0x1bd2 <vfprintf+0x26>
    1bcc:	6f ef       	ldi	r22, 0xFF	; 255
    1bce:	7f ef       	ldi	r23, 0xFF	; 255
    1bd0:	6f c3       	rjmp	.+1758   	; 0x22b0 <vfprintf+0x704>
    1bd2:	9e 01       	movw	r18, r28
    1bd4:	2f 5f       	subi	r18, 0xFF	; 255
    1bd6:	3f 4f       	sbci	r19, 0xFF	; 255
    1bd8:	39 8b       	std	Y+17, r19	; 0x11
    1bda:	28 8b       	std	Y+16, r18	; 0x10
    1bdc:	f3 01       	movw	r30, r6
    1bde:	23 81       	ldd	r18, Z+3	; 0x03
    1be0:	ee 85       	ldd	r30, Y+14	; 0x0e
    1be2:	ff 85       	ldd	r31, Y+15	; 0x0f
    1be4:	23 fd       	sbrc	r18, 3
    1be6:	85 91       	lpm	r24, Z+
    1be8:	23 ff       	sbrs	r18, 3
    1bea:	81 91       	ld	r24, Z+
    1bec:	ff 87       	std	Y+15, r31	; 0x0f
    1bee:	ee 87       	std	Y+14, r30	; 0x0e
    1bf0:	88 23       	and	r24, r24
    1bf2:	09 f4       	brne	.+2      	; 0x1bf6 <vfprintf+0x4a>
    1bf4:	5a c3       	rjmp	.+1716   	; 0x22aa <vfprintf+0x6fe>
    1bf6:	85 32       	cpi	r24, 0x25	; 37
    1bf8:	51 f4       	brne	.+20     	; 0x1c0e <vfprintf+0x62>
    1bfa:	ee 85       	ldd	r30, Y+14	; 0x0e
    1bfc:	ff 85       	ldd	r31, Y+15	; 0x0f
    1bfe:	23 fd       	sbrc	r18, 3
    1c00:	85 91       	lpm	r24, Z+
    1c02:	23 ff       	sbrs	r18, 3
    1c04:	81 91       	ld	r24, Z+
    1c06:	ff 87       	std	Y+15, r31	; 0x0f
    1c08:	ee 87       	std	Y+14, r30	; 0x0e
    1c0a:	85 32       	cpi	r24, 0x25	; 37
    1c0c:	29 f4       	brne	.+10     	; 0x1c18 <vfprintf+0x6c>
    1c0e:	90 e0       	ldi	r25, 0x00	; 0
    1c10:	b3 01       	movw	r22, r6
    1c12:	0e 94 81 16 	call	0x2d02	; 0x2d02 <fputc>
    1c16:	e2 cf       	rjmp	.-60     	; 0x1bdc <vfprintf+0x30>
    1c18:	98 2f       	mov	r25, r24
    1c1a:	10 e0       	ldi	r17, 0x00	; 0
    1c1c:	88 24       	eor	r8, r8
    1c1e:	99 24       	eor	r9, r9
    1c20:	10 32       	cpi	r17, 0x20	; 32
    1c22:	b0 f4       	brcc	.+44     	; 0x1c50 <vfprintf+0xa4>
    1c24:	9b 32       	cpi	r25, 0x2B	; 43
    1c26:	69 f0       	breq	.+26     	; 0x1c42 <vfprintf+0x96>
    1c28:	9c 32       	cpi	r25, 0x2C	; 44
    1c2a:	28 f4       	brcc	.+10     	; 0x1c36 <vfprintf+0x8a>
    1c2c:	90 32       	cpi	r25, 0x20	; 32
    1c2e:	51 f0       	breq	.+20     	; 0x1c44 <vfprintf+0x98>
    1c30:	93 32       	cpi	r25, 0x23	; 35
    1c32:	71 f4       	brne	.+28     	; 0x1c50 <vfprintf+0xa4>
    1c34:	0b c0       	rjmp	.+22     	; 0x1c4c <vfprintf+0xa0>
    1c36:	9d 32       	cpi	r25, 0x2D	; 45
    1c38:	39 f0       	breq	.+14     	; 0x1c48 <vfprintf+0x9c>
    1c3a:	90 33       	cpi	r25, 0x30	; 48
    1c3c:	49 f4       	brne	.+18     	; 0x1c50 <vfprintf+0xa4>
    1c3e:	11 60       	ori	r17, 0x01	; 1
    1c40:	28 c0       	rjmp	.+80     	; 0x1c92 <vfprintf+0xe6>
    1c42:	12 60       	ori	r17, 0x02	; 2
    1c44:	14 60       	ori	r17, 0x04	; 4
    1c46:	25 c0       	rjmp	.+74     	; 0x1c92 <vfprintf+0xe6>
    1c48:	18 60       	ori	r17, 0x08	; 8
    1c4a:	23 c0       	rjmp	.+70     	; 0x1c92 <vfprintf+0xe6>
    1c4c:	10 61       	ori	r17, 0x10	; 16
    1c4e:	21 c0       	rjmp	.+66     	; 0x1c92 <vfprintf+0xe6>
    1c50:	17 fd       	sbrc	r17, 7
    1c52:	2a c0       	rjmp	.+84     	; 0x1ca8 <vfprintf+0xfc>
    1c54:	89 2f       	mov	r24, r25
    1c56:	80 53       	subi	r24, 0x30	; 48
    1c58:	8a 30       	cpi	r24, 0x0A	; 10
    1c5a:	78 f4       	brcc	.+30     	; 0x1c7a <vfprintf+0xce>
    1c5c:	16 ff       	sbrs	r17, 6
    1c5e:	06 c0       	rjmp	.+12     	; 0x1c6c <vfprintf+0xc0>
    1c60:	fa e0       	ldi	r31, 0x0A	; 10
    1c62:	9f 9e       	mul	r9, r31
    1c64:	90 2c       	mov	r9, r0
    1c66:	11 24       	eor	r1, r1
    1c68:	98 0e       	add	r9, r24
    1c6a:	13 c0       	rjmp	.+38     	; 0x1c92 <vfprintf+0xe6>
    1c6c:	3a e0       	ldi	r19, 0x0A	; 10
    1c6e:	83 9e       	mul	r8, r19
    1c70:	80 2c       	mov	r8, r0
    1c72:	11 24       	eor	r1, r1
    1c74:	88 0e       	add	r8, r24
    1c76:	10 62       	ori	r17, 0x20	; 32
    1c78:	0c c0       	rjmp	.+24     	; 0x1c92 <vfprintf+0xe6>
    1c7a:	9e 32       	cpi	r25, 0x2E	; 46
    1c7c:	21 f4       	brne	.+8      	; 0x1c86 <vfprintf+0xda>
    1c7e:	16 fd       	sbrc	r17, 6
    1c80:	14 c3       	rjmp	.+1576   	; 0x22aa <vfprintf+0x6fe>
    1c82:	10 64       	ori	r17, 0x40	; 64
    1c84:	06 c0       	rjmp	.+12     	; 0x1c92 <vfprintf+0xe6>
    1c86:	9c 36       	cpi	r25, 0x6C	; 108
    1c88:	11 f4       	brne	.+4      	; 0x1c8e <vfprintf+0xe2>
    1c8a:	10 68       	ori	r17, 0x80	; 128
    1c8c:	02 c0       	rjmp	.+4      	; 0x1c92 <vfprintf+0xe6>
    1c8e:	98 36       	cpi	r25, 0x68	; 104
    1c90:	59 f4       	brne	.+22     	; 0x1ca8 <vfprintf+0xfc>
    1c92:	ee 85       	ldd	r30, Y+14	; 0x0e
    1c94:	ff 85       	ldd	r31, Y+15	; 0x0f
    1c96:	23 fd       	sbrc	r18, 3
    1c98:	95 91       	lpm	r25, Z+
    1c9a:	23 ff       	sbrs	r18, 3
    1c9c:	91 91       	ld	r25, Z+
    1c9e:	ff 87       	std	Y+15, r31	; 0x0f
    1ca0:	ee 87       	std	Y+14, r30	; 0x0e
    1ca2:	99 23       	and	r25, r25
    1ca4:	09 f0       	breq	.+2      	; 0x1ca8 <vfprintf+0xfc>
    1ca6:	bc cf       	rjmp	.-136    	; 0x1c20 <vfprintf+0x74>
    1ca8:	89 2f       	mov	r24, r25
    1caa:	85 54       	subi	r24, 0x45	; 69
    1cac:	83 30       	cpi	r24, 0x03	; 3
    1cae:	20 f4       	brcc	.+8      	; 0x1cb8 <vfprintf+0x10c>
    1cb0:	81 2f       	mov	r24, r17
    1cb2:	80 61       	ori	r24, 0x10	; 16
    1cb4:	90 5e       	subi	r25, 0xE0	; 224
    1cb6:	07 c0       	rjmp	.+14     	; 0x1cc6 <vfprintf+0x11a>
    1cb8:	89 2f       	mov	r24, r25
    1cba:	85 56       	subi	r24, 0x65	; 101
    1cbc:	83 30       	cpi	r24, 0x03	; 3
    1cbe:	08 f0       	brcs	.+2      	; 0x1cc2 <vfprintf+0x116>
    1cc0:	9f c1       	rjmp	.+830    	; 0x2000 <vfprintf+0x454>
    1cc2:	81 2f       	mov	r24, r17
    1cc4:	8f 7e       	andi	r24, 0xEF	; 239
    1cc6:	86 fd       	sbrc	r24, 6
    1cc8:	02 c0       	rjmp	.+4      	; 0x1cce <vfprintf+0x122>
    1cca:	76 e0       	ldi	r23, 0x06	; 6
    1ccc:	97 2e       	mov	r9, r23
    1cce:	6f e3       	ldi	r22, 0x3F	; 63
    1cd0:	f6 2e       	mov	r15, r22
    1cd2:	f8 22       	and	r15, r24
    1cd4:	95 36       	cpi	r25, 0x65	; 101
    1cd6:	19 f4       	brne	.+6      	; 0x1cde <vfprintf+0x132>
    1cd8:	f0 e4       	ldi	r31, 0x40	; 64
    1cda:	ff 2a       	or	r15, r31
    1cdc:	07 c0       	rjmp	.+14     	; 0x1cec <vfprintf+0x140>
    1cde:	96 36       	cpi	r25, 0x66	; 102
    1ce0:	19 f4       	brne	.+6      	; 0x1ce8 <vfprintf+0x13c>
    1ce2:	20 e8       	ldi	r18, 0x80	; 128
    1ce4:	f2 2a       	or	r15, r18
    1ce6:	02 c0       	rjmp	.+4      	; 0x1cec <vfprintf+0x140>
    1ce8:	91 10       	cpse	r9, r1
    1cea:	9a 94       	dec	r9
    1cec:	f7 fe       	sbrs	r15, 7
    1cee:	0a c0       	rjmp	.+20     	; 0x1d04 <vfprintf+0x158>
    1cf0:	3b e3       	ldi	r19, 0x3B	; 59
    1cf2:	39 15       	cp	r19, r9
    1cf4:	18 f4       	brcc	.+6      	; 0x1cfc <vfprintf+0x150>
    1cf6:	5c e3       	ldi	r21, 0x3C	; 60
    1cf8:	b5 2e       	mov	r11, r21
    1cfa:	02 c0       	rjmp	.+4      	; 0x1d00 <vfprintf+0x154>
    1cfc:	b9 2c       	mov	r11, r9
    1cfe:	b3 94       	inc	r11
    1d00:	27 e0       	ldi	r18, 0x07	; 7
    1d02:	09 c0       	rjmp	.+18     	; 0x1d16 <vfprintf+0x16a>
    1d04:	47 e0       	ldi	r20, 0x07	; 7
    1d06:	49 15       	cp	r20, r9
    1d08:	20 f4       	brcc	.+8      	; 0x1d12 <vfprintf+0x166>
    1d0a:	bb 24       	eor	r11, r11
    1d0c:	47 e0       	ldi	r20, 0x07	; 7
    1d0e:	94 2e       	mov	r9, r20
    1d10:	f7 cf       	rjmp	.-18     	; 0x1d00 <vfprintf+0x154>
    1d12:	29 2d       	mov	r18, r9
    1d14:	bb 24       	eor	r11, r11
    1d16:	c6 01       	movw	r24, r12
    1d18:	04 96       	adiw	r24, 0x04	; 4
    1d1a:	9d 87       	std	Y+13, r25	; 0x0d
    1d1c:	8c 87       	std	Y+12, r24	; 0x0c
    1d1e:	f6 01       	movw	r30, r12
    1d20:	60 81       	ld	r22, Z
    1d22:	71 81       	ldd	r23, Z+1	; 0x01
    1d24:	82 81       	ldd	r24, Z+2	; 0x02
    1d26:	93 81       	ldd	r25, Z+3	; 0x03
    1d28:	ae 01       	movw	r20, r28
    1d2a:	4f 5f       	subi	r20, 0xFF	; 255
    1d2c:	5f 4f       	sbci	r21, 0xFF	; 255
    1d2e:	0b 2d       	mov	r16, r11
    1d30:	0e 94 93 15 	call	0x2b26	; 0x2b26 <__ftoa_engine>
    1d34:	6c 01       	movw	r12, r24
    1d36:	09 81       	ldd	r16, Y+1	; 0x01
    1d38:	20 2e       	mov	r2, r16
    1d3a:	33 24       	eor	r3, r3
    1d3c:	00 ff       	sbrs	r16, 0
    1d3e:	04 c0       	rjmp	.+8      	; 0x1d48 <vfprintf+0x19c>
    1d40:	03 fd       	sbrc	r16, 3
    1d42:	02 c0       	rjmp	.+4      	; 0x1d48 <vfprintf+0x19c>
    1d44:	1d e2       	ldi	r17, 0x2D	; 45
    1d46:	09 c0       	rjmp	.+18     	; 0x1d5a <vfprintf+0x1ae>
    1d48:	f1 fe       	sbrs	r15, 1
    1d4a:	02 c0       	rjmp	.+4      	; 0x1d50 <vfprintf+0x1a4>
    1d4c:	1b e2       	ldi	r17, 0x2B	; 43
    1d4e:	05 c0       	rjmp	.+10     	; 0x1d5a <vfprintf+0x1ae>
    1d50:	f2 fc       	sbrc	r15, 2
    1d52:	02 c0       	rjmp	.+4      	; 0x1d58 <vfprintf+0x1ac>
    1d54:	10 e0       	ldi	r17, 0x00	; 0
    1d56:	01 c0       	rjmp	.+2      	; 0x1d5a <vfprintf+0x1ae>
    1d58:	10 e2       	ldi	r17, 0x20	; 32
    1d5a:	c1 01       	movw	r24, r2
    1d5c:	8c 70       	andi	r24, 0x0C	; 12
    1d5e:	90 70       	andi	r25, 0x00	; 0
    1d60:	89 2b       	or	r24, r25
    1d62:	b9 f1       	breq	.+110    	; 0x1dd2 <vfprintf+0x226>
    1d64:	11 23       	and	r17, r17
    1d66:	11 f4       	brne	.+4      	; 0x1d6c <vfprintf+0x1c0>
    1d68:	83 e0       	ldi	r24, 0x03	; 3
    1d6a:	01 c0       	rjmp	.+2      	; 0x1d6e <vfprintf+0x1c2>
    1d6c:	84 e0       	ldi	r24, 0x04	; 4
    1d6e:	88 15       	cp	r24, r8
    1d70:	10 f0       	brcs	.+4      	; 0x1d76 <vfprintf+0x1ca>
    1d72:	88 24       	eor	r8, r8
    1d74:	0a c0       	rjmp	.+20     	; 0x1d8a <vfprintf+0x1de>
    1d76:	88 1a       	sub	r8, r24
    1d78:	f3 fc       	sbrc	r15, 3
    1d7a:	07 c0       	rjmp	.+14     	; 0x1d8a <vfprintf+0x1de>
    1d7c:	80 e2       	ldi	r24, 0x20	; 32
    1d7e:	90 e0       	ldi	r25, 0x00	; 0
    1d80:	b3 01       	movw	r22, r6
    1d82:	0e 94 81 16 	call	0x2d02	; 0x2d02 <fputc>
    1d86:	8a 94       	dec	r8
    1d88:	c9 f7       	brne	.-14     	; 0x1d7c <vfprintf+0x1d0>
    1d8a:	11 23       	and	r17, r17
    1d8c:	29 f0       	breq	.+10     	; 0x1d98 <vfprintf+0x1ec>
    1d8e:	81 2f       	mov	r24, r17
    1d90:	90 e0       	ldi	r25, 0x00	; 0
    1d92:	b3 01       	movw	r22, r6
    1d94:	0e 94 81 16 	call	0x2d02	; 0x2d02 <fputc>
    1d98:	23 fe       	sbrs	r2, 3
    1d9a:	03 c0       	rjmp	.+6      	; 0x1da2 <vfprintf+0x1f6>
    1d9c:	0e e0       	ldi	r16, 0x0E	; 14
    1d9e:	11 e0       	ldi	r17, 0x01	; 1
    1da0:	0e c0       	rjmp	.+28     	; 0x1dbe <vfprintf+0x212>
    1da2:	02 e1       	ldi	r16, 0x12	; 18
    1da4:	11 e0       	ldi	r17, 0x01	; 1
    1da6:	0b c0       	rjmp	.+22     	; 0x1dbe <vfprintf+0x212>
    1da8:	e1 14       	cp	r14, r1
    1daa:	f1 04       	cpc	r15, r1
    1dac:	09 f0       	breq	.+2      	; 0x1db0 <vfprintf+0x204>
    1dae:	80 52       	subi	r24, 0x20	; 32
    1db0:	90 e0       	ldi	r25, 0x00	; 0
    1db2:	b3 01       	movw	r22, r6
    1db4:	0e 94 81 16 	call	0x2d02	; 0x2d02 <fputc>
    1db8:	0f 5f       	subi	r16, 0xFF	; 255
    1dba:	1f 4f       	sbci	r17, 0xFF	; 255
    1dbc:	05 c0       	rjmp	.+10     	; 0x1dc8 <vfprintf+0x21c>
    1dbe:	ef 2c       	mov	r14, r15
    1dc0:	ff 24       	eor	r15, r15
    1dc2:	f0 e1       	ldi	r31, 0x10	; 16
    1dc4:	ef 22       	and	r14, r31
    1dc6:	ff 24       	eor	r15, r15
    1dc8:	f8 01       	movw	r30, r16
    1dca:	84 91       	lpm	r24, Z+
    1dcc:	88 23       	and	r24, r24
    1dce:	61 f7       	brne	.-40     	; 0x1da8 <vfprintf+0x1fc>
    1dd0:	14 c1       	rjmp	.+552    	; 0x1ffa <vfprintf+0x44e>
    1dd2:	f7 fe       	sbrs	r15, 7
    1dd4:	12 c0       	rjmp	.+36     	; 0x1dfa <vfprintf+0x24e>
    1dd6:	bc 0c       	add	r11, r12
    1dd8:	24 fe       	sbrs	r2, 4
    1dda:	04 c0       	rjmp	.+8      	; 0x1de4 <vfprintf+0x238>
    1ddc:	8a 81       	ldd	r24, Y+2	; 0x02
    1dde:	81 33       	cpi	r24, 0x31	; 49
    1de0:	09 f4       	brne	.+2      	; 0x1de4 <vfprintf+0x238>
    1de2:	ba 94       	dec	r11
    1de4:	1b 14       	cp	r1, r11
    1de6:	1c f0       	brlt	.+6      	; 0x1dee <vfprintf+0x242>
    1de8:	bb 24       	eor	r11, r11
    1dea:	b3 94       	inc	r11
    1dec:	2d c0       	rjmp	.+90     	; 0x1e48 <vfprintf+0x29c>
    1dee:	f8 e0       	ldi	r31, 0x08	; 8
    1df0:	fb 15       	cp	r31, r11
    1df2:	50 f5       	brcc	.+84     	; 0x1e48 <vfprintf+0x29c>
    1df4:	38 e0       	ldi	r19, 0x08	; 8
    1df6:	b3 2e       	mov	r11, r19
    1df8:	27 c0       	rjmp	.+78     	; 0x1e48 <vfprintf+0x29c>
    1dfa:	f6 fc       	sbrc	r15, 6
    1dfc:	25 c0       	rjmp	.+74     	; 0x1e48 <vfprintf+0x29c>
    1dfe:	89 2d       	mov	r24, r9
    1e00:	90 e0       	ldi	r25, 0x00	; 0
    1e02:	8c 15       	cp	r24, r12
    1e04:	9d 05       	cpc	r25, r13
    1e06:	4c f0       	brlt	.+18     	; 0x1e1a <vfprintf+0x26e>
    1e08:	2c ef       	ldi	r18, 0xFC	; 252
    1e0a:	c2 16       	cp	r12, r18
    1e0c:	2f ef       	ldi	r18, 0xFF	; 255
    1e0e:	d2 06       	cpc	r13, r18
    1e10:	24 f0       	brlt	.+8      	; 0x1e1a <vfprintf+0x26e>
    1e12:	30 e8       	ldi	r19, 0x80	; 128
    1e14:	f3 2a       	or	r15, r19
    1e16:	01 c0       	rjmp	.+2      	; 0x1e1a <vfprintf+0x26e>
    1e18:	9a 94       	dec	r9
    1e1a:	99 20       	and	r9, r9
    1e1c:	49 f0       	breq	.+18     	; 0x1e30 <vfprintf+0x284>
    1e1e:	e2 e0       	ldi	r30, 0x02	; 2
    1e20:	f0 e0       	ldi	r31, 0x00	; 0
    1e22:	ec 0f       	add	r30, r28
    1e24:	fd 1f       	adc	r31, r29
    1e26:	e9 0d       	add	r30, r9
    1e28:	f1 1d       	adc	r31, r1
    1e2a:	80 81       	ld	r24, Z
    1e2c:	80 33       	cpi	r24, 0x30	; 48
    1e2e:	a1 f3       	breq	.-24     	; 0x1e18 <vfprintf+0x26c>
    1e30:	f7 fe       	sbrs	r15, 7
    1e32:	0a c0       	rjmp	.+20     	; 0x1e48 <vfprintf+0x29c>
    1e34:	b9 2c       	mov	r11, r9
    1e36:	b3 94       	inc	r11
    1e38:	89 2d       	mov	r24, r9
    1e3a:	90 e0       	ldi	r25, 0x00	; 0
    1e3c:	c8 16       	cp	r12, r24
    1e3e:	d9 06       	cpc	r13, r25
    1e40:	14 f0       	brlt	.+4      	; 0x1e46 <vfprintf+0x29a>
    1e42:	99 24       	eor	r9, r9
    1e44:	01 c0       	rjmp	.+2      	; 0x1e48 <vfprintf+0x29c>
    1e46:	9c 18       	sub	r9, r12
    1e48:	f7 fc       	sbrc	r15, 7
    1e4a:	03 c0       	rjmp	.+6      	; 0x1e52 <vfprintf+0x2a6>
    1e4c:	25 e0       	ldi	r18, 0x05	; 5
    1e4e:	30 e0       	ldi	r19, 0x00	; 0
    1e50:	09 c0       	rjmp	.+18     	; 0x1e64 <vfprintf+0x2b8>
    1e52:	1c 14       	cp	r1, r12
    1e54:	1d 04       	cpc	r1, r13
    1e56:	1c f0       	brlt	.+6      	; 0x1e5e <vfprintf+0x2b2>
    1e58:	21 e0       	ldi	r18, 0x01	; 1
    1e5a:	30 e0       	ldi	r19, 0x00	; 0
    1e5c:	03 c0       	rjmp	.+6      	; 0x1e64 <vfprintf+0x2b8>
    1e5e:	96 01       	movw	r18, r12
    1e60:	2f 5f       	subi	r18, 0xFF	; 255
    1e62:	3f 4f       	sbci	r19, 0xFF	; 255
    1e64:	11 23       	and	r17, r17
    1e66:	11 f0       	breq	.+4      	; 0x1e6c <vfprintf+0x2c0>
    1e68:	2f 5f       	subi	r18, 0xFF	; 255
    1e6a:	3f 4f       	sbci	r19, 0xFF	; 255
    1e6c:	99 20       	and	r9, r9
    1e6e:	29 f0       	breq	.+10     	; 0x1e7a <vfprintf+0x2ce>
    1e70:	89 2d       	mov	r24, r9
    1e72:	90 e0       	ldi	r25, 0x00	; 0
    1e74:	01 96       	adiw	r24, 0x01	; 1
    1e76:	28 0f       	add	r18, r24
    1e78:	39 1f       	adc	r19, r25
    1e7a:	88 2d       	mov	r24, r8
    1e7c:	90 e0       	ldi	r25, 0x00	; 0
    1e7e:	28 17       	cp	r18, r24
    1e80:	39 07       	cpc	r19, r25
    1e82:	14 f0       	brlt	.+4      	; 0x1e88 <vfprintf+0x2dc>
    1e84:	88 24       	eor	r8, r8
    1e86:	01 c0       	rjmp	.+2      	; 0x1e8a <vfprintf+0x2de>
    1e88:	82 1a       	sub	r8, r18
    1e8a:	4f 2c       	mov	r4, r15
    1e8c:	55 24       	eor	r5, r5
    1e8e:	c2 01       	movw	r24, r4
    1e90:	89 70       	andi	r24, 0x09	; 9
    1e92:	90 70       	andi	r25, 0x00	; 0
    1e94:	89 2b       	or	r24, r25
    1e96:	39 f0       	breq	.+14     	; 0x1ea6 <vfprintf+0x2fa>
    1e98:	08 c0       	rjmp	.+16     	; 0x1eaa <vfprintf+0x2fe>
    1e9a:	80 e2       	ldi	r24, 0x20	; 32
    1e9c:	90 e0       	ldi	r25, 0x00	; 0
    1e9e:	b3 01       	movw	r22, r6
    1ea0:	0e 94 81 16 	call	0x2d02	; 0x2d02 <fputc>
    1ea4:	8a 94       	dec	r8
    1ea6:	88 20       	and	r8, r8
    1ea8:	c1 f7       	brne	.-16     	; 0x1e9a <vfprintf+0x2ee>
    1eaa:	11 23       	and	r17, r17
    1eac:	29 f0       	breq	.+10     	; 0x1eb8 <vfprintf+0x30c>
    1eae:	81 2f       	mov	r24, r17
    1eb0:	90 e0       	ldi	r25, 0x00	; 0
    1eb2:	b3 01       	movw	r22, r6
    1eb4:	0e 94 81 16 	call	0x2d02	; 0x2d02 <fputc>
    1eb8:	43 fe       	sbrs	r4, 3
    1eba:	07 c0       	rjmp	.+14     	; 0x1eca <vfprintf+0x31e>
    1ebc:	08 c0       	rjmp	.+16     	; 0x1ece <vfprintf+0x322>
    1ebe:	80 e3       	ldi	r24, 0x30	; 48
    1ec0:	90 e0       	ldi	r25, 0x00	; 0
    1ec2:	b3 01       	movw	r22, r6
    1ec4:	0e 94 81 16 	call	0x2d02	; 0x2d02 <fputc>
    1ec8:	8a 94       	dec	r8
    1eca:	88 20       	and	r8, r8
    1ecc:	c1 f7       	brne	.-16     	; 0x1ebe <vfprintf+0x312>
    1ece:	f7 fe       	sbrs	r15, 7
    1ed0:	46 c0       	rjmp	.+140    	; 0x1f5e <vfprintf+0x3b2>
    1ed2:	86 01       	movw	r16, r12
    1ed4:	d7 fe       	sbrs	r13, 7
    1ed6:	02 c0       	rjmp	.+4      	; 0x1edc <vfprintf+0x330>
    1ed8:	00 e0       	ldi	r16, 0x00	; 0
    1eda:	10 e0       	ldi	r17, 0x00	; 0
    1edc:	76 01       	movw	r14, r12
    1ede:	08 94       	sec
    1ee0:	e1 1c       	adc	r14, r1
    1ee2:	f1 1c       	adc	r15, r1
    1ee4:	e0 1a       	sub	r14, r16
    1ee6:	f1 0a       	sbc	r15, r17
    1ee8:	41 e0       	ldi	r20, 0x01	; 1
    1eea:	50 e0       	ldi	r21, 0x00	; 0
    1eec:	4c 0f       	add	r20, r28
    1eee:	5d 1f       	adc	r21, r29
    1ef0:	e4 0e       	add	r14, r20
    1ef2:	f5 1e       	adc	r15, r21
    1ef4:	26 01       	movw	r4, r12
    1ef6:	4b 18       	sub	r4, r11
    1ef8:	51 08       	sbc	r5, r1
    1efa:	89 2d       	mov	r24, r9
    1efc:	90 e0       	ldi	r25, 0x00	; 0
    1efe:	aa 24       	eor	r10, r10
    1f00:	bb 24       	eor	r11, r11
    1f02:	a8 1a       	sub	r10, r24
    1f04:	b9 0a       	sbc	r11, r25
    1f06:	5f ef       	ldi	r21, 0xFF	; 255
    1f08:	0f 3f       	cpi	r16, 0xFF	; 255
    1f0a:	15 07       	cpc	r17, r21
    1f0c:	29 f4       	brne	.+10     	; 0x1f18 <vfprintf+0x36c>
    1f0e:	8e e2       	ldi	r24, 0x2E	; 46
    1f10:	90 e0       	ldi	r25, 0x00	; 0
    1f12:	b3 01       	movw	r22, r6
    1f14:	0e 94 81 16 	call	0x2d02	; 0x2d02 <fputc>
    1f18:	c0 16       	cp	r12, r16
    1f1a:	d1 06       	cpc	r13, r17
    1f1c:	34 f0       	brlt	.+12     	; 0x1f2a <vfprintf+0x37e>
    1f1e:	40 16       	cp	r4, r16
    1f20:	51 06       	cpc	r5, r17
    1f22:	1c f4       	brge	.+6      	; 0x1f2a <vfprintf+0x37e>
    1f24:	f7 01       	movw	r30, r14
    1f26:	80 81       	ld	r24, Z
    1f28:	01 c0       	rjmp	.+2      	; 0x1f2c <vfprintf+0x380>
    1f2a:	80 e3       	ldi	r24, 0x30	; 48
    1f2c:	01 50       	subi	r16, 0x01	; 1
    1f2e:	10 40       	sbci	r17, 0x00	; 0
    1f30:	08 94       	sec
    1f32:	e1 1c       	adc	r14, r1
    1f34:	f1 1c       	adc	r15, r1
    1f36:	0a 15       	cp	r16, r10
    1f38:	1b 05       	cpc	r17, r11
    1f3a:	2c f0       	brlt	.+10     	; 0x1f46 <vfprintf+0x39a>
    1f3c:	90 e0       	ldi	r25, 0x00	; 0
    1f3e:	b3 01       	movw	r22, r6
    1f40:	0e 94 81 16 	call	0x2d02	; 0x2d02 <fputc>
    1f44:	e0 cf       	rjmp	.-64     	; 0x1f06 <vfprintf+0x35a>
    1f46:	0c 15       	cp	r16, r12
    1f48:	1d 05       	cpc	r17, r13
    1f4a:	39 f4       	brne	.+14     	; 0x1f5a <vfprintf+0x3ae>
    1f4c:	9a 81       	ldd	r25, Y+2	; 0x02
    1f4e:	96 33       	cpi	r25, 0x36	; 54
    1f50:	18 f4       	brcc	.+6      	; 0x1f58 <vfprintf+0x3ac>
    1f52:	95 33       	cpi	r25, 0x35	; 53
    1f54:	11 f4       	brne	.+4      	; 0x1f5a <vfprintf+0x3ae>
    1f56:	24 fe       	sbrs	r2, 4
    1f58:	81 e3       	ldi	r24, 0x31	; 49
    1f5a:	90 e0       	ldi	r25, 0x00	; 0
    1f5c:	4b c0       	rjmp	.+150    	; 0x1ff4 <vfprintf+0x448>
    1f5e:	8a 81       	ldd	r24, Y+2	; 0x02
    1f60:	81 33       	cpi	r24, 0x31	; 49
    1f62:	09 f0       	breq	.+2      	; 0x1f66 <vfprintf+0x3ba>
    1f64:	0f 7e       	andi	r16, 0xEF	; 239
    1f66:	90 e0       	ldi	r25, 0x00	; 0
    1f68:	b3 01       	movw	r22, r6
    1f6a:	0e 94 81 16 	call	0x2d02	; 0x2d02 <fputc>
    1f6e:	99 20       	and	r9, r9
    1f70:	a1 f0       	breq	.+40     	; 0x1f9a <vfprintf+0x3ee>
    1f72:	8e e2       	ldi	r24, 0x2E	; 46
    1f74:	90 e0       	ldi	r25, 0x00	; 0
    1f76:	b3 01       	movw	r22, r6
    1f78:	0e 94 81 16 	call	0x2d02	; 0x2d02 <fputc>
    1f7c:	12 e0       	ldi	r17, 0x02	; 2
    1f7e:	e1 e0       	ldi	r30, 0x01	; 1
    1f80:	f0 e0       	ldi	r31, 0x00	; 0
    1f82:	ec 0f       	add	r30, r28
    1f84:	fd 1f       	adc	r31, r29
    1f86:	e1 0f       	add	r30, r17
    1f88:	f1 1d       	adc	r31, r1
    1f8a:	1f 5f       	subi	r17, 0xFF	; 255
    1f8c:	80 81       	ld	r24, Z
    1f8e:	90 e0       	ldi	r25, 0x00	; 0
    1f90:	b3 01       	movw	r22, r6
    1f92:	0e 94 81 16 	call	0x2d02	; 0x2d02 <fputc>
    1f96:	9a 94       	dec	r9
    1f98:	91 f7       	brne	.-28     	; 0x1f7e <vfprintf+0x3d2>
    1f9a:	44 fc       	sbrc	r4, 4
    1f9c:	03 c0       	rjmp	.+6      	; 0x1fa4 <vfprintf+0x3f8>
    1f9e:	85 e6       	ldi	r24, 0x65	; 101
    1fa0:	90 e0       	ldi	r25, 0x00	; 0
    1fa2:	02 c0       	rjmp	.+4      	; 0x1fa8 <vfprintf+0x3fc>
    1fa4:	85 e4       	ldi	r24, 0x45	; 69
    1fa6:	90 e0       	ldi	r25, 0x00	; 0
    1fa8:	b3 01       	movw	r22, r6
    1faa:	0e 94 81 16 	call	0x2d02	; 0x2d02 <fputc>
    1fae:	d7 fc       	sbrc	r13, 7
    1fb0:	05 c0       	rjmp	.+10     	; 0x1fbc <vfprintf+0x410>
    1fb2:	c1 14       	cp	r12, r1
    1fb4:	d1 04       	cpc	r13, r1
    1fb6:	41 f4       	brne	.+16     	; 0x1fc8 <vfprintf+0x41c>
    1fb8:	04 ff       	sbrs	r16, 4
    1fba:	06 c0       	rjmp	.+12     	; 0x1fc8 <vfprintf+0x41c>
    1fbc:	d0 94       	com	r13
    1fbe:	c1 94       	neg	r12
    1fc0:	d1 08       	sbc	r13, r1
    1fc2:	d3 94       	inc	r13
    1fc4:	8d e2       	ldi	r24, 0x2D	; 45
    1fc6:	01 c0       	rjmp	.+2      	; 0x1fca <vfprintf+0x41e>
    1fc8:	8b e2       	ldi	r24, 0x2B	; 43
    1fca:	90 e0       	ldi	r25, 0x00	; 0
    1fcc:	b3 01       	movw	r22, r6
    1fce:	0e 94 81 16 	call	0x2d02	; 0x2d02 <fputc>
    1fd2:	80 e3       	ldi	r24, 0x30	; 48
    1fd4:	05 c0       	rjmp	.+10     	; 0x1fe0 <vfprintf+0x434>
    1fd6:	8f 5f       	subi	r24, 0xFF	; 255
    1fd8:	26 ef       	ldi	r18, 0xF6	; 246
    1fda:	3f ef       	ldi	r19, 0xFF	; 255
    1fdc:	c2 0e       	add	r12, r18
    1fde:	d3 1e       	adc	r13, r19
    1fe0:	3a e0       	ldi	r19, 0x0A	; 10
    1fe2:	c3 16       	cp	r12, r19
    1fe4:	d1 04       	cpc	r13, r1
    1fe6:	bc f7       	brge	.-18     	; 0x1fd6 <vfprintf+0x42a>
    1fe8:	90 e0       	ldi	r25, 0x00	; 0
    1fea:	b3 01       	movw	r22, r6
    1fec:	0e 94 81 16 	call	0x2d02	; 0x2d02 <fputc>
    1ff0:	c6 01       	movw	r24, r12
    1ff2:	c0 96       	adiw	r24, 0x30	; 48
    1ff4:	b3 01       	movw	r22, r6
    1ff6:	0e 94 81 16 	call	0x2d02	; 0x2d02 <fputc>
    1ffa:	cc 84       	ldd	r12, Y+12	; 0x0c
    1ffc:	dd 84       	ldd	r13, Y+13	; 0x0d
    1ffe:	52 c1       	rjmp	.+676    	; 0x22a4 <vfprintf+0x6f8>
    2000:	93 36       	cpi	r25, 0x63	; 99
    2002:	31 f0       	breq	.+12     	; 0x2010 <vfprintf+0x464>
    2004:	93 37       	cpi	r25, 0x73	; 115
    2006:	99 f0       	breq	.+38     	; 0x202e <vfprintf+0x482>
    2008:	93 35       	cpi	r25, 0x53	; 83
    200a:	09 f0       	breq	.+2      	; 0x200e <vfprintf+0x462>
    200c:	59 c0       	rjmp	.+178    	; 0x20c0 <vfprintf+0x514>
    200e:	23 c0       	rjmp	.+70     	; 0x2056 <vfprintf+0x4aa>
    2010:	f6 01       	movw	r30, r12
    2012:	80 81       	ld	r24, Z
    2014:	89 83       	std	Y+1, r24	; 0x01
    2016:	5e 01       	movw	r10, r28
    2018:	08 94       	sec
    201a:	a1 1c       	adc	r10, r1
    201c:	b1 1c       	adc	r11, r1
    201e:	22 e0       	ldi	r18, 0x02	; 2
    2020:	30 e0       	ldi	r19, 0x00	; 0
    2022:	c2 0e       	add	r12, r18
    2024:	d3 1e       	adc	r13, r19
    2026:	21 e0       	ldi	r18, 0x01	; 1
    2028:	e2 2e       	mov	r14, r18
    202a:	f1 2c       	mov	r15, r1
    202c:	12 c0       	rjmp	.+36     	; 0x2052 <vfprintf+0x4a6>
    202e:	f6 01       	movw	r30, r12
    2030:	a0 80       	ld	r10, Z
    2032:	b1 80       	ldd	r11, Z+1	; 0x01
    2034:	16 fd       	sbrc	r17, 6
    2036:	03 c0       	rjmp	.+6      	; 0x203e <vfprintf+0x492>
    2038:	6f ef       	ldi	r22, 0xFF	; 255
    203a:	7f ef       	ldi	r23, 0xFF	; 255
    203c:	02 c0       	rjmp	.+4      	; 0x2042 <vfprintf+0x496>
    203e:	69 2d       	mov	r22, r9
    2040:	70 e0       	ldi	r23, 0x00	; 0
    2042:	22 e0       	ldi	r18, 0x02	; 2
    2044:	30 e0       	ldi	r19, 0x00	; 0
    2046:	c2 0e       	add	r12, r18
    2048:	d3 1e       	adc	r13, r19
    204a:	c5 01       	movw	r24, r10
    204c:	0e 94 76 16 	call	0x2cec	; 0x2cec <strnlen>
    2050:	7c 01       	movw	r14, r24
    2052:	1f 77       	andi	r17, 0x7F	; 127
    2054:	13 c0       	rjmp	.+38     	; 0x207c <vfprintf+0x4d0>
    2056:	f6 01       	movw	r30, r12
    2058:	a0 80       	ld	r10, Z
    205a:	b1 80       	ldd	r11, Z+1	; 0x01
    205c:	16 fd       	sbrc	r17, 6
    205e:	03 c0       	rjmp	.+6      	; 0x2066 <vfprintf+0x4ba>
    2060:	6f ef       	ldi	r22, 0xFF	; 255
    2062:	7f ef       	ldi	r23, 0xFF	; 255
    2064:	02 c0       	rjmp	.+4      	; 0x206a <vfprintf+0x4be>
    2066:	69 2d       	mov	r22, r9
    2068:	70 e0       	ldi	r23, 0x00	; 0
    206a:	22 e0       	ldi	r18, 0x02	; 2
    206c:	30 e0       	ldi	r19, 0x00	; 0
    206e:	c2 0e       	add	r12, r18
    2070:	d3 1e       	adc	r13, r19
    2072:	c5 01       	movw	r24, r10
    2074:	0e 94 6b 16 	call	0x2cd6	; 0x2cd6 <strnlen_P>
    2078:	7c 01       	movw	r14, r24
    207a:	10 68       	ori	r17, 0x80	; 128
    207c:	13 ff       	sbrs	r17, 3
    207e:	07 c0       	rjmp	.+14     	; 0x208e <vfprintf+0x4e2>
    2080:	1b c0       	rjmp	.+54     	; 0x20b8 <vfprintf+0x50c>
    2082:	80 e2       	ldi	r24, 0x20	; 32
    2084:	90 e0       	ldi	r25, 0x00	; 0
    2086:	b3 01       	movw	r22, r6
    2088:	0e 94 81 16 	call	0x2d02	; 0x2d02 <fputc>
    208c:	8a 94       	dec	r8
    208e:	88 2d       	mov	r24, r8
    2090:	90 e0       	ldi	r25, 0x00	; 0
    2092:	e8 16       	cp	r14, r24
    2094:	f9 06       	cpc	r15, r25
    2096:	a8 f3       	brcs	.-22     	; 0x2082 <vfprintf+0x4d6>
    2098:	0f c0       	rjmp	.+30     	; 0x20b8 <vfprintf+0x50c>
    209a:	f5 01       	movw	r30, r10
    209c:	17 fd       	sbrc	r17, 7
    209e:	85 91       	lpm	r24, Z+
    20a0:	17 ff       	sbrs	r17, 7
    20a2:	81 91       	ld	r24, Z+
    20a4:	5f 01       	movw	r10, r30
    20a6:	90 e0       	ldi	r25, 0x00	; 0
    20a8:	b3 01       	movw	r22, r6
    20aa:	0e 94 81 16 	call	0x2d02	; 0x2d02 <fputc>
    20ae:	81 10       	cpse	r8, r1
    20b0:	8a 94       	dec	r8
    20b2:	08 94       	sec
    20b4:	e1 08       	sbc	r14, r1
    20b6:	f1 08       	sbc	r15, r1
    20b8:	e1 14       	cp	r14, r1
    20ba:	f1 04       	cpc	r15, r1
    20bc:	71 f7       	brne	.-36     	; 0x209a <vfprintf+0x4ee>
    20be:	f2 c0       	rjmp	.+484    	; 0x22a4 <vfprintf+0x6f8>
    20c0:	94 36       	cpi	r25, 0x64	; 100
    20c2:	11 f0       	breq	.+4      	; 0x20c8 <vfprintf+0x51c>
    20c4:	99 36       	cpi	r25, 0x69	; 105
    20c6:	89 f5       	brne	.+98     	; 0x212a <vfprintf+0x57e>
    20c8:	17 ff       	sbrs	r17, 7
    20ca:	08 c0       	rjmp	.+16     	; 0x20dc <vfprintf+0x530>
    20cc:	f6 01       	movw	r30, r12
    20ce:	20 81       	ld	r18, Z
    20d0:	31 81       	ldd	r19, Z+1	; 0x01
    20d2:	42 81       	ldd	r20, Z+2	; 0x02
    20d4:	53 81       	ldd	r21, Z+3	; 0x03
    20d6:	84 e0       	ldi	r24, 0x04	; 4
    20d8:	90 e0       	ldi	r25, 0x00	; 0
    20da:	0a c0       	rjmp	.+20     	; 0x20f0 <vfprintf+0x544>
    20dc:	f6 01       	movw	r30, r12
    20de:	80 81       	ld	r24, Z
    20e0:	91 81       	ldd	r25, Z+1	; 0x01
    20e2:	9c 01       	movw	r18, r24
    20e4:	44 27       	eor	r20, r20
    20e6:	37 fd       	sbrc	r19, 7
    20e8:	40 95       	com	r20
    20ea:	54 2f       	mov	r21, r20
    20ec:	82 e0       	ldi	r24, 0x02	; 2
    20ee:	90 e0       	ldi	r25, 0x00	; 0
    20f0:	c8 0e       	add	r12, r24
    20f2:	d9 1e       	adc	r13, r25
    20f4:	9f e6       	ldi	r25, 0x6F	; 111
    20f6:	f9 2e       	mov	r15, r25
    20f8:	f1 22       	and	r15, r17
    20fa:	57 ff       	sbrs	r21, 7
    20fc:	09 c0       	rjmp	.+18     	; 0x2110 <vfprintf+0x564>
    20fe:	50 95       	com	r21
    2100:	40 95       	com	r20
    2102:	30 95       	com	r19
    2104:	21 95       	neg	r18
    2106:	3f 4f       	sbci	r19, 0xFF	; 255
    2108:	4f 4f       	sbci	r20, 0xFF	; 255
    210a:	5f 4f       	sbci	r21, 0xFF	; 255
    210c:	90 e8       	ldi	r25, 0x80	; 128
    210e:	f9 2a       	or	r15, r25
    2110:	ca 01       	movw	r24, r20
    2112:	b9 01       	movw	r22, r18
    2114:	ae 01       	movw	r20, r28
    2116:	4f 5f       	subi	r20, 0xFF	; 255
    2118:	5f 4f       	sbci	r21, 0xFF	; 255
    211a:	2a e0       	ldi	r18, 0x0A	; 10
    211c:	30 e0       	ldi	r19, 0x00	; 0
    211e:	0e 94 d1 16 	call	0x2da2	; 0x2da2 <__ultoa_invert>
    2122:	e8 2e       	mov	r14, r24
    2124:	e8 89       	ldd	r30, Y+16	; 0x10
    2126:	ee 1a       	sub	r14, r30
    2128:	41 c0       	rjmp	.+130    	; 0x21ac <vfprintf+0x600>
    212a:	95 37       	cpi	r25, 0x75	; 117
    212c:	21 f4       	brne	.+8      	; 0x2136 <vfprintf+0x58a>
    212e:	1f 7e       	andi	r17, 0xEF	; 239
    2130:	2a e0       	ldi	r18, 0x0A	; 10
    2132:	30 e0       	ldi	r19, 0x00	; 0
    2134:	1c c0       	rjmp	.+56     	; 0x216e <vfprintf+0x5c2>
    2136:	19 7f       	andi	r17, 0xF9	; 249
    2138:	9f 36       	cpi	r25, 0x6F	; 111
    213a:	61 f0       	breq	.+24     	; 0x2154 <vfprintf+0x5a8>
    213c:	90 37       	cpi	r25, 0x70	; 112
    213e:	20 f4       	brcc	.+8      	; 0x2148 <vfprintf+0x59c>
    2140:	98 35       	cpi	r25, 0x58	; 88
    2142:	09 f0       	breq	.+2      	; 0x2146 <vfprintf+0x59a>
    2144:	b2 c0       	rjmp	.+356    	; 0x22aa <vfprintf+0x6fe>
    2146:	0f c0       	rjmp	.+30     	; 0x2166 <vfprintf+0x5ba>
    2148:	90 37       	cpi	r25, 0x70	; 112
    214a:	39 f0       	breq	.+14     	; 0x215a <vfprintf+0x5ae>
    214c:	98 37       	cpi	r25, 0x78	; 120
    214e:	09 f0       	breq	.+2      	; 0x2152 <vfprintf+0x5a6>
    2150:	ac c0       	rjmp	.+344    	; 0x22aa <vfprintf+0x6fe>
    2152:	04 c0       	rjmp	.+8      	; 0x215c <vfprintf+0x5b0>
    2154:	28 e0       	ldi	r18, 0x08	; 8
    2156:	30 e0       	ldi	r19, 0x00	; 0
    2158:	0a c0       	rjmp	.+20     	; 0x216e <vfprintf+0x5c2>
    215a:	10 61       	ori	r17, 0x10	; 16
    215c:	14 fd       	sbrc	r17, 4
    215e:	14 60       	ori	r17, 0x04	; 4
    2160:	20 e1       	ldi	r18, 0x10	; 16
    2162:	30 e0       	ldi	r19, 0x00	; 0
    2164:	04 c0       	rjmp	.+8      	; 0x216e <vfprintf+0x5c2>
    2166:	14 fd       	sbrc	r17, 4
    2168:	16 60       	ori	r17, 0x06	; 6
    216a:	20 e1       	ldi	r18, 0x10	; 16
    216c:	32 e0       	ldi	r19, 0x02	; 2
    216e:	17 ff       	sbrs	r17, 7
    2170:	08 c0       	rjmp	.+16     	; 0x2182 <vfprintf+0x5d6>
    2172:	f6 01       	movw	r30, r12
    2174:	60 81       	ld	r22, Z
    2176:	71 81       	ldd	r23, Z+1	; 0x01
    2178:	82 81       	ldd	r24, Z+2	; 0x02
    217a:	93 81       	ldd	r25, Z+3	; 0x03
    217c:	44 e0       	ldi	r20, 0x04	; 4
    217e:	50 e0       	ldi	r21, 0x00	; 0
    2180:	08 c0       	rjmp	.+16     	; 0x2192 <vfprintf+0x5e6>
    2182:	f6 01       	movw	r30, r12
    2184:	80 81       	ld	r24, Z
    2186:	91 81       	ldd	r25, Z+1	; 0x01
    2188:	bc 01       	movw	r22, r24
    218a:	80 e0       	ldi	r24, 0x00	; 0
    218c:	90 e0       	ldi	r25, 0x00	; 0
    218e:	42 e0       	ldi	r20, 0x02	; 2
    2190:	50 e0       	ldi	r21, 0x00	; 0
    2192:	c4 0e       	add	r12, r20
    2194:	d5 1e       	adc	r13, r21
    2196:	ae 01       	movw	r20, r28
    2198:	4f 5f       	subi	r20, 0xFF	; 255
    219a:	5f 4f       	sbci	r21, 0xFF	; 255
    219c:	0e 94 d1 16 	call	0x2da2	; 0x2da2 <__ultoa_invert>
    21a0:	e8 2e       	mov	r14, r24
    21a2:	58 89       	ldd	r21, Y+16	; 0x10
    21a4:	e5 1a       	sub	r14, r21
    21a6:	8f e7       	ldi	r24, 0x7F	; 127
    21a8:	f8 2e       	mov	r15, r24
    21aa:	f1 22       	and	r15, r17
    21ac:	f6 fe       	sbrs	r15, 6
    21ae:	0b c0       	rjmp	.+22     	; 0x21c6 <vfprintf+0x61a>
    21b0:	8e ef       	ldi	r24, 0xFE	; 254
    21b2:	f8 22       	and	r15, r24
    21b4:	e9 14       	cp	r14, r9
    21b6:	38 f4       	brcc	.+14     	; 0x21c6 <vfprintf+0x61a>
    21b8:	f4 fe       	sbrs	r15, 4
    21ba:	07 c0       	rjmp	.+14     	; 0x21ca <vfprintf+0x61e>
    21bc:	f2 fc       	sbrc	r15, 2
    21be:	05 c0       	rjmp	.+10     	; 0x21ca <vfprintf+0x61e>
    21c0:	9f ee       	ldi	r25, 0xEF	; 239
    21c2:	f9 22       	and	r15, r25
    21c4:	02 c0       	rjmp	.+4      	; 0x21ca <vfprintf+0x61e>
    21c6:	1e 2d       	mov	r17, r14
    21c8:	01 c0       	rjmp	.+2      	; 0x21cc <vfprintf+0x620>
    21ca:	19 2d       	mov	r17, r9
    21cc:	f4 fe       	sbrs	r15, 4
    21ce:	0d c0       	rjmp	.+26     	; 0x21ea <vfprintf+0x63e>
    21d0:	fe 01       	movw	r30, r28
    21d2:	ee 0d       	add	r30, r14
    21d4:	f1 1d       	adc	r31, r1
    21d6:	80 81       	ld	r24, Z
    21d8:	80 33       	cpi	r24, 0x30	; 48
    21da:	19 f4       	brne	.+6      	; 0x21e2 <vfprintf+0x636>
    21dc:	e9 ee       	ldi	r30, 0xE9	; 233
    21de:	fe 22       	and	r15, r30
    21e0:	08 c0       	rjmp	.+16     	; 0x21f2 <vfprintf+0x646>
    21e2:	1f 5f       	subi	r17, 0xFF	; 255
    21e4:	f2 fe       	sbrs	r15, 2
    21e6:	05 c0       	rjmp	.+10     	; 0x21f2 <vfprintf+0x646>
    21e8:	03 c0       	rjmp	.+6      	; 0x21f0 <vfprintf+0x644>
    21ea:	8f 2d       	mov	r24, r15
    21ec:	86 78       	andi	r24, 0x86	; 134
    21ee:	09 f0       	breq	.+2      	; 0x21f2 <vfprintf+0x646>
    21f0:	1f 5f       	subi	r17, 0xFF	; 255
    21f2:	0f 2d       	mov	r16, r15
    21f4:	f3 fc       	sbrc	r15, 3
    21f6:	14 c0       	rjmp	.+40     	; 0x2220 <vfprintf+0x674>
    21f8:	f0 fe       	sbrs	r15, 0
    21fa:	0f c0       	rjmp	.+30     	; 0x221a <vfprintf+0x66e>
    21fc:	18 15       	cp	r17, r8
    21fe:	10 f0       	brcs	.+4      	; 0x2204 <vfprintf+0x658>
    2200:	9e 2c       	mov	r9, r14
    2202:	0b c0       	rjmp	.+22     	; 0x221a <vfprintf+0x66e>
    2204:	9e 2c       	mov	r9, r14
    2206:	98 0c       	add	r9, r8
    2208:	91 1a       	sub	r9, r17
    220a:	18 2d       	mov	r17, r8
    220c:	06 c0       	rjmp	.+12     	; 0x221a <vfprintf+0x66e>
    220e:	80 e2       	ldi	r24, 0x20	; 32
    2210:	90 e0       	ldi	r25, 0x00	; 0
    2212:	b3 01       	movw	r22, r6
    2214:	0e 94 81 16 	call	0x2d02	; 0x2d02 <fputc>
    2218:	1f 5f       	subi	r17, 0xFF	; 255
    221a:	18 15       	cp	r17, r8
    221c:	c0 f3       	brcs	.-16     	; 0x220e <vfprintf+0x662>
    221e:	04 c0       	rjmp	.+8      	; 0x2228 <vfprintf+0x67c>
    2220:	18 15       	cp	r17, r8
    2222:	10 f4       	brcc	.+4      	; 0x2228 <vfprintf+0x67c>
    2224:	81 1a       	sub	r8, r17
    2226:	01 c0       	rjmp	.+2      	; 0x222a <vfprintf+0x67e>
    2228:	88 24       	eor	r8, r8
    222a:	04 ff       	sbrs	r16, 4
    222c:	0f c0       	rjmp	.+30     	; 0x224c <vfprintf+0x6a0>
    222e:	80 e3       	ldi	r24, 0x30	; 48
    2230:	90 e0       	ldi	r25, 0x00	; 0
    2232:	b3 01       	movw	r22, r6
    2234:	0e 94 81 16 	call	0x2d02	; 0x2d02 <fputc>
    2238:	02 ff       	sbrs	r16, 2
    223a:	1d c0       	rjmp	.+58     	; 0x2276 <vfprintf+0x6ca>
    223c:	01 fd       	sbrc	r16, 1
    223e:	03 c0       	rjmp	.+6      	; 0x2246 <vfprintf+0x69a>
    2240:	88 e7       	ldi	r24, 0x78	; 120
    2242:	90 e0       	ldi	r25, 0x00	; 0
    2244:	0e c0       	rjmp	.+28     	; 0x2262 <vfprintf+0x6b6>
    2246:	88 e5       	ldi	r24, 0x58	; 88
    2248:	90 e0       	ldi	r25, 0x00	; 0
    224a:	0b c0       	rjmp	.+22     	; 0x2262 <vfprintf+0x6b6>
    224c:	80 2f       	mov	r24, r16
    224e:	86 78       	andi	r24, 0x86	; 134
    2250:	91 f0       	breq	.+36     	; 0x2276 <vfprintf+0x6ca>
    2252:	01 ff       	sbrs	r16, 1
    2254:	02 c0       	rjmp	.+4      	; 0x225a <vfprintf+0x6ae>
    2256:	8b e2       	ldi	r24, 0x2B	; 43
    2258:	01 c0       	rjmp	.+2      	; 0x225c <vfprintf+0x6b0>
    225a:	80 e2       	ldi	r24, 0x20	; 32
    225c:	f7 fc       	sbrc	r15, 7
    225e:	8d e2       	ldi	r24, 0x2D	; 45
    2260:	90 e0       	ldi	r25, 0x00	; 0
    2262:	b3 01       	movw	r22, r6
    2264:	0e 94 81 16 	call	0x2d02	; 0x2d02 <fputc>
    2268:	06 c0       	rjmp	.+12     	; 0x2276 <vfprintf+0x6ca>
    226a:	80 e3       	ldi	r24, 0x30	; 48
    226c:	90 e0       	ldi	r25, 0x00	; 0
    226e:	b3 01       	movw	r22, r6
    2270:	0e 94 81 16 	call	0x2d02	; 0x2d02 <fputc>
    2274:	9a 94       	dec	r9
    2276:	e9 14       	cp	r14, r9
    2278:	c0 f3       	brcs	.-16     	; 0x226a <vfprintf+0x6be>
    227a:	ea 94       	dec	r14
    227c:	e1 e0       	ldi	r30, 0x01	; 1
    227e:	f0 e0       	ldi	r31, 0x00	; 0
    2280:	ec 0f       	add	r30, r28
    2282:	fd 1f       	adc	r31, r29
    2284:	ee 0d       	add	r30, r14
    2286:	f1 1d       	adc	r31, r1
    2288:	80 81       	ld	r24, Z
    228a:	90 e0       	ldi	r25, 0x00	; 0
    228c:	b3 01       	movw	r22, r6
    228e:	0e 94 81 16 	call	0x2d02	; 0x2d02 <fputc>
    2292:	ee 20       	and	r14, r14
    2294:	91 f7       	brne	.-28     	; 0x227a <vfprintf+0x6ce>
    2296:	06 c0       	rjmp	.+12     	; 0x22a4 <vfprintf+0x6f8>
    2298:	80 e2       	ldi	r24, 0x20	; 32
    229a:	90 e0       	ldi	r25, 0x00	; 0
    229c:	b3 01       	movw	r22, r6
    229e:	0e 94 81 16 	call	0x2d02	; 0x2d02 <fputc>
    22a2:	8a 94       	dec	r8
    22a4:	88 20       	and	r8, r8
    22a6:	c1 f7       	brne	.-16     	; 0x2298 <vfprintf+0x6ec>
    22a8:	99 cc       	rjmp	.-1742   	; 0x1bdc <vfprintf+0x30>
    22aa:	f3 01       	movw	r30, r6
    22ac:	66 81       	ldd	r22, Z+6	; 0x06
    22ae:	77 81       	ldd	r23, Z+7	; 0x07
    22b0:	cb 01       	movw	r24, r22
    22b2:	61 96       	adiw	r28, 0x11	; 17
    22b4:	e2 e1       	ldi	r30, 0x12	; 18
    22b6:	0c 94 64 15 	jmp	0x2ac8	; 0x2ac8 <__epilogue_restores__>

000022ba <__subsf3>:
    22ba:	50 58       	subi	r21, 0x80	; 128

000022bc <__addsf3>:
    22bc:	bb 27       	eor	r27, r27
    22be:	aa 27       	eor	r26, r26
    22c0:	0e d0       	rcall	.+28     	; 0x22de <__addsf3x>
    22c2:	75 c1       	rjmp	.+746    	; 0x25ae <__fp_round>
    22c4:	66 d1       	rcall	.+716    	; 0x2592 <__fp_pscA>
    22c6:	30 f0       	brcs	.+12     	; 0x22d4 <__addsf3+0x18>
    22c8:	6b d1       	rcall	.+726    	; 0x25a0 <__fp_pscB>
    22ca:	20 f0       	brcs	.+8      	; 0x22d4 <__addsf3+0x18>
    22cc:	31 f4       	brne	.+12     	; 0x22da <__addsf3+0x1e>
    22ce:	9f 3f       	cpi	r25, 0xFF	; 255
    22d0:	11 f4       	brne	.+4      	; 0x22d6 <__addsf3+0x1a>
    22d2:	1e f4       	brtc	.+6      	; 0x22da <__addsf3+0x1e>
    22d4:	5b c1       	rjmp	.+694    	; 0x258c <__fp_nan>
    22d6:	0e f4       	brtc	.+2      	; 0x22da <__addsf3+0x1e>
    22d8:	e0 95       	com	r30
    22da:	e7 fb       	bst	r30, 7
    22dc:	51 c1       	rjmp	.+674    	; 0x2580 <__fp_inf>

000022de <__addsf3x>:
    22de:	e9 2f       	mov	r30, r25
    22e0:	77 d1       	rcall	.+750    	; 0x25d0 <__fp_split3>
    22e2:	80 f3       	brcs	.-32     	; 0x22c4 <__addsf3+0x8>
    22e4:	ba 17       	cp	r27, r26
    22e6:	62 07       	cpc	r22, r18
    22e8:	73 07       	cpc	r23, r19
    22ea:	84 07       	cpc	r24, r20
    22ec:	95 07       	cpc	r25, r21
    22ee:	18 f0       	brcs	.+6      	; 0x22f6 <__addsf3x+0x18>
    22f0:	71 f4       	brne	.+28     	; 0x230e <__addsf3x+0x30>
    22f2:	9e f5       	brtc	.+102    	; 0x235a <__addsf3x+0x7c>
    22f4:	8f c1       	rjmp	.+798    	; 0x2614 <__fp_zero>
    22f6:	0e f4       	brtc	.+2      	; 0x22fa <__addsf3x+0x1c>
    22f8:	e0 95       	com	r30
    22fa:	0b 2e       	mov	r0, r27
    22fc:	ba 2f       	mov	r27, r26
    22fe:	a0 2d       	mov	r26, r0
    2300:	0b 01       	movw	r0, r22
    2302:	b9 01       	movw	r22, r18
    2304:	90 01       	movw	r18, r0
    2306:	0c 01       	movw	r0, r24
    2308:	ca 01       	movw	r24, r20
    230a:	a0 01       	movw	r20, r0
    230c:	11 24       	eor	r1, r1
    230e:	ff 27       	eor	r31, r31
    2310:	59 1b       	sub	r21, r25
    2312:	99 f0       	breq	.+38     	; 0x233a <__addsf3x+0x5c>
    2314:	59 3f       	cpi	r21, 0xF9	; 249
    2316:	50 f4       	brcc	.+20     	; 0x232c <__addsf3x+0x4e>
    2318:	50 3e       	cpi	r21, 0xE0	; 224
    231a:	68 f1       	brcs	.+90     	; 0x2376 <__addsf3x+0x98>
    231c:	1a 16       	cp	r1, r26
    231e:	f0 40       	sbci	r31, 0x00	; 0
    2320:	a2 2f       	mov	r26, r18
    2322:	23 2f       	mov	r18, r19
    2324:	34 2f       	mov	r19, r20
    2326:	44 27       	eor	r20, r20
    2328:	58 5f       	subi	r21, 0xF8	; 248
    232a:	f3 cf       	rjmp	.-26     	; 0x2312 <__addsf3x+0x34>
    232c:	46 95       	lsr	r20
    232e:	37 95       	ror	r19
    2330:	27 95       	ror	r18
    2332:	a7 95       	ror	r26
    2334:	f0 40       	sbci	r31, 0x00	; 0
    2336:	53 95       	inc	r21
    2338:	c9 f7       	brne	.-14     	; 0x232c <__addsf3x+0x4e>
    233a:	7e f4       	brtc	.+30     	; 0x235a <__addsf3x+0x7c>
    233c:	1f 16       	cp	r1, r31
    233e:	ba 0b       	sbc	r27, r26
    2340:	62 0b       	sbc	r22, r18
    2342:	73 0b       	sbc	r23, r19
    2344:	84 0b       	sbc	r24, r20
    2346:	ba f0       	brmi	.+46     	; 0x2376 <__addsf3x+0x98>
    2348:	91 50       	subi	r25, 0x01	; 1
    234a:	a1 f0       	breq	.+40     	; 0x2374 <__addsf3x+0x96>
    234c:	ff 0f       	add	r31, r31
    234e:	bb 1f       	adc	r27, r27
    2350:	66 1f       	adc	r22, r22
    2352:	77 1f       	adc	r23, r23
    2354:	88 1f       	adc	r24, r24
    2356:	c2 f7       	brpl	.-16     	; 0x2348 <__addsf3x+0x6a>
    2358:	0e c0       	rjmp	.+28     	; 0x2376 <__addsf3x+0x98>
    235a:	ba 0f       	add	r27, r26
    235c:	62 1f       	adc	r22, r18
    235e:	73 1f       	adc	r23, r19
    2360:	84 1f       	adc	r24, r20
    2362:	48 f4       	brcc	.+18     	; 0x2376 <__addsf3x+0x98>
    2364:	87 95       	ror	r24
    2366:	77 95       	ror	r23
    2368:	67 95       	ror	r22
    236a:	b7 95       	ror	r27
    236c:	f7 95       	ror	r31
    236e:	9e 3f       	cpi	r25, 0xFE	; 254
    2370:	08 f0       	brcs	.+2      	; 0x2374 <__addsf3x+0x96>
    2372:	b3 cf       	rjmp	.-154    	; 0x22da <__addsf3+0x1e>
    2374:	93 95       	inc	r25
    2376:	88 0f       	add	r24, r24
    2378:	08 f0       	brcs	.+2      	; 0x237c <__addsf3x+0x9e>
    237a:	99 27       	eor	r25, r25
    237c:	ee 0f       	add	r30, r30
    237e:	97 95       	ror	r25
    2380:	87 95       	ror	r24
    2382:	08 95       	ret

00002384 <__cmpsf2>:
    2384:	d9 d0       	rcall	.+434    	; 0x2538 <__fp_cmp>
    2386:	08 f4       	brcc	.+2      	; 0x238a <__cmpsf2+0x6>
    2388:	81 e0       	ldi	r24, 0x01	; 1
    238a:	08 95       	ret

0000238c <__divsf3>:
    238c:	0c d0       	rcall	.+24     	; 0x23a6 <__divsf3x>
    238e:	0f c1       	rjmp	.+542    	; 0x25ae <__fp_round>
    2390:	07 d1       	rcall	.+526    	; 0x25a0 <__fp_pscB>
    2392:	40 f0       	brcs	.+16     	; 0x23a4 <__divsf3+0x18>
    2394:	fe d0       	rcall	.+508    	; 0x2592 <__fp_pscA>
    2396:	30 f0       	brcs	.+12     	; 0x23a4 <__divsf3+0x18>
    2398:	21 f4       	brne	.+8      	; 0x23a2 <__divsf3+0x16>
    239a:	5f 3f       	cpi	r21, 0xFF	; 255
    239c:	19 f0       	breq	.+6      	; 0x23a4 <__divsf3+0x18>
    239e:	f0 c0       	rjmp	.+480    	; 0x2580 <__fp_inf>
    23a0:	51 11       	cpse	r21, r1
    23a2:	39 c1       	rjmp	.+626    	; 0x2616 <__fp_szero>
    23a4:	f3 c0       	rjmp	.+486    	; 0x258c <__fp_nan>

000023a6 <__divsf3x>:
    23a6:	14 d1       	rcall	.+552    	; 0x25d0 <__fp_split3>
    23a8:	98 f3       	brcs	.-26     	; 0x2390 <__divsf3+0x4>

000023aa <__divsf3_pse>:
    23aa:	99 23       	and	r25, r25
    23ac:	c9 f3       	breq	.-14     	; 0x23a0 <__divsf3+0x14>
    23ae:	55 23       	and	r21, r21
    23b0:	b1 f3       	breq	.-20     	; 0x239e <__divsf3+0x12>
    23b2:	95 1b       	sub	r25, r21
    23b4:	55 0b       	sbc	r21, r21
    23b6:	bb 27       	eor	r27, r27
    23b8:	aa 27       	eor	r26, r26
    23ba:	62 17       	cp	r22, r18
    23bc:	73 07       	cpc	r23, r19
    23be:	84 07       	cpc	r24, r20
    23c0:	38 f0       	brcs	.+14     	; 0x23d0 <__divsf3_pse+0x26>
    23c2:	9f 5f       	subi	r25, 0xFF	; 255
    23c4:	5f 4f       	sbci	r21, 0xFF	; 255
    23c6:	22 0f       	add	r18, r18
    23c8:	33 1f       	adc	r19, r19
    23ca:	44 1f       	adc	r20, r20
    23cc:	aa 1f       	adc	r26, r26
    23ce:	a9 f3       	breq	.-22     	; 0x23ba <__divsf3_pse+0x10>
    23d0:	33 d0       	rcall	.+102    	; 0x2438 <__divsf3_pse+0x8e>
    23d2:	0e 2e       	mov	r0, r30
    23d4:	3a f0       	brmi	.+14     	; 0x23e4 <__divsf3_pse+0x3a>
    23d6:	e0 e8       	ldi	r30, 0x80	; 128
    23d8:	30 d0       	rcall	.+96     	; 0x243a <__divsf3_pse+0x90>
    23da:	91 50       	subi	r25, 0x01	; 1
    23dc:	50 40       	sbci	r21, 0x00	; 0
    23de:	e6 95       	lsr	r30
    23e0:	00 1c       	adc	r0, r0
    23e2:	ca f7       	brpl	.-14     	; 0x23d6 <__divsf3_pse+0x2c>
    23e4:	29 d0       	rcall	.+82     	; 0x2438 <__divsf3_pse+0x8e>
    23e6:	fe 2f       	mov	r31, r30
    23e8:	27 d0       	rcall	.+78     	; 0x2438 <__divsf3_pse+0x8e>
    23ea:	66 0f       	add	r22, r22
    23ec:	77 1f       	adc	r23, r23
    23ee:	88 1f       	adc	r24, r24
    23f0:	bb 1f       	adc	r27, r27
    23f2:	26 17       	cp	r18, r22
    23f4:	37 07       	cpc	r19, r23
    23f6:	48 07       	cpc	r20, r24
    23f8:	ab 07       	cpc	r26, r27
    23fa:	b0 e8       	ldi	r27, 0x80	; 128
    23fc:	09 f0       	breq	.+2      	; 0x2400 <__divsf3_pse+0x56>
    23fe:	bb 0b       	sbc	r27, r27
    2400:	80 2d       	mov	r24, r0
    2402:	bf 01       	movw	r22, r30
    2404:	ff 27       	eor	r31, r31
    2406:	93 58       	subi	r25, 0x83	; 131
    2408:	5f 4f       	sbci	r21, 0xFF	; 255
    240a:	2a f0       	brmi	.+10     	; 0x2416 <__divsf3_pse+0x6c>
    240c:	9e 3f       	cpi	r25, 0xFE	; 254
    240e:	51 05       	cpc	r21, r1
    2410:	68 f0       	brcs	.+26     	; 0x242c <__divsf3_pse+0x82>
    2412:	b6 c0       	rjmp	.+364    	; 0x2580 <__fp_inf>
    2414:	00 c1       	rjmp	.+512    	; 0x2616 <__fp_szero>
    2416:	5f 3f       	cpi	r21, 0xFF	; 255
    2418:	ec f3       	brlt	.-6      	; 0x2414 <__divsf3_pse+0x6a>
    241a:	98 3e       	cpi	r25, 0xE8	; 232
    241c:	dc f3       	brlt	.-10     	; 0x2414 <__divsf3_pse+0x6a>
    241e:	86 95       	lsr	r24
    2420:	77 95       	ror	r23
    2422:	67 95       	ror	r22
    2424:	b7 95       	ror	r27
    2426:	f7 95       	ror	r31
    2428:	9f 5f       	subi	r25, 0xFF	; 255
    242a:	c9 f7       	brne	.-14     	; 0x241e <__divsf3_pse+0x74>
    242c:	88 0f       	add	r24, r24
    242e:	91 1d       	adc	r25, r1
    2430:	96 95       	lsr	r25
    2432:	87 95       	ror	r24
    2434:	97 f9       	bld	r25, 7
    2436:	08 95       	ret
    2438:	e1 e0       	ldi	r30, 0x01	; 1
    243a:	66 0f       	add	r22, r22
    243c:	77 1f       	adc	r23, r23
    243e:	88 1f       	adc	r24, r24
    2440:	bb 1f       	adc	r27, r27
    2442:	62 17       	cp	r22, r18
    2444:	73 07       	cpc	r23, r19
    2446:	84 07       	cpc	r24, r20
    2448:	ba 07       	cpc	r27, r26
    244a:	20 f0       	brcs	.+8      	; 0x2454 <__divsf3_pse+0xaa>
    244c:	62 1b       	sub	r22, r18
    244e:	73 0b       	sbc	r23, r19
    2450:	84 0b       	sbc	r24, r20
    2452:	ba 0b       	sbc	r27, r26
    2454:	ee 1f       	adc	r30, r30
    2456:	88 f7       	brcc	.-30     	; 0x243a <__divsf3_pse+0x90>
    2458:	e0 95       	com	r30
    245a:	08 95       	ret

0000245c <__fixsfsi>:
    245c:	04 d0       	rcall	.+8      	; 0x2466 <__fixunssfsi>
    245e:	68 94       	set
    2460:	b1 11       	cpse	r27, r1
    2462:	d9 c0       	rjmp	.+434    	; 0x2616 <__fp_szero>
    2464:	08 95       	ret

00002466 <__fixunssfsi>:
    2466:	bc d0       	rcall	.+376    	; 0x25e0 <__fp_splitA>
    2468:	88 f0       	brcs	.+34     	; 0x248c <__fixunssfsi+0x26>
    246a:	9f 57       	subi	r25, 0x7F	; 127
    246c:	90 f0       	brcs	.+36     	; 0x2492 <__fixunssfsi+0x2c>
    246e:	b9 2f       	mov	r27, r25
    2470:	99 27       	eor	r25, r25
    2472:	b7 51       	subi	r27, 0x17	; 23
    2474:	a0 f0       	brcs	.+40     	; 0x249e <__fixunssfsi+0x38>
    2476:	d1 f0       	breq	.+52     	; 0x24ac <__fixunssfsi+0x46>
    2478:	66 0f       	add	r22, r22
    247a:	77 1f       	adc	r23, r23
    247c:	88 1f       	adc	r24, r24
    247e:	99 1f       	adc	r25, r25
    2480:	1a f0       	brmi	.+6      	; 0x2488 <__fixunssfsi+0x22>
    2482:	ba 95       	dec	r27
    2484:	c9 f7       	brne	.-14     	; 0x2478 <__fixunssfsi+0x12>
    2486:	12 c0       	rjmp	.+36     	; 0x24ac <__fixunssfsi+0x46>
    2488:	b1 30       	cpi	r27, 0x01	; 1
    248a:	81 f0       	breq	.+32     	; 0x24ac <__fixunssfsi+0x46>
    248c:	c3 d0       	rcall	.+390    	; 0x2614 <__fp_zero>
    248e:	b1 e0       	ldi	r27, 0x01	; 1
    2490:	08 95       	ret
    2492:	c0 c0       	rjmp	.+384    	; 0x2614 <__fp_zero>
    2494:	67 2f       	mov	r22, r23
    2496:	78 2f       	mov	r23, r24
    2498:	88 27       	eor	r24, r24
    249a:	b8 5f       	subi	r27, 0xF8	; 248
    249c:	39 f0       	breq	.+14     	; 0x24ac <__fixunssfsi+0x46>
    249e:	b9 3f       	cpi	r27, 0xF9	; 249
    24a0:	cc f3       	brlt	.-14     	; 0x2494 <__fixunssfsi+0x2e>
    24a2:	86 95       	lsr	r24
    24a4:	77 95       	ror	r23
    24a6:	67 95       	ror	r22
    24a8:	b3 95       	inc	r27
    24aa:	d9 f7       	brne	.-10     	; 0x24a2 <__fixunssfsi+0x3c>
    24ac:	3e f4       	brtc	.+14     	; 0x24bc <__fixunssfsi+0x56>
    24ae:	90 95       	com	r25
    24b0:	80 95       	com	r24
    24b2:	70 95       	com	r23
    24b4:	61 95       	neg	r22
    24b6:	7f 4f       	sbci	r23, 0xFF	; 255
    24b8:	8f 4f       	sbci	r24, 0xFF	; 255
    24ba:	9f 4f       	sbci	r25, 0xFF	; 255
    24bc:	08 95       	ret

000024be <__floatunsisf>:
    24be:	e8 94       	clt
    24c0:	09 c0       	rjmp	.+18     	; 0x24d4 <__floatsisf+0x12>

000024c2 <__floatsisf>:
    24c2:	97 fb       	bst	r25, 7
    24c4:	3e f4       	brtc	.+14     	; 0x24d4 <__floatsisf+0x12>
    24c6:	90 95       	com	r25
    24c8:	80 95       	com	r24
    24ca:	70 95       	com	r23
    24cc:	61 95       	neg	r22
    24ce:	7f 4f       	sbci	r23, 0xFF	; 255
    24d0:	8f 4f       	sbci	r24, 0xFF	; 255
    24d2:	9f 4f       	sbci	r25, 0xFF	; 255
    24d4:	99 23       	and	r25, r25
    24d6:	a9 f0       	breq	.+42     	; 0x2502 <__floatsisf+0x40>
    24d8:	f9 2f       	mov	r31, r25
    24da:	96 e9       	ldi	r25, 0x96	; 150
    24dc:	bb 27       	eor	r27, r27
    24de:	93 95       	inc	r25
    24e0:	f6 95       	lsr	r31
    24e2:	87 95       	ror	r24
    24e4:	77 95       	ror	r23
    24e6:	67 95       	ror	r22
    24e8:	b7 95       	ror	r27
    24ea:	f1 11       	cpse	r31, r1
    24ec:	f8 cf       	rjmp	.-16     	; 0x24de <__floatsisf+0x1c>
    24ee:	fa f4       	brpl	.+62     	; 0x252e <__floatsisf+0x6c>
    24f0:	bb 0f       	add	r27, r27
    24f2:	11 f4       	brne	.+4      	; 0x24f8 <__floatsisf+0x36>
    24f4:	60 ff       	sbrs	r22, 0
    24f6:	1b c0       	rjmp	.+54     	; 0x252e <__floatsisf+0x6c>
    24f8:	6f 5f       	subi	r22, 0xFF	; 255
    24fa:	7f 4f       	sbci	r23, 0xFF	; 255
    24fc:	8f 4f       	sbci	r24, 0xFF	; 255
    24fe:	9f 4f       	sbci	r25, 0xFF	; 255
    2500:	16 c0       	rjmp	.+44     	; 0x252e <__floatsisf+0x6c>
    2502:	88 23       	and	r24, r24
    2504:	11 f0       	breq	.+4      	; 0x250a <__floatsisf+0x48>
    2506:	96 e9       	ldi	r25, 0x96	; 150
    2508:	11 c0       	rjmp	.+34     	; 0x252c <__floatsisf+0x6a>
    250a:	77 23       	and	r23, r23
    250c:	21 f0       	breq	.+8      	; 0x2516 <__floatsisf+0x54>
    250e:	9e e8       	ldi	r25, 0x8E	; 142
    2510:	87 2f       	mov	r24, r23
    2512:	76 2f       	mov	r23, r22
    2514:	05 c0       	rjmp	.+10     	; 0x2520 <__floatsisf+0x5e>
    2516:	66 23       	and	r22, r22
    2518:	71 f0       	breq	.+28     	; 0x2536 <__floatsisf+0x74>
    251a:	96 e8       	ldi	r25, 0x86	; 134
    251c:	86 2f       	mov	r24, r22
    251e:	70 e0       	ldi	r23, 0x00	; 0
    2520:	60 e0       	ldi	r22, 0x00	; 0
    2522:	2a f0       	brmi	.+10     	; 0x252e <__floatsisf+0x6c>
    2524:	9a 95       	dec	r25
    2526:	66 0f       	add	r22, r22
    2528:	77 1f       	adc	r23, r23
    252a:	88 1f       	adc	r24, r24
    252c:	da f7       	brpl	.-10     	; 0x2524 <__floatsisf+0x62>
    252e:	88 0f       	add	r24, r24
    2530:	96 95       	lsr	r25
    2532:	87 95       	ror	r24
    2534:	97 f9       	bld	r25, 7
    2536:	08 95       	ret

00002538 <__fp_cmp>:
    2538:	99 0f       	add	r25, r25
    253a:	00 08       	sbc	r0, r0
    253c:	55 0f       	add	r21, r21
    253e:	aa 0b       	sbc	r26, r26
    2540:	e0 e8       	ldi	r30, 0x80	; 128
    2542:	fe ef       	ldi	r31, 0xFE	; 254
    2544:	16 16       	cp	r1, r22
    2546:	17 06       	cpc	r1, r23
    2548:	e8 07       	cpc	r30, r24
    254a:	f9 07       	cpc	r31, r25
    254c:	c0 f0       	brcs	.+48     	; 0x257e <__fp_cmp+0x46>
    254e:	12 16       	cp	r1, r18
    2550:	13 06       	cpc	r1, r19
    2552:	e4 07       	cpc	r30, r20
    2554:	f5 07       	cpc	r31, r21
    2556:	98 f0       	brcs	.+38     	; 0x257e <__fp_cmp+0x46>
    2558:	62 1b       	sub	r22, r18
    255a:	73 0b       	sbc	r23, r19
    255c:	84 0b       	sbc	r24, r20
    255e:	95 0b       	sbc	r25, r21
    2560:	39 f4       	brne	.+14     	; 0x2570 <__fp_cmp+0x38>
    2562:	0a 26       	eor	r0, r26
    2564:	61 f0       	breq	.+24     	; 0x257e <__fp_cmp+0x46>
    2566:	23 2b       	or	r18, r19
    2568:	24 2b       	or	r18, r20
    256a:	25 2b       	or	r18, r21
    256c:	21 f4       	brne	.+8      	; 0x2576 <__fp_cmp+0x3e>
    256e:	08 95       	ret
    2570:	0a 26       	eor	r0, r26
    2572:	09 f4       	brne	.+2      	; 0x2576 <__fp_cmp+0x3e>
    2574:	a1 40       	sbci	r26, 0x01	; 1
    2576:	a6 95       	lsr	r26
    2578:	8f ef       	ldi	r24, 0xFF	; 255
    257a:	81 1d       	adc	r24, r1
    257c:	81 1d       	adc	r24, r1
    257e:	08 95       	ret

00002580 <__fp_inf>:
    2580:	97 f9       	bld	r25, 7
    2582:	9f 67       	ori	r25, 0x7F	; 127
    2584:	80 e8       	ldi	r24, 0x80	; 128
    2586:	70 e0       	ldi	r23, 0x00	; 0
    2588:	60 e0       	ldi	r22, 0x00	; 0
    258a:	08 95       	ret

0000258c <__fp_nan>:
    258c:	9f ef       	ldi	r25, 0xFF	; 255
    258e:	80 ec       	ldi	r24, 0xC0	; 192
    2590:	08 95       	ret

00002592 <__fp_pscA>:
    2592:	00 24       	eor	r0, r0
    2594:	0a 94       	dec	r0
    2596:	16 16       	cp	r1, r22
    2598:	17 06       	cpc	r1, r23
    259a:	18 06       	cpc	r1, r24
    259c:	09 06       	cpc	r0, r25
    259e:	08 95       	ret

000025a0 <__fp_pscB>:
    25a0:	00 24       	eor	r0, r0
    25a2:	0a 94       	dec	r0
    25a4:	12 16       	cp	r1, r18
    25a6:	13 06       	cpc	r1, r19
    25a8:	14 06       	cpc	r1, r20
    25aa:	05 06       	cpc	r0, r21
    25ac:	08 95       	ret

000025ae <__fp_round>:
    25ae:	09 2e       	mov	r0, r25
    25b0:	03 94       	inc	r0
    25b2:	00 0c       	add	r0, r0
    25b4:	11 f4       	brne	.+4      	; 0x25ba <__fp_round+0xc>
    25b6:	88 23       	and	r24, r24
    25b8:	52 f0       	brmi	.+20     	; 0x25ce <__fp_round+0x20>
    25ba:	bb 0f       	add	r27, r27
    25bc:	40 f4       	brcc	.+16     	; 0x25ce <__fp_round+0x20>
    25be:	bf 2b       	or	r27, r31
    25c0:	11 f4       	brne	.+4      	; 0x25c6 <__fp_round+0x18>
    25c2:	60 ff       	sbrs	r22, 0
    25c4:	04 c0       	rjmp	.+8      	; 0x25ce <__fp_round+0x20>
    25c6:	6f 5f       	subi	r22, 0xFF	; 255
    25c8:	7f 4f       	sbci	r23, 0xFF	; 255
    25ca:	8f 4f       	sbci	r24, 0xFF	; 255
    25cc:	9f 4f       	sbci	r25, 0xFF	; 255
    25ce:	08 95       	ret

000025d0 <__fp_split3>:
    25d0:	57 fd       	sbrc	r21, 7
    25d2:	90 58       	subi	r25, 0x80	; 128
    25d4:	44 0f       	add	r20, r20
    25d6:	55 1f       	adc	r21, r21
    25d8:	59 f0       	breq	.+22     	; 0x25f0 <__fp_splitA+0x10>
    25da:	5f 3f       	cpi	r21, 0xFF	; 255
    25dc:	71 f0       	breq	.+28     	; 0x25fa <__fp_splitA+0x1a>
    25de:	47 95       	ror	r20

000025e0 <__fp_splitA>:
    25e0:	88 0f       	add	r24, r24
    25e2:	97 fb       	bst	r25, 7
    25e4:	99 1f       	adc	r25, r25
    25e6:	61 f0       	breq	.+24     	; 0x2600 <__fp_splitA+0x20>
    25e8:	9f 3f       	cpi	r25, 0xFF	; 255
    25ea:	79 f0       	breq	.+30     	; 0x260a <__fp_splitA+0x2a>
    25ec:	87 95       	ror	r24
    25ee:	08 95       	ret
    25f0:	12 16       	cp	r1, r18
    25f2:	13 06       	cpc	r1, r19
    25f4:	14 06       	cpc	r1, r20
    25f6:	55 1f       	adc	r21, r21
    25f8:	f2 cf       	rjmp	.-28     	; 0x25de <__fp_split3+0xe>
    25fa:	46 95       	lsr	r20
    25fc:	f1 df       	rcall	.-30     	; 0x25e0 <__fp_splitA>
    25fe:	08 c0       	rjmp	.+16     	; 0x2610 <__fp_splitA+0x30>
    2600:	16 16       	cp	r1, r22
    2602:	17 06       	cpc	r1, r23
    2604:	18 06       	cpc	r1, r24
    2606:	99 1f       	adc	r25, r25
    2608:	f1 cf       	rjmp	.-30     	; 0x25ec <__fp_splitA+0xc>
    260a:	86 95       	lsr	r24
    260c:	71 05       	cpc	r23, r1
    260e:	61 05       	cpc	r22, r1
    2610:	08 94       	sec
    2612:	08 95       	ret

00002614 <__fp_zero>:
    2614:	e8 94       	clt

00002616 <__fp_szero>:
    2616:	bb 27       	eor	r27, r27
    2618:	66 27       	eor	r22, r22
    261a:	77 27       	eor	r23, r23
    261c:	cb 01       	movw	r24, r22
    261e:	97 f9       	bld	r25, 7
    2620:	08 95       	ret

00002622 <__mulsf3>:
    2622:	0b d0       	rcall	.+22     	; 0x263a <__mulsf3x>
    2624:	c4 cf       	rjmp	.-120    	; 0x25ae <__fp_round>
    2626:	b5 df       	rcall	.-150    	; 0x2592 <__fp_pscA>
    2628:	28 f0       	brcs	.+10     	; 0x2634 <__mulsf3+0x12>
    262a:	ba df       	rcall	.-140    	; 0x25a0 <__fp_pscB>
    262c:	18 f0       	brcs	.+6      	; 0x2634 <__mulsf3+0x12>
    262e:	95 23       	and	r25, r21
    2630:	09 f0       	breq	.+2      	; 0x2634 <__mulsf3+0x12>
    2632:	a6 cf       	rjmp	.-180    	; 0x2580 <__fp_inf>
    2634:	ab cf       	rjmp	.-170    	; 0x258c <__fp_nan>
    2636:	11 24       	eor	r1, r1
    2638:	ee cf       	rjmp	.-36     	; 0x2616 <__fp_szero>

0000263a <__mulsf3x>:
    263a:	ca df       	rcall	.-108    	; 0x25d0 <__fp_split3>
    263c:	a0 f3       	brcs	.-24     	; 0x2626 <__mulsf3+0x4>

0000263e <__mulsf3_pse>:
    263e:	95 9f       	mul	r25, r21
    2640:	d1 f3       	breq	.-12     	; 0x2636 <__mulsf3+0x14>
    2642:	95 0f       	add	r25, r21
    2644:	50 e0       	ldi	r21, 0x00	; 0
    2646:	55 1f       	adc	r21, r21
    2648:	62 9f       	mul	r22, r18
    264a:	f0 01       	movw	r30, r0
    264c:	72 9f       	mul	r23, r18
    264e:	bb 27       	eor	r27, r27
    2650:	f0 0d       	add	r31, r0
    2652:	b1 1d       	adc	r27, r1
    2654:	63 9f       	mul	r22, r19
    2656:	aa 27       	eor	r26, r26
    2658:	f0 0d       	add	r31, r0
    265a:	b1 1d       	adc	r27, r1
    265c:	aa 1f       	adc	r26, r26
    265e:	64 9f       	mul	r22, r20
    2660:	66 27       	eor	r22, r22
    2662:	b0 0d       	add	r27, r0
    2664:	a1 1d       	adc	r26, r1
    2666:	66 1f       	adc	r22, r22
    2668:	82 9f       	mul	r24, r18
    266a:	22 27       	eor	r18, r18
    266c:	b0 0d       	add	r27, r0
    266e:	a1 1d       	adc	r26, r1
    2670:	62 1f       	adc	r22, r18
    2672:	73 9f       	mul	r23, r19
    2674:	b0 0d       	add	r27, r0
    2676:	a1 1d       	adc	r26, r1
    2678:	62 1f       	adc	r22, r18
    267a:	83 9f       	mul	r24, r19
    267c:	a0 0d       	add	r26, r0
    267e:	61 1d       	adc	r22, r1
    2680:	22 1f       	adc	r18, r18
    2682:	74 9f       	mul	r23, r20
    2684:	33 27       	eor	r19, r19
    2686:	a0 0d       	add	r26, r0
    2688:	61 1d       	adc	r22, r1
    268a:	23 1f       	adc	r18, r19
    268c:	84 9f       	mul	r24, r20
    268e:	60 0d       	add	r22, r0
    2690:	21 1d       	adc	r18, r1
    2692:	82 2f       	mov	r24, r18
    2694:	76 2f       	mov	r23, r22
    2696:	6a 2f       	mov	r22, r26
    2698:	11 24       	eor	r1, r1
    269a:	9f 57       	subi	r25, 0x7F	; 127
    269c:	50 40       	sbci	r21, 0x00	; 0
    269e:	8a f0       	brmi	.+34     	; 0x26c2 <__mulsf3_pse+0x84>
    26a0:	e1 f0       	breq	.+56     	; 0x26da <__mulsf3_pse+0x9c>
    26a2:	88 23       	and	r24, r24
    26a4:	4a f0       	brmi	.+18     	; 0x26b8 <__mulsf3_pse+0x7a>
    26a6:	ee 0f       	add	r30, r30
    26a8:	ff 1f       	adc	r31, r31
    26aa:	bb 1f       	adc	r27, r27
    26ac:	66 1f       	adc	r22, r22
    26ae:	77 1f       	adc	r23, r23
    26b0:	88 1f       	adc	r24, r24
    26b2:	91 50       	subi	r25, 0x01	; 1
    26b4:	50 40       	sbci	r21, 0x00	; 0
    26b6:	a9 f7       	brne	.-22     	; 0x26a2 <__mulsf3_pse+0x64>
    26b8:	9e 3f       	cpi	r25, 0xFE	; 254
    26ba:	51 05       	cpc	r21, r1
    26bc:	70 f0       	brcs	.+28     	; 0x26da <__mulsf3_pse+0x9c>
    26be:	60 cf       	rjmp	.-320    	; 0x2580 <__fp_inf>
    26c0:	aa cf       	rjmp	.-172    	; 0x2616 <__fp_szero>
    26c2:	5f 3f       	cpi	r21, 0xFF	; 255
    26c4:	ec f3       	brlt	.-6      	; 0x26c0 <__mulsf3_pse+0x82>
    26c6:	98 3e       	cpi	r25, 0xE8	; 232
    26c8:	dc f3       	brlt	.-10     	; 0x26c0 <__mulsf3_pse+0x82>
    26ca:	86 95       	lsr	r24
    26cc:	77 95       	ror	r23
    26ce:	67 95       	ror	r22
    26d0:	b7 95       	ror	r27
    26d2:	f7 95       	ror	r31
    26d4:	e7 95       	ror	r30
    26d6:	9f 5f       	subi	r25, 0xFF	; 255
    26d8:	c1 f7       	brne	.-16     	; 0x26ca <__mulsf3_pse+0x8c>
    26da:	fe 2b       	or	r31, r30
    26dc:	88 0f       	add	r24, r24
    26de:	91 1d       	adc	r25, r1
    26e0:	96 95       	lsr	r25
    26e2:	87 95       	ror	r24
    26e4:	97 f9       	bld	r25, 7
    26e6:	08 95       	ret

000026e8 <pow>:
    26e8:	fa 01       	movw	r30, r20
    26ea:	ee 0f       	add	r30, r30
    26ec:	ff 1f       	adc	r31, r31
    26ee:	30 96       	adiw	r30, 0x00	; 0
    26f0:	21 05       	cpc	r18, r1
    26f2:	31 05       	cpc	r19, r1
    26f4:	99 f1       	breq	.+102    	; 0x275c <pow+0x74>
    26f6:	61 15       	cp	r22, r1
    26f8:	71 05       	cpc	r23, r1
    26fa:	61 f4       	brne	.+24     	; 0x2714 <pow+0x2c>
    26fc:	80 38       	cpi	r24, 0x80	; 128
    26fe:	bf e3       	ldi	r27, 0x3F	; 63
    2700:	9b 07       	cpc	r25, r27
    2702:	49 f1       	breq	.+82     	; 0x2756 <pow+0x6e>
    2704:	68 94       	set
    2706:	90 38       	cpi	r25, 0x80	; 128
    2708:	81 05       	cpc	r24, r1
    270a:	61 f0       	breq	.+24     	; 0x2724 <pow+0x3c>
    270c:	80 38       	cpi	r24, 0x80	; 128
    270e:	bf ef       	ldi	r27, 0xFF	; 255
    2710:	9b 07       	cpc	r25, r27
    2712:	41 f0       	breq	.+16     	; 0x2724 <pow+0x3c>
    2714:	99 23       	and	r25, r25
    2716:	42 f5       	brpl	.+80     	; 0x2768 <pow+0x80>
    2718:	ff 3f       	cpi	r31, 0xFF	; 255
    271a:	e1 05       	cpc	r30, r1
    271c:	31 05       	cpc	r19, r1
    271e:	21 05       	cpc	r18, r1
    2720:	11 f1       	breq	.+68     	; 0x2766 <pow+0x7e>
    2722:	e8 94       	clt
    2724:	08 94       	sec
    2726:	e7 95       	ror	r30
    2728:	d9 01       	movw	r26, r18
    272a:	aa 23       	and	r26, r26
    272c:	29 f4       	brne	.+10     	; 0x2738 <pow+0x50>
    272e:	ab 2f       	mov	r26, r27
    2730:	be 2f       	mov	r27, r30
    2732:	f8 5f       	subi	r31, 0xF8	; 248
    2734:	d0 f3       	brcs	.-12     	; 0x272a <pow+0x42>
    2736:	10 c0       	rjmp	.+32     	; 0x2758 <pow+0x70>
    2738:	ff 5f       	subi	r31, 0xFF	; 255
    273a:	70 f4       	brcc	.+28     	; 0x2758 <pow+0x70>
    273c:	a6 95       	lsr	r26
    273e:	e0 f7       	brcc	.-8      	; 0x2738 <pow+0x50>
    2740:	f7 39       	cpi	r31, 0x97	; 151
    2742:	50 f0       	brcs	.+20     	; 0x2758 <pow+0x70>
    2744:	19 f0       	breq	.+6      	; 0x274c <pow+0x64>
    2746:	ff 3a       	cpi	r31, 0xAF	; 175
    2748:	38 f4       	brcc	.+14     	; 0x2758 <pow+0x70>
    274a:	9f 77       	andi	r25, 0x7F	; 127
    274c:	9f 93       	push	r25
    274e:	0c d0       	rcall	.+24     	; 0x2768 <pow+0x80>
    2750:	0f 90       	pop	r0
    2752:	07 fc       	sbrc	r0, 7
    2754:	90 58       	subi	r25, 0x80	; 128
    2756:	08 95       	ret
    2758:	3e f0       	brts	.+14     	; 0x2768 <pow+0x80>
    275a:	18 cf       	rjmp	.-464    	; 0x258c <__fp_nan>
    275c:	60 e0       	ldi	r22, 0x00	; 0
    275e:	70 e0       	ldi	r23, 0x00	; 0
    2760:	80 e8       	ldi	r24, 0x80	; 128
    2762:	9f e3       	ldi	r25, 0x3F	; 63
    2764:	08 95       	ret
    2766:	4f e7       	ldi	r20, 0x7F	; 127
    2768:	9f 77       	andi	r25, 0x7F	; 127
    276a:	5f 93       	push	r21
    276c:	4f 93       	push	r20
    276e:	3f 93       	push	r19
    2770:	2f 93       	push	r18
    2772:	9e d0       	rcall	.+316    	; 0x28b0 <log>
    2774:	2f 91       	pop	r18
    2776:	3f 91       	pop	r19
    2778:	4f 91       	pop	r20
    277a:	5f 91       	pop	r21
    277c:	52 df       	rcall	.-348    	; 0x2622 <__mulsf3>
    277e:	05 c0       	rjmp	.+10     	; 0x278a <exp>
    2780:	19 f4       	brne	.+6      	; 0x2788 <pow+0xa0>
    2782:	0e f0       	brts	.+2      	; 0x2786 <pow+0x9e>
    2784:	fd ce       	rjmp	.-518    	; 0x2580 <__fp_inf>
    2786:	46 cf       	rjmp	.-372    	; 0x2614 <__fp_zero>
    2788:	01 cf       	rjmp	.-510    	; 0x258c <__fp_nan>

0000278a <exp>:
    278a:	2a df       	rcall	.-428    	; 0x25e0 <__fp_splitA>
    278c:	c8 f3       	brcs	.-14     	; 0x2780 <pow+0x98>
    278e:	96 38       	cpi	r25, 0x86	; 134
    2790:	c0 f7       	brcc	.-16     	; 0x2782 <pow+0x9a>
    2792:	07 f8       	bld	r0, 7
    2794:	0f 92       	push	r0
    2796:	e8 94       	clt
    2798:	2b e3       	ldi	r18, 0x3B	; 59
    279a:	3a ea       	ldi	r19, 0xAA	; 170
    279c:	48 eb       	ldi	r20, 0xB8	; 184
    279e:	5f e7       	ldi	r21, 0x7F	; 127
    27a0:	4e df       	rcall	.-356    	; 0x263e <__mulsf3_pse>
    27a2:	0f 92       	push	r0
    27a4:	0f 92       	push	r0
    27a6:	0f 92       	push	r0
    27a8:	4d b7       	in	r20, 0x3d	; 61
    27aa:	5e b7       	in	r21, 0x3e	; 62
    27ac:	0f 92       	push	r0
    27ae:	c0 d0       	rcall	.+384    	; 0x2930 <modf>
    27b0:	ec e8       	ldi	r30, 0x8C	; 140
    27b2:	f0 e0       	ldi	r31, 0x00	; 0
    27b4:	16 d0       	rcall	.+44     	; 0x27e2 <__fp_powser>
    27b6:	4f 91       	pop	r20
    27b8:	5f 91       	pop	r21
    27ba:	ef 91       	pop	r30
    27bc:	ff 91       	pop	r31
    27be:	e5 95       	asr	r30
    27c0:	ee 1f       	adc	r30, r30
    27c2:	ff 1f       	adc	r31, r31
    27c4:	49 f0       	breq	.+18     	; 0x27d8 <exp+0x4e>
    27c6:	fe 57       	subi	r31, 0x7E	; 126
    27c8:	e0 68       	ori	r30, 0x80	; 128
    27ca:	44 27       	eor	r20, r20
    27cc:	ee 0f       	add	r30, r30
    27ce:	44 1f       	adc	r20, r20
    27d0:	fa 95       	dec	r31
    27d2:	e1 f7       	brne	.-8      	; 0x27cc <exp+0x42>
    27d4:	41 95       	neg	r20
    27d6:	55 0b       	sbc	r21, r21
    27d8:	32 d0       	rcall	.+100    	; 0x283e <ldexp>
    27da:	0f 90       	pop	r0
    27dc:	07 fe       	sbrs	r0, 7
    27de:	26 c0       	rjmp	.+76     	; 0x282c <inverse>
    27e0:	08 95       	ret

000027e2 <__fp_powser>:
    27e2:	df 93       	push	r29
    27e4:	cf 93       	push	r28
    27e6:	1f 93       	push	r17
    27e8:	0f 93       	push	r16
    27ea:	ff 92       	push	r15
    27ec:	ef 92       	push	r14
    27ee:	df 92       	push	r13
    27f0:	7b 01       	movw	r14, r22
    27f2:	8c 01       	movw	r16, r24
    27f4:	68 94       	set
    27f6:	05 c0       	rjmp	.+10     	; 0x2802 <__fp_powser+0x20>
    27f8:	da 2e       	mov	r13, r26
    27fa:	ef 01       	movw	r28, r30
    27fc:	1e df       	rcall	.-452    	; 0x263a <__mulsf3x>
    27fe:	fe 01       	movw	r30, r28
    2800:	e8 94       	clt
    2802:	a5 91       	lpm	r26, Z+
    2804:	25 91       	lpm	r18, Z+
    2806:	35 91       	lpm	r19, Z+
    2808:	45 91       	lpm	r20, Z+
    280a:	55 91       	lpm	r21, Z+
    280c:	ae f3       	brts	.-22     	; 0x27f8 <__fp_powser+0x16>
    280e:	ef 01       	movw	r28, r30
    2810:	66 dd       	rcall	.-1332   	; 0x22de <__addsf3x>
    2812:	fe 01       	movw	r30, r28
    2814:	97 01       	movw	r18, r14
    2816:	a8 01       	movw	r20, r16
    2818:	da 94       	dec	r13
    281a:	79 f7       	brne	.-34     	; 0x27fa <__fp_powser+0x18>
    281c:	df 90       	pop	r13
    281e:	ef 90       	pop	r14
    2820:	ff 90       	pop	r15
    2822:	0f 91       	pop	r16
    2824:	1f 91       	pop	r17
    2826:	cf 91       	pop	r28
    2828:	df 91       	pop	r29
    282a:	08 95       	ret

0000282c <inverse>:
    282c:	9b 01       	movw	r18, r22
    282e:	ac 01       	movw	r20, r24
    2830:	60 e0       	ldi	r22, 0x00	; 0
    2832:	70 e0       	ldi	r23, 0x00	; 0
    2834:	80 e8       	ldi	r24, 0x80	; 128
    2836:	9f e3       	ldi	r25, 0x3F	; 63
    2838:	a9 cd       	rjmp	.-1198   	; 0x238c <__divsf3>
    283a:	a2 ce       	rjmp	.-700    	; 0x2580 <__fp_inf>
    283c:	ac c0       	rjmp	.+344    	; 0x2996 <__fp_mpack>

0000283e <ldexp>:
    283e:	d0 de       	rcall	.-608    	; 0x25e0 <__fp_splitA>
    2840:	e8 f3       	brcs	.-6      	; 0x283c <inverse+0x10>
    2842:	99 23       	and	r25, r25
    2844:	d9 f3       	breq	.-10     	; 0x283c <inverse+0x10>
    2846:	94 0f       	add	r25, r20
    2848:	51 1d       	adc	r21, r1
    284a:	bb f3       	brvs	.-18     	; 0x283a <inverse+0xe>
    284c:	91 50       	subi	r25, 0x01	; 1
    284e:	50 40       	sbci	r21, 0x00	; 0
    2850:	94 f0       	brlt	.+36     	; 0x2876 <ldexp+0x38>
    2852:	59 f0       	breq	.+22     	; 0x286a <ldexp+0x2c>
    2854:	88 23       	and	r24, r24
    2856:	32 f0       	brmi	.+12     	; 0x2864 <ldexp+0x26>
    2858:	66 0f       	add	r22, r22
    285a:	77 1f       	adc	r23, r23
    285c:	88 1f       	adc	r24, r24
    285e:	91 50       	subi	r25, 0x01	; 1
    2860:	50 40       	sbci	r21, 0x00	; 0
    2862:	c1 f7       	brne	.-16     	; 0x2854 <ldexp+0x16>
    2864:	9e 3f       	cpi	r25, 0xFE	; 254
    2866:	51 05       	cpc	r21, r1
    2868:	44 f7       	brge	.-48     	; 0x283a <inverse+0xe>
    286a:	88 0f       	add	r24, r24
    286c:	91 1d       	adc	r25, r1
    286e:	96 95       	lsr	r25
    2870:	87 95       	ror	r24
    2872:	97 f9       	bld	r25, 7
    2874:	08 95       	ret
    2876:	5f 3f       	cpi	r21, 0xFF	; 255
    2878:	ac f0       	brlt	.+42     	; 0x28a4 <ldexp+0x66>
    287a:	98 3e       	cpi	r25, 0xE8	; 232
    287c:	9c f0       	brlt	.+38     	; 0x28a4 <ldexp+0x66>
    287e:	bb 27       	eor	r27, r27
    2880:	86 95       	lsr	r24
    2882:	77 95       	ror	r23
    2884:	67 95       	ror	r22
    2886:	b7 95       	ror	r27
    2888:	08 f4       	brcc	.+2      	; 0x288c <ldexp+0x4e>
    288a:	b1 60       	ori	r27, 0x01	; 1
    288c:	93 95       	inc	r25
    288e:	c1 f7       	brne	.-16     	; 0x2880 <ldexp+0x42>
    2890:	bb 0f       	add	r27, r27
    2892:	58 f7       	brcc	.-42     	; 0x286a <ldexp+0x2c>
    2894:	11 f4       	brne	.+4      	; 0x289a <ldexp+0x5c>
    2896:	60 ff       	sbrs	r22, 0
    2898:	e8 cf       	rjmp	.-48     	; 0x286a <ldexp+0x2c>
    289a:	6f 5f       	subi	r22, 0xFF	; 255
    289c:	7f 4f       	sbci	r23, 0xFF	; 255
    289e:	8f 4f       	sbci	r24, 0xFF	; 255
    28a0:	9f 4f       	sbci	r25, 0xFF	; 255
    28a2:	e3 cf       	rjmp	.-58     	; 0x286a <ldexp+0x2c>
    28a4:	b8 ce       	rjmp	.-656    	; 0x2616 <__fp_szero>
    28a6:	0e f0       	brts	.+2      	; 0x28aa <ldexp+0x6c>
    28a8:	76 c0       	rjmp	.+236    	; 0x2996 <__fp_mpack>
    28aa:	70 ce       	rjmp	.-800    	; 0x258c <__fp_nan>
    28ac:	68 94       	set
    28ae:	68 ce       	rjmp	.-816    	; 0x2580 <__fp_inf>

000028b0 <log>:
    28b0:	97 de       	rcall	.-722    	; 0x25e0 <__fp_splitA>
    28b2:	c8 f3       	brcs	.-14     	; 0x28a6 <ldexp+0x68>
    28b4:	99 23       	and	r25, r25
    28b6:	d1 f3       	breq	.-12     	; 0x28ac <ldexp+0x6e>
    28b8:	c6 f3       	brts	.-16     	; 0x28aa <ldexp+0x6c>
    28ba:	df 93       	push	r29
    28bc:	cf 93       	push	r28
    28be:	1f 93       	push	r17
    28c0:	0f 93       	push	r16
    28c2:	ff 92       	push	r15
    28c4:	c9 2f       	mov	r28, r25
    28c6:	dd 27       	eor	r29, r29
    28c8:	88 23       	and	r24, r24
    28ca:	2a f0       	brmi	.+10     	; 0x28d6 <log+0x26>
    28cc:	21 97       	sbiw	r28, 0x01	; 1
    28ce:	66 0f       	add	r22, r22
    28d0:	77 1f       	adc	r23, r23
    28d2:	88 1f       	adc	r24, r24
    28d4:	da f7       	brpl	.-10     	; 0x28cc <log+0x1c>
    28d6:	20 e0       	ldi	r18, 0x00	; 0
    28d8:	30 e0       	ldi	r19, 0x00	; 0
    28da:	40 e8       	ldi	r20, 0x80	; 128
    28dc:	5f eb       	ldi	r21, 0xBF	; 191
    28de:	9f e3       	ldi	r25, 0x3F	; 63
    28e0:	88 39       	cpi	r24, 0x98	; 152
    28e2:	20 f0       	brcs	.+8      	; 0x28ec <log+0x3c>
    28e4:	80 3e       	cpi	r24, 0xE0	; 224
    28e6:	30 f0       	brcs	.+12     	; 0x28f4 <log+0x44>
    28e8:	21 96       	adiw	r28, 0x01	; 1
    28ea:	8f 77       	andi	r24, 0x7F	; 127
    28ec:	e7 dc       	rcall	.-1586   	; 0x22bc <__addsf3>
    28ee:	e4 eb       	ldi	r30, 0xB4	; 180
    28f0:	f0 e0       	ldi	r31, 0x00	; 0
    28f2:	03 c0       	rjmp	.+6      	; 0x28fa <log+0x4a>
    28f4:	e3 dc       	rcall	.-1594   	; 0x22bc <__addsf3>
    28f6:	e1 ee       	ldi	r30, 0xE1	; 225
    28f8:	f0 e0       	ldi	r31, 0x00	; 0
    28fa:	73 df       	rcall	.-282    	; 0x27e2 <__fp_powser>
    28fc:	8b 01       	movw	r16, r22
    28fe:	be 01       	movw	r22, r28
    2900:	ec 01       	movw	r28, r24
    2902:	fb 2e       	mov	r15, r27
    2904:	6f 57       	subi	r22, 0x7F	; 127
    2906:	71 09       	sbc	r23, r1
    2908:	75 95       	asr	r23
    290a:	77 1f       	adc	r23, r23
    290c:	88 0b       	sbc	r24, r24
    290e:	99 0b       	sbc	r25, r25
    2910:	d8 dd       	rcall	.-1104   	; 0x24c2 <__floatsisf>
    2912:	28 e1       	ldi	r18, 0x18	; 24
    2914:	32 e7       	ldi	r19, 0x72	; 114
    2916:	41 e3       	ldi	r20, 0x31	; 49
    2918:	5f e3       	ldi	r21, 0x3F	; 63
    291a:	8f de       	rcall	.-738    	; 0x263a <__mulsf3x>
    291c:	af 2d       	mov	r26, r15
    291e:	98 01       	movw	r18, r16
    2920:	ae 01       	movw	r20, r28
    2922:	ff 90       	pop	r15
    2924:	0f 91       	pop	r16
    2926:	1f 91       	pop	r17
    2928:	cf 91       	pop	r28
    292a:	df 91       	pop	r29
    292c:	d8 dc       	rcall	.-1616   	; 0x22de <__addsf3x>
    292e:	3f ce       	rjmp	.-898    	; 0x25ae <__fp_round>

00002930 <modf>:
    2930:	fa 01       	movw	r30, r20
    2932:	dc 01       	movw	r26, r24
    2934:	aa 0f       	add	r26, r26
    2936:	bb 1f       	adc	r27, r27
    2938:	9b 01       	movw	r18, r22
    293a:	ac 01       	movw	r20, r24
    293c:	bf 57       	subi	r27, 0x7F	; 127
    293e:	28 f4       	brcc	.+10     	; 0x294a <modf+0x1a>
    2940:	22 27       	eor	r18, r18
    2942:	33 27       	eor	r19, r19
    2944:	44 27       	eor	r20, r20
    2946:	50 78       	andi	r21, 0x80	; 128
    2948:	1f c0       	rjmp	.+62     	; 0x2988 <modf+0x58>
    294a:	b7 51       	subi	r27, 0x17	; 23
    294c:	88 f4       	brcc	.+34     	; 0x2970 <modf+0x40>
    294e:	ab 2f       	mov	r26, r27
    2950:	00 24       	eor	r0, r0
    2952:	46 95       	lsr	r20
    2954:	37 95       	ror	r19
    2956:	27 95       	ror	r18
    2958:	01 1c       	adc	r0, r1
    295a:	a3 95       	inc	r26
    295c:	d2 f3       	brmi	.-12     	; 0x2952 <modf+0x22>
    295e:	00 20       	and	r0, r0
    2960:	69 f0       	breq	.+26     	; 0x297c <modf+0x4c>
    2962:	22 0f       	add	r18, r18
    2964:	33 1f       	adc	r19, r19
    2966:	44 1f       	adc	r20, r20
    2968:	b3 95       	inc	r27
    296a:	da f3       	brmi	.-10     	; 0x2962 <modf+0x32>
    296c:	0d d0       	rcall	.+26     	; 0x2988 <modf+0x58>
    296e:	a5 cc       	rjmp	.-1718   	; 0x22ba <__subsf3>
    2970:	61 30       	cpi	r22, 0x01	; 1
    2972:	71 05       	cpc	r23, r1
    2974:	a0 e8       	ldi	r26, 0x80	; 128
    2976:	8a 07       	cpc	r24, r26
    2978:	b9 46       	sbci	r27, 0x69	; 105
    297a:	30 f4       	brcc	.+12     	; 0x2988 <modf+0x58>
    297c:	9b 01       	movw	r18, r22
    297e:	ac 01       	movw	r20, r24
    2980:	66 27       	eor	r22, r22
    2982:	77 27       	eor	r23, r23
    2984:	88 27       	eor	r24, r24
    2986:	90 78       	andi	r25, 0x80	; 128
    2988:	30 96       	adiw	r30, 0x00	; 0
    298a:	21 f0       	breq	.+8      	; 0x2994 <modf+0x64>
    298c:	20 83       	st	Z, r18
    298e:	31 83       	std	Z+1, r19	; 0x01
    2990:	42 83       	std	Z+2, r20	; 0x02
    2992:	53 83       	std	Z+3, r21	; 0x03
    2994:	08 95       	ret

00002996 <__fp_mpack>:
    2996:	9f 3f       	cpi	r25, 0xFF	; 255
    2998:	31 f0       	breq	.+12     	; 0x29a6 <__fp_mpack_finite+0xc>

0000299a <__fp_mpack_finite>:
    299a:	91 50       	subi	r25, 0x01	; 1
    299c:	20 f4       	brcc	.+8      	; 0x29a6 <__fp_mpack_finite+0xc>
    299e:	87 95       	ror	r24
    29a0:	77 95       	ror	r23
    29a2:	67 95       	ror	r22
    29a4:	b7 95       	ror	r27
    29a6:	88 0f       	add	r24, r24
    29a8:	91 1d       	adc	r25, r1
    29aa:	96 95       	lsr	r25
    29ac:	87 95       	ror	r24
    29ae:	97 f9       	bld	r25, 7
    29b0:	08 95       	ret

000029b2 <__mulsi3>:
    29b2:	62 9f       	mul	r22, r18
    29b4:	d0 01       	movw	r26, r0
    29b6:	73 9f       	mul	r23, r19
    29b8:	f0 01       	movw	r30, r0
    29ba:	82 9f       	mul	r24, r18
    29bc:	e0 0d       	add	r30, r0
    29be:	f1 1d       	adc	r31, r1
    29c0:	64 9f       	mul	r22, r20
    29c2:	e0 0d       	add	r30, r0
    29c4:	f1 1d       	adc	r31, r1
    29c6:	92 9f       	mul	r25, r18
    29c8:	f0 0d       	add	r31, r0
    29ca:	83 9f       	mul	r24, r19
    29cc:	f0 0d       	add	r31, r0
    29ce:	74 9f       	mul	r23, r20
    29d0:	f0 0d       	add	r31, r0
    29d2:	65 9f       	mul	r22, r21
    29d4:	f0 0d       	add	r31, r0
    29d6:	99 27       	eor	r25, r25
    29d8:	72 9f       	mul	r23, r18
    29da:	b0 0d       	add	r27, r0
    29dc:	e1 1d       	adc	r30, r1
    29de:	f9 1f       	adc	r31, r25
    29e0:	63 9f       	mul	r22, r19
    29e2:	b0 0d       	add	r27, r0
    29e4:	e1 1d       	adc	r30, r1
    29e6:	f9 1f       	adc	r31, r25
    29e8:	bd 01       	movw	r22, r26
    29ea:	cf 01       	movw	r24, r30
    29ec:	11 24       	eor	r1, r1
    29ee:	08 95       	ret

000029f0 <__divmodhi4>:
    29f0:	97 fb       	bst	r25, 7
    29f2:	09 2e       	mov	r0, r25
    29f4:	07 26       	eor	r0, r23
    29f6:	0a d0       	rcall	.+20     	; 0x2a0c <__divmodhi4_neg1>
    29f8:	77 fd       	sbrc	r23, 7
    29fa:	04 d0       	rcall	.+8      	; 0x2a04 <__divmodhi4_neg2>
    29fc:	80 d0       	rcall	.+256    	; 0x2afe <__udivmodhi4>
    29fe:	06 d0       	rcall	.+12     	; 0x2a0c <__divmodhi4_neg1>
    2a00:	00 20       	and	r0, r0
    2a02:	1a f4       	brpl	.+6      	; 0x2a0a <__divmodhi4_exit>

00002a04 <__divmodhi4_neg2>:
    2a04:	70 95       	com	r23
    2a06:	61 95       	neg	r22
    2a08:	7f 4f       	sbci	r23, 0xFF	; 255

00002a0a <__divmodhi4_exit>:
    2a0a:	08 95       	ret

00002a0c <__divmodhi4_neg1>:
    2a0c:	f6 f7       	brtc	.-4      	; 0x2a0a <__divmodhi4_exit>
    2a0e:	90 95       	com	r25
    2a10:	81 95       	neg	r24
    2a12:	9f 4f       	sbci	r25, 0xFF	; 255
    2a14:	08 95       	ret

00002a16 <__udivmodsi4>:
    2a16:	a1 e2       	ldi	r26, 0x21	; 33
    2a18:	1a 2e       	mov	r1, r26
    2a1a:	aa 1b       	sub	r26, r26
    2a1c:	bb 1b       	sub	r27, r27
    2a1e:	fd 01       	movw	r30, r26
    2a20:	0d c0       	rjmp	.+26     	; 0x2a3c <__udivmodsi4_ep>

00002a22 <__udivmodsi4_loop>:
    2a22:	aa 1f       	adc	r26, r26
    2a24:	bb 1f       	adc	r27, r27
    2a26:	ee 1f       	adc	r30, r30
    2a28:	ff 1f       	adc	r31, r31
    2a2a:	a2 17       	cp	r26, r18
    2a2c:	b3 07       	cpc	r27, r19
    2a2e:	e4 07       	cpc	r30, r20
    2a30:	f5 07       	cpc	r31, r21
    2a32:	20 f0       	brcs	.+8      	; 0x2a3c <__udivmodsi4_ep>
    2a34:	a2 1b       	sub	r26, r18
    2a36:	b3 0b       	sbc	r27, r19
    2a38:	e4 0b       	sbc	r30, r20
    2a3a:	f5 0b       	sbc	r31, r21

00002a3c <__udivmodsi4_ep>:
    2a3c:	66 1f       	adc	r22, r22
    2a3e:	77 1f       	adc	r23, r23
    2a40:	88 1f       	adc	r24, r24
    2a42:	99 1f       	adc	r25, r25
    2a44:	1a 94       	dec	r1
    2a46:	69 f7       	brne	.-38     	; 0x2a22 <__udivmodsi4_loop>
    2a48:	60 95       	com	r22
    2a4a:	70 95       	com	r23
    2a4c:	80 95       	com	r24
    2a4e:	90 95       	com	r25
    2a50:	9b 01       	movw	r18, r22
    2a52:	ac 01       	movw	r20, r24
    2a54:	bd 01       	movw	r22, r26
    2a56:	cf 01       	movw	r24, r30
    2a58:	08 95       	ret

00002a5a <__divmodsi4>:
    2a5a:	97 fb       	bst	r25, 7
    2a5c:	09 2e       	mov	r0, r25
    2a5e:	05 26       	eor	r0, r21
    2a60:	0e d0       	rcall	.+28     	; 0x2a7e <__divmodsi4_neg1>
    2a62:	57 fd       	sbrc	r21, 7
    2a64:	04 d0       	rcall	.+8      	; 0x2a6e <__divmodsi4_neg2>
    2a66:	d7 df       	rcall	.-82     	; 0x2a16 <__udivmodsi4>
    2a68:	0a d0       	rcall	.+20     	; 0x2a7e <__divmodsi4_neg1>
    2a6a:	00 1c       	adc	r0, r0
    2a6c:	38 f4       	brcc	.+14     	; 0x2a7c <__divmodsi4_exit>

00002a6e <__divmodsi4_neg2>:
    2a6e:	50 95       	com	r21
    2a70:	40 95       	com	r20
    2a72:	30 95       	com	r19
    2a74:	21 95       	neg	r18
    2a76:	3f 4f       	sbci	r19, 0xFF	; 255
    2a78:	4f 4f       	sbci	r20, 0xFF	; 255
    2a7a:	5f 4f       	sbci	r21, 0xFF	; 255

00002a7c <__divmodsi4_exit>:
    2a7c:	08 95       	ret

00002a7e <__divmodsi4_neg1>:
    2a7e:	f6 f7       	brtc	.-4      	; 0x2a7c <__divmodsi4_exit>
    2a80:	90 95       	com	r25
    2a82:	80 95       	com	r24
    2a84:	70 95       	com	r23
    2a86:	61 95       	neg	r22
    2a88:	7f 4f       	sbci	r23, 0xFF	; 255
    2a8a:	8f 4f       	sbci	r24, 0xFF	; 255
    2a8c:	9f 4f       	sbci	r25, 0xFF	; 255
    2a8e:	08 95       	ret

00002a90 <__prologue_saves__>:
    2a90:	2f 92       	push	r2
    2a92:	3f 92       	push	r3
    2a94:	4f 92       	push	r4
    2a96:	5f 92       	push	r5
    2a98:	6f 92       	push	r6
    2a9a:	7f 92       	push	r7
    2a9c:	8f 92       	push	r8
    2a9e:	9f 92       	push	r9
    2aa0:	af 92       	push	r10
    2aa2:	bf 92       	push	r11
    2aa4:	cf 92       	push	r12
    2aa6:	df 92       	push	r13
    2aa8:	ef 92       	push	r14
    2aaa:	ff 92       	push	r15
    2aac:	0f 93       	push	r16
    2aae:	1f 93       	push	r17
    2ab0:	cf 93       	push	r28
    2ab2:	df 93       	push	r29
    2ab4:	cd b7       	in	r28, 0x3d	; 61
    2ab6:	de b7       	in	r29, 0x3e	; 62
    2ab8:	ca 1b       	sub	r28, r26
    2aba:	db 0b       	sbc	r29, r27
    2abc:	0f b6       	in	r0, 0x3f	; 63
    2abe:	f8 94       	cli
    2ac0:	de bf       	out	0x3e, r29	; 62
    2ac2:	0f be       	out	0x3f, r0	; 63
    2ac4:	cd bf       	out	0x3d, r28	; 61
    2ac6:	09 94       	ijmp

00002ac8 <__epilogue_restores__>:
    2ac8:	2a 88       	ldd	r2, Y+18	; 0x12
    2aca:	39 88       	ldd	r3, Y+17	; 0x11
    2acc:	48 88       	ldd	r4, Y+16	; 0x10
    2ace:	5f 84       	ldd	r5, Y+15	; 0x0f
    2ad0:	6e 84       	ldd	r6, Y+14	; 0x0e
    2ad2:	7d 84       	ldd	r7, Y+13	; 0x0d
    2ad4:	8c 84       	ldd	r8, Y+12	; 0x0c
    2ad6:	9b 84       	ldd	r9, Y+11	; 0x0b
    2ad8:	aa 84       	ldd	r10, Y+10	; 0x0a
    2ada:	b9 84       	ldd	r11, Y+9	; 0x09
    2adc:	c8 84       	ldd	r12, Y+8	; 0x08
    2ade:	df 80       	ldd	r13, Y+7	; 0x07
    2ae0:	ee 80       	ldd	r14, Y+6	; 0x06
    2ae2:	fd 80       	ldd	r15, Y+5	; 0x05
    2ae4:	0c 81       	ldd	r16, Y+4	; 0x04
    2ae6:	1b 81       	ldd	r17, Y+3	; 0x03
    2ae8:	aa 81       	ldd	r26, Y+2	; 0x02
    2aea:	b9 81       	ldd	r27, Y+1	; 0x01
    2aec:	ce 0f       	add	r28, r30
    2aee:	d1 1d       	adc	r29, r1
    2af0:	0f b6       	in	r0, 0x3f	; 63
    2af2:	f8 94       	cli
    2af4:	de bf       	out	0x3e, r29	; 62
    2af6:	0f be       	out	0x3f, r0	; 63
    2af8:	cd bf       	out	0x3d, r28	; 61
    2afa:	ed 01       	movw	r28, r26
    2afc:	08 95       	ret

00002afe <__udivmodhi4>:
    2afe:	aa 1b       	sub	r26, r26
    2b00:	bb 1b       	sub	r27, r27
    2b02:	51 e1       	ldi	r21, 0x11	; 17
    2b04:	07 c0       	rjmp	.+14     	; 0x2b14 <__udivmodhi4_ep>

00002b06 <__udivmodhi4_loop>:
    2b06:	aa 1f       	adc	r26, r26
    2b08:	bb 1f       	adc	r27, r27
    2b0a:	a6 17       	cp	r26, r22
    2b0c:	b7 07       	cpc	r27, r23
    2b0e:	10 f0       	brcs	.+4      	; 0x2b14 <__udivmodhi4_ep>
    2b10:	a6 1b       	sub	r26, r22
    2b12:	b7 0b       	sbc	r27, r23

00002b14 <__udivmodhi4_ep>:
    2b14:	88 1f       	adc	r24, r24
    2b16:	99 1f       	adc	r25, r25
    2b18:	5a 95       	dec	r21
    2b1a:	a9 f7       	brne	.-22     	; 0x2b06 <__udivmodhi4_loop>
    2b1c:	80 95       	com	r24
    2b1e:	90 95       	com	r25
    2b20:	bc 01       	movw	r22, r24
    2b22:	cd 01       	movw	r24, r26
    2b24:	08 95       	ret

00002b26 <__ftoa_engine>:
    2b26:	28 30       	cpi	r18, 0x08	; 8
    2b28:	08 f0       	brcs	.+2      	; 0x2b2c <__ftoa_engine+0x6>
    2b2a:	27 e0       	ldi	r18, 0x07	; 7
    2b2c:	33 27       	eor	r19, r19
    2b2e:	da 01       	movw	r26, r20
    2b30:	99 0f       	add	r25, r25
    2b32:	31 1d       	adc	r19, r1
    2b34:	87 fd       	sbrc	r24, 7
    2b36:	91 60       	ori	r25, 0x01	; 1
    2b38:	00 96       	adiw	r24, 0x00	; 0
    2b3a:	61 05       	cpc	r22, r1
    2b3c:	71 05       	cpc	r23, r1
    2b3e:	39 f4       	brne	.+14     	; 0x2b4e <__ftoa_engine+0x28>
    2b40:	32 60       	ori	r19, 0x02	; 2
    2b42:	2e 5f       	subi	r18, 0xFE	; 254
    2b44:	3d 93       	st	X+, r19
    2b46:	30 e3       	ldi	r19, 0x30	; 48
    2b48:	2a 95       	dec	r18
    2b4a:	e1 f7       	brne	.-8      	; 0x2b44 <__ftoa_engine+0x1e>
    2b4c:	08 95       	ret
    2b4e:	9f 3f       	cpi	r25, 0xFF	; 255
    2b50:	30 f0       	brcs	.+12     	; 0x2b5e <__ftoa_engine+0x38>
    2b52:	80 38       	cpi	r24, 0x80	; 128
    2b54:	71 05       	cpc	r23, r1
    2b56:	61 05       	cpc	r22, r1
    2b58:	09 f0       	breq	.+2      	; 0x2b5c <__ftoa_engine+0x36>
    2b5a:	3c 5f       	subi	r19, 0xFC	; 252
    2b5c:	3c 5f       	subi	r19, 0xFC	; 252
    2b5e:	3d 93       	st	X+, r19
    2b60:	91 30       	cpi	r25, 0x01	; 1
    2b62:	08 f0       	brcs	.+2      	; 0x2b66 <__ftoa_engine+0x40>
    2b64:	80 68       	ori	r24, 0x80	; 128
    2b66:	91 1d       	adc	r25, r1
    2b68:	df 93       	push	r29
    2b6a:	cf 93       	push	r28
    2b6c:	1f 93       	push	r17
    2b6e:	0f 93       	push	r16
    2b70:	ff 92       	push	r15
    2b72:	ef 92       	push	r14
    2b74:	19 2f       	mov	r17, r25
    2b76:	98 7f       	andi	r25, 0xF8	; 248
    2b78:	96 95       	lsr	r25
    2b7a:	e9 2f       	mov	r30, r25
    2b7c:	96 95       	lsr	r25
    2b7e:	96 95       	lsr	r25
    2b80:	e9 0f       	add	r30, r25
    2b82:	ff 27       	eor	r31, r31
    2b84:	e0 59       	subi	r30, 0x90	; 144
    2b86:	fe 4f       	sbci	r31, 0xFE	; 254
    2b88:	99 27       	eor	r25, r25
    2b8a:	33 27       	eor	r19, r19
    2b8c:	ee 24       	eor	r14, r14
    2b8e:	ff 24       	eor	r15, r15
    2b90:	a7 01       	movw	r20, r14
    2b92:	e7 01       	movw	r28, r14
    2b94:	05 90       	lpm	r0, Z+
    2b96:	08 94       	sec
    2b98:	07 94       	ror	r0
    2b9a:	28 f4       	brcc	.+10     	; 0x2ba6 <__ftoa_engine+0x80>
    2b9c:	36 0f       	add	r19, r22
    2b9e:	e7 1e       	adc	r14, r23
    2ba0:	f8 1e       	adc	r15, r24
    2ba2:	49 1f       	adc	r20, r25
    2ba4:	51 1d       	adc	r21, r1
    2ba6:	66 0f       	add	r22, r22
    2ba8:	77 1f       	adc	r23, r23
    2baa:	88 1f       	adc	r24, r24
    2bac:	99 1f       	adc	r25, r25
    2bae:	06 94       	lsr	r0
    2bb0:	a1 f7       	brne	.-24     	; 0x2b9a <__ftoa_engine+0x74>
    2bb2:	05 90       	lpm	r0, Z+
    2bb4:	07 94       	ror	r0
    2bb6:	28 f4       	brcc	.+10     	; 0x2bc2 <__ftoa_engine+0x9c>
    2bb8:	e7 0e       	add	r14, r23
    2bba:	f8 1e       	adc	r15, r24
    2bbc:	49 1f       	adc	r20, r25
    2bbe:	56 1f       	adc	r21, r22
    2bc0:	c1 1d       	adc	r28, r1
    2bc2:	77 0f       	add	r23, r23
    2bc4:	88 1f       	adc	r24, r24
    2bc6:	99 1f       	adc	r25, r25
    2bc8:	66 1f       	adc	r22, r22
    2bca:	06 94       	lsr	r0
    2bcc:	a1 f7       	brne	.-24     	; 0x2bb6 <__ftoa_engine+0x90>
    2bce:	05 90       	lpm	r0, Z+
    2bd0:	07 94       	ror	r0
    2bd2:	28 f4       	brcc	.+10     	; 0x2bde <__ftoa_engine+0xb8>
    2bd4:	f8 0e       	add	r15, r24
    2bd6:	49 1f       	adc	r20, r25
    2bd8:	56 1f       	adc	r21, r22
    2bda:	c7 1f       	adc	r28, r23
    2bdc:	d1 1d       	adc	r29, r1
    2bde:	88 0f       	add	r24, r24
    2be0:	99 1f       	adc	r25, r25
    2be2:	66 1f       	adc	r22, r22
    2be4:	77 1f       	adc	r23, r23
    2be6:	06 94       	lsr	r0
    2be8:	a1 f7       	brne	.-24     	; 0x2bd2 <__ftoa_engine+0xac>
    2bea:	05 90       	lpm	r0, Z+
    2bec:	07 94       	ror	r0
    2bee:	20 f4       	brcc	.+8      	; 0x2bf8 <__ftoa_engine+0xd2>
    2bf0:	49 0f       	add	r20, r25
    2bf2:	56 1f       	adc	r21, r22
    2bf4:	c7 1f       	adc	r28, r23
    2bf6:	d8 1f       	adc	r29, r24
    2bf8:	99 0f       	add	r25, r25
    2bfa:	66 1f       	adc	r22, r22
    2bfc:	77 1f       	adc	r23, r23
    2bfe:	88 1f       	adc	r24, r24
    2c00:	06 94       	lsr	r0
    2c02:	a9 f7       	brne	.-22     	; 0x2bee <__ftoa_engine+0xc8>
    2c04:	84 91       	lpm	r24, Z+
    2c06:	10 95       	com	r17
    2c08:	17 70       	andi	r17, 0x07	; 7
    2c0a:	41 f0       	breq	.+16     	; 0x2c1c <__ftoa_engine+0xf6>
    2c0c:	d6 95       	lsr	r29
    2c0e:	c7 95       	ror	r28
    2c10:	57 95       	ror	r21
    2c12:	47 95       	ror	r20
    2c14:	f7 94       	ror	r15
    2c16:	e7 94       	ror	r14
    2c18:	1a 95       	dec	r17
    2c1a:	c1 f7       	brne	.-16     	; 0x2c0c <__ftoa_engine+0xe6>
    2c1c:	e6 e1       	ldi	r30, 0x16	; 22
    2c1e:	f1 e0       	ldi	r31, 0x01	; 1
    2c20:	68 94       	set
    2c22:	15 90       	lpm	r1, Z+
    2c24:	15 91       	lpm	r17, Z+
    2c26:	35 91       	lpm	r19, Z+
    2c28:	65 91       	lpm	r22, Z+
    2c2a:	95 91       	lpm	r25, Z+
    2c2c:	05 90       	lpm	r0, Z+
    2c2e:	7f e2       	ldi	r23, 0x2F	; 47
    2c30:	73 95       	inc	r23
    2c32:	e1 18       	sub	r14, r1
    2c34:	f1 0a       	sbc	r15, r17
    2c36:	43 0b       	sbc	r20, r19
    2c38:	56 0b       	sbc	r21, r22
    2c3a:	c9 0b       	sbc	r28, r25
    2c3c:	d0 09       	sbc	r29, r0
    2c3e:	c0 f7       	brcc	.-16     	; 0x2c30 <__ftoa_engine+0x10a>
    2c40:	e1 0c       	add	r14, r1
    2c42:	f1 1e       	adc	r15, r17
    2c44:	43 1f       	adc	r20, r19
    2c46:	56 1f       	adc	r21, r22
    2c48:	c9 1f       	adc	r28, r25
    2c4a:	d0 1d       	adc	r29, r0
    2c4c:	7e f4       	brtc	.+30     	; 0x2c6c <__ftoa_engine+0x146>
    2c4e:	70 33       	cpi	r23, 0x30	; 48
    2c50:	11 f4       	brne	.+4      	; 0x2c56 <__ftoa_engine+0x130>
    2c52:	8a 95       	dec	r24
    2c54:	e6 cf       	rjmp	.-52     	; 0x2c22 <__ftoa_engine+0xfc>
    2c56:	e8 94       	clt
    2c58:	01 50       	subi	r16, 0x01	; 1
    2c5a:	30 f0       	brcs	.+12     	; 0x2c68 <__ftoa_engine+0x142>
    2c5c:	08 0f       	add	r16, r24
    2c5e:	0a f4       	brpl	.+2      	; 0x2c62 <__ftoa_engine+0x13c>
    2c60:	00 27       	eor	r16, r16
    2c62:	02 17       	cp	r16, r18
    2c64:	08 f4       	brcc	.+2      	; 0x2c68 <__ftoa_engine+0x142>
    2c66:	20 2f       	mov	r18, r16
    2c68:	23 95       	inc	r18
    2c6a:	02 2f       	mov	r16, r18
    2c6c:	7a 33       	cpi	r23, 0x3A	; 58
    2c6e:	28 f0       	brcs	.+10     	; 0x2c7a <__ftoa_engine+0x154>
    2c70:	79 e3       	ldi	r23, 0x39	; 57
    2c72:	7d 93       	st	X+, r23
    2c74:	2a 95       	dec	r18
    2c76:	e9 f7       	brne	.-6      	; 0x2c72 <__ftoa_engine+0x14c>
    2c78:	10 c0       	rjmp	.+32     	; 0x2c9a <__ftoa_engine+0x174>
    2c7a:	7d 93       	st	X+, r23
    2c7c:	2a 95       	dec	r18
    2c7e:	89 f6       	brne	.-94     	; 0x2c22 <__ftoa_engine+0xfc>
    2c80:	06 94       	lsr	r0
    2c82:	97 95       	ror	r25
    2c84:	67 95       	ror	r22
    2c86:	37 95       	ror	r19
    2c88:	17 95       	ror	r17
    2c8a:	17 94       	ror	r1
    2c8c:	e1 18       	sub	r14, r1
    2c8e:	f1 0a       	sbc	r15, r17
    2c90:	43 0b       	sbc	r20, r19
    2c92:	56 0b       	sbc	r21, r22
    2c94:	c9 0b       	sbc	r28, r25
    2c96:	d0 09       	sbc	r29, r0
    2c98:	98 f0       	brcs	.+38     	; 0x2cc0 <__ftoa_engine+0x19a>
    2c9a:	23 95       	inc	r18
    2c9c:	7e 91       	ld	r23, -X
    2c9e:	73 95       	inc	r23
    2ca0:	7a 33       	cpi	r23, 0x3A	; 58
    2ca2:	08 f0       	brcs	.+2      	; 0x2ca6 <__ftoa_engine+0x180>
    2ca4:	70 e3       	ldi	r23, 0x30	; 48
    2ca6:	7c 93       	st	X, r23
    2ca8:	20 13       	cpse	r18, r16
    2caa:	b8 f7       	brcc	.-18     	; 0x2c9a <__ftoa_engine+0x174>
    2cac:	7e 91       	ld	r23, -X
    2cae:	70 61       	ori	r23, 0x10	; 16
    2cb0:	7d 93       	st	X+, r23
    2cb2:	30 f0       	brcs	.+12     	; 0x2cc0 <__ftoa_engine+0x19a>
    2cb4:	83 95       	inc	r24
    2cb6:	71 e3       	ldi	r23, 0x31	; 49
    2cb8:	7d 93       	st	X+, r23
    2cba:	70 e3       	ldi	r23, 0x30	; 48
    2cbc:	2a 95       	dec	r18
    2cbe:	e1 f7       	brne	.-8      	; 0x2cb8 <__ftoa_engine+0x192>
    2cc0:	11 24       	eor	r1, r1
    2cc2:	ef 90       	pop	r14
    2cc4:	ff 90       	pop	r15
    2cc6:	0f 91       	pop	r16
    2cc8:	1f 91       	pop	r17
    2cca:	cf 91       	pop	r28
    2ccc:	df 91       	pop	r29
    2cce:	99 27       	eor	r25, r25
    2cd0:	87 fd       	sbrc	r24, 7
    2cd2:	90 95       	com	r25
    2cd4:	08 95       	ret

00002cd6 <strnlen_P>:
    2cd6:	fc 01       	movw	r30, r24
    2cd8:	05 90       	lpm	r0, Z+
    2cda:	61 50       	subi	r22, 0x01	; 1
    2cdc:	70 40       	sbci	r23, 0x00	; 0
    2cde:	01 10       	cpse	r0, r1
    2ce0:	d8 f7       	brcc	.-10     	; 0x2cd8 <strnlen_P+0x2>
    2ce2:	80 95       	com	r24
    2ce4:	90 95       	com	r25
    2ce6:	8e 0f       	add	r24, r30
    2ce8:	9f 1f       	adc	r25, r31
    2cea:	08 95       	ret

00002cec <strnlen>:
    2cec:	fc 01       	movw	r30, r24
    2cee:	61 50       	subi	r22, 0x01	; 1
    2cf0:	70 40       	sbci	r23, 0x00	; 0
    2cf2:	01 90       	ld	r0, Z+
    2cf4:	01 10       	cpse	r0, r1
    2cf6:	d8 f7       	brcc	.-10     	; 0x2cee <strnlen+0x2>
    2cf8:	80 95       	com	r24
    2cfa:	90 95       	com	r25
    2cfc:	8e 0f       	add	r24, r30
    2cfe:	9f 1f       	adc	r25, r31
    2d00:	08 95       	ret

00002d02 <fputc>:
    2d02:	0f 93       	push	r16
    2d04:	1f 93       	push	r17
    2d06:	cf 93       	push	r28
    2d08:	df 93       	push	r29
    2d0a:	8c 01       	movw	r16, r24
    2d0c:	eb 01       	movw	r28, r22
    2d0e:	8b 81       	ldd	r24, Y+3	; 0x03
    2d10:	81 ff       	sbrs	r24, 1
    2d12:	1b c0       	rjmp	.+54     	; 0x2d4a <fputc+0x48>
    2d14:	82 ff       	sbrs	r24, 2
    2d16:	0d c0       	rjmp	.+26     	; 0x2d32 <fputc+0x30>
    2d18:	2e 81       	ldd	r18, Y+6	; 0x06
    2d1a:	3f 81       	ldd	r19, Y+7	; 0x07
    2d1c:	8c 81       	ldd	r24, Y+4	; 0x04
    2d1e:	9d 81       	ldd	r25, Y+5	; 0x05
    2d20:	28 17       	cp	r18, r24
    2d22:	39 07       	cpc	r19, r25
    2d24:	64 f4       	brge	.+24     	; 0x2d3e <fputc+0x3c>
    2d26:	e8 81       	ld	r30, Y
    2d28:	f9 81       	ldd	r31, Y+1	; 0x01
    2d2a:	01 93       	st	Z+, r16
    2d2c:	f9 83       	std	Y+1, r31	; 0x01
    2d2e:	e8 83       	st	Y, r30
    2d30:	06 c0       	rjmp	.+12     	; 0x2d3e <fputc+0x3c>
    2d32:	e8 85       	ldd	r30, Y+8	; 0x08
    2d34:	f9 85       	ldd	r31, Y+9	; 0x09
    2d36:	80 2f       	mov	r24, r16
    2d38:	09 95       	icall
    2d3a:	89 2b       	or	r24, r25
    2d3c:	31 f4       	brne	.+12     	; 0x2d4a <fputc+0x48>
    2d3e:	8e 81       	ldd	r24, Y+6	; 0x06
    2d40:	9f 81       	ldd	r25, Y+7	; 0x07
    2d42:	01 96       	adiw	r24, 0x01	; 1
    2d44:	9f 83       	std	Y+7, r25	; 0x07
    2d46:	8e 83       	std	Y+6, r24	; 0x06
    2d48:	02 c0       	rjmp	.+4      	; 0x2d4e <fputc+0x4c>
    2d4a:	0f ef       	ldi	r16, 0xFF	; 255
    2d4c:	1f ef       	ldi	r17, 0xFF	; 255
    2d4e:	c8 01       	movw	r24, r16
    2d50:	df 91       	pop	r29
    2d52:	cf 91       	pop	r28
    2d54:	1f 91       	pop	r17
    2d56:	0f 91       	pop	r16
    2d58:	08 95       	ret

00002d5a <sprintf>:
    2d5a:	ae e0       	ldi	r26, 0x0E	; 14
    2d5c:	b0 e0       	ldi	r27, 0x00	; 0
    2d5e:	e3 eb       	ldi	r30, 0xB3	; 179
    2d60:	f6 e1       	ldi	r31, 0x16	; 22
    2d62:	0c 94 56 15 	jmp	0x2aac	; 0x2aac <__prologue_saves__+0x1c>
    2d66:	0d 89       	ldd	r16, Y+21	; 0x15
    2d68:	1e 89       	ldd	r17, Y+22	; 0x16
    2d6a:	86 e0       	ldi	r24, 0x06	; 6
    2d6c:	8c 83       	std	Y+4, r24	; 0x04
    2d6e:	1a 83       	std	Y+2, r17	; 0x02
    2d70:	09 83       	std	Y+1, r16	; 0x01
    2d72:	8f ef       	ldi	r24, 0xFF	; 255
    2d74:	9f e7       	ldi	r25, 0x7F	; 127
    2d76:	9e 83       	std	Y+6, r25	; 0x06
    2d78:	8d 83       	std	Y+5, r24	; 0x05
    2d7a:	9e 01       	movw	r18, r28
    2d7c:	27 5e       	subi	r18, 0xE7	; 231
    2d7e:	3f 4f       	sbci	r19, 0xFF	; 255
    2d80:	ce 01       	movw	r24, r28
    2d82:	01 96       	adiw	r24, 0x01	; 1
    2d84:	6f 89       	ldd	r22, Y+23	; 0x17
    2d86:	78 8d       	ldd	r23, Y+24	; 0x18
    2d88:	a9 01       	movw	r20, r18
    2d8a:	0e 94 d6 0d 	call	0x1bac	; 0x1bac <vfprintf>
    2d8e:	2f 81       	ldd	r18, Y+7	; 0x07
    2d90:	38 85       	ldd	r19, Y+8	; 0x08
    2d92:	02 0f       	add	r16, r18
    2d94:	13 1f       	adc	r17, r19
    2d96:	f8 01       	movw	r30, r16
    2d98:	10 82       	st	Z, r1
    2d9a:	2e 96       	adiw	r28, 0x0e	; 14
    2d9c:	e4 e0       	ldi	r30, 0x04	; 4
    2d9e:	0c 94 72 15 	jmp	0x2ae4	; 0x2ae4 <__epilogue_restores__+0x1c>

00002da2 <__ultoa_invert>:
    2da2:	fa 01       	movw	r30, r20
    2da4:	aa 27       	eor	r26, r26
    2da6:	28 30       	cpi	r18, 0x08	; 8
    2da8:	51 f1       	breq	.+84     	; 0x2dfe <__ultoa_invert+0x5c>
    2daa:	20 31       	cpi	r18, 0x10	; 16
    2dac:	81 f1       	breq	.+96     	; 0x2e0e <__ultoa_invert+0x6c>
    2dae:	e8 94       	clt
    2db0:	6f 93       	push	r22
    2db2:	6e 7f       	andi	r22, 0xFE	; 254
    2db4:	6e 5f       	subi	r22, 0xFE	; 254
    2db6:	7f 4f       	sbci	r23, 0xFF	; 255
    2db8:	8f 4f       	sbci	r24, 0xFF	; 255
    2dba:	9f 4f       	sbci	r25, 0xFF	; 255
    2dbc:	af 4f       	sbci	r26, 0xFF	; 255
    2dbe:	b1 e0       	ldi	r27, 0x01	; 1
    2dc0:	3e d0       	rcall	.+124    	; 0x2e3e <__ultoa_invert+0x9c>
    2dc2:	b4 e0       	ldi	r27, 0x04	; 4
    2dc4:	3c d0       	rcall	.+120    	; 0x2e3e <__ultoa_invert+0x9c>
    2dc6:	67 0f       	add	r22, r23
    2dc8:	78 1f       	adc	r23, r24
    2dca:	89 1f       	adc	r24, r25
    2dcc:	9a 1f       	adc	r25, r26
    2dce:	a1 1d       	adc	r26, r1
    2dd0:	68 0f       	add	r22, r24
    2dd2:	79 1f       	adc	r23, r25
    2dd4:	8a 1f       	adc	r24, r26
    2dd6:	91 1d       	adc	r25, r1
    2dd8:	a1 1d       	adc	r26, r1
    2dda:	6a 0f       	add	r22, r26
    2ddc:	71 1d       	adc	r23, r1
    2dde:	81 1d       	adc	r24, r1
    2de0:	91 1d       	adc	r25, r1
    2de2:	a1 1d       	adc	r26, r1
    2de4:	20 d0       	rcall	.+64     	; 0x2e26 <__ultoa_invert+0x84>
    2de6:	09 f4       	brne	.+2      	; 0x2dea <__ultoa_invert+0x48>
    2de8:	68 94       	set
    2dea:	3f 91       	pop	r19
    2dec:	2a e0       	ldi	r18, 0x0A	; 10
    2dee:	26 9f       	mul	r18, r22
    2df0:	11 24       	eor	r1, r1
    2df2:	30 19       	sub	r19, r0
    2df4:	30 5d       	subi	r19, 0xD0	; 208
    2df6:	31 93       	st	Z+, r19
    2df8:	de f6       	brtc	.-74     	; 0x2db0 <__ultoa_invert+0xe>
    2dfa:	cf 01       	movw	r24, r30
    2dfc:	08 95       	ret
    2dfe:	46 2f       	mov	r20, r22
    2e00:	47 70       	andi	r20, 0x07	; 7
    2e02:	40 5d       	subi	r20, 0xD0	; 208
    2e04:	41 93       	st	Z+, r20
    2e06:	b3 e0       	ldi	r27, 0x03	; 3
    2e08:	0f d0       	rcall	.+30     	; 0x2e28 <__ultoa_invert+0x86>
    2e0a:	c9 f7       	brne	.-14     	; 0x2dfe <__ultoa_invert+0x5c>
    2e0c:	f6 cf       	rjmp	.-20     	; 0x2dfa <__ultoa_invert+0x58>
    2e0e:	46 2f       	mov	r20, r22
    2e10:	4f 70       	andi	r20, 0x0F	; 15
    2e12:	40 5d       	subi	r20, 0xD0	; 208
    2e14:	4a 33       	cpi	r20, 0x3A	; 58
    2e16:	18 f0       	brcs	.+6      	; 0x2e1e <__ultoa_invert+0x7c>
    2e18:	49 5d       	subi	r20, 0xD9	; 217
    2e1a:	31 fd       	sbrc	r19, 1
    2e1c:	40 52       	subi	r20, 0x20	; 32
    2e1e:	41 93       	st	Z+, r20
    2e20:	02 d0       	rcall	.+4      	; 0x2e26 <__ultoa_invert+0x84>
    2e22:	a9 f7       	brne	.-22     	; 0x2e0e <__ultoa_invert+0x6c>
    2e24:	ea cf       	rjmp	.-44     	; 0x2dfa <__ultoa_invert+0x58>
    2e26:	b4 e0       	ldi	r27, 0x04	; 4
    2e28:	a6 95       	lsr	r26
    2e2a:	97 95       	ror	r25
    2e2c:	87 95       	ror	r24
    2e2e:	77 95       	ror	r23
    2e30:	67 95       	ror	r22
    2e32:	ba 95       	dec	r27
    2e34:	c9 f7       	brne	.-14     	; 0x2e28 <__ultoa_invert+0x86>
    2e36:	00 97       	sbiw	r24, 0x00	; 0
    2e38:	61 05       	cpc	r22, r1
    2e3a:	71 05       	cpc	r23, r1
    2e3c:	08 95       	ret
    2e3e:	9b 01       	movw	r18, r22
    2e40:	ac 01       	movw	r20, r24
    2e42:	0a 2e       	mov	r0, r26
    2e44:	06 94       	lsr	r0
    2e46:	57 95       	ror	r21
    2e48:	47 95       	ror	r20
    2e4a:	37 95       	ror	r19
    2e4c:	27 95       	ror	r18
    2e4e:	ba 95       	dec	r27
    2e50:	c9 f7       	brne	.-14     	; 0x2e44 <__ultoa_invert+0xa2>
    2e52:	62 0f       	add	r22, r18
    2e54:	73 1f       	adc	r23, r19
    2e56:	84 1f       	adc	r24, r20
    2e58:	95 1f       	adc	r25, r21
    2e5a:	a0 1d       	adc	r26, r0
    2e5c:	08 95       	ret

00002e5e <_exit>:
    2e5e:	f8 94       	cli

00002e60 <__stop_program>:
    2e60:	ff cf       	rjmp	.-2      	; 0x2e60 <__stop_program>
