
AVRASM ver. 2.1.9  cooler_system.asm Tue Jun 29 16:49:50 2010

cooler_system.asm(989): Including file 'cooler_system.vec'
cooler_system.asm(990): Including file 'cooler_system.inc'
cooler_system.inc(2): warning: Register r5 already defined by the .DEF directive
cooler_system.asm(990): 'cooler_system.inc' included form here
cooler_system.inc(3): warning: Register r4 already defined by the .DEF directive
cooler_system.asm(990): 'cooler_system.inc' included form here
cooler_system.inc(4): warning: Register r7 already defined by the .DEF directive
cooler_system.asm(990): 'cooler_system.inc' included form here
cooler_system.inc(5): warning: Register r6 already defined by the .DEF directive
cooler_system.asm(990): 'cooler_system.inc' included form here
cooler_system.inc(6): warning: Register r9 already defined by the .DEF directive
cooler_system.asm(990): 'cooler_system.inc' included form here
cooler_system.inc(86): warning: Register r8 already defined by the .DEF directive
cooler_system.asm(990): 'cooler_system.inc' included form here
cooler_system.inc(99): warning: Register r11 already defined by the .DEF directive
cooler_system.asm(990): 'cooler_system.inc' included form here
cooler_system.inc(100): warning: Register r10 already defined by the .DEF directive
cooler_system.asm(990): 'cooler_system.inc' included form here
cooler_system.inc(101): warning: Register r13 already defined by the .DEF directive
cooler_system.asm(990): 'cooler_system.inc' included form here
                 
                 
                 ;CodeVisionAVR C Compiler V1.25.8 Professional
                 ;(C) Copyright 1998-2007 Pavel Haiduc, HP InfoTech s.r.l.
                 ;http://www.hpinfotech.com
                 
                 ;Chip type              : ATmega32
                 ;Program type           : Application
                 ;Clock frequency        : 8,000000 MHz
                 ;Memory model           : Small
                 ;Optimize for           : Size
                 ;(s)printf features     : float, width, precision
                 ;(s)scanf features      : int, width
                 ;External SRAM size     : 0
                 ;Data Stack size        : 512 byte(s)
                 ;Heap size              : 0 byte(s)
                 ;Promote char to int    : No
                 ;char is unsigned       : Yes
                 ;8 bit enums            : Yes
                 ;Word align FLASH struct: No
                 ;Enhanced core instructions    : On
                 ;Smart register allocation : On
                 ;Automatic register allocation : On
                 
                 	#pragma AVRPART ADMIN PART_NAME ATmega32
                 	#pragma AVRPART MEMORY PROG_FLASH 32768
                 	#pragma AVRPART MEMORY EEPROM 1024
                 	#pragma AVRPART MEMORY INT_SRAM SIZE 2048
                 	#pragma AVRPART MEMORY INT_SRAM START_ADDR 0x60
                 
                 	.EQU UDRE=0x5
                 	.EQU RXC=0x7
                 	.EQU USR=0xB
                 	.EQU UDR=0xC
                 	.EQU SPSR=0xE
                 	.EQU SPDR=0xF
                 	.EQU EERE=0x0
                 	.EQU EEWE=0x1
                 	.EQU EEMWE=0x2
                 	.EQU EECR=0x1C
                 	.EQU EEDR=0x1D
                 	.EQU EEARL=0x1E
                 	.EQU EEARH=0x1F
                 	.EQU WDTCR=0x21
                 	.EQU MCUCR=0x35
                 	.EQU GICR=0x3B
                 	.EQU SPL=0x3D
                 	.EQU SPH=0x3E
                 	.EQU SREG=0x3F
                 
                 	.DEF R0X0=R0
                 	.DEF R0X1=R1
                 	.DEF R0X2=R2
                 	.DEF R0X3=R3
                 	.DEF R0X4=R4
                 	.DEF R0X5=R5
                 	.DEF R0X6=R6
                 	.DEF R0X7=R7
                 	.DEF R0X8=R8
                 	.DEF R0X9=R9
                 	.DEF R0XA=R10
                 	.DEF R0XB=R11
                 	.DEF R0XC=R12
                 	.DEF R0XD=R13
                 	.DEF R0XE=R14
                 	.DEF R0XF=R15
                 	.DEF R0X10=R16
                 	.DEF R0X11=R17
                 	.DEF R0X12=R18
                 	.DEF R0X13=R19
                 	.DEF R0X14=R20
                 	.DEF R0X15=R21
                 	.DEF R0X16=R22
                 	.DEF R0X17=R23
                 	.DEF R0X18=R24
                 	.DEF R0X19=R25
                 	.DEF R0X1A=R26
                 	.DEF R0X1B=R27
                 	.DEF R0X1C=R28
                 	.DEF R0X1D=R29
                 	.DEF R0X1E=R30
                 	.DEF R0X1F=R31
                 
                 	.MACRO __CPD1N
                 	CPI  R30,LOW(@0)
                 	LDI  R26,HIGH(@0)
                 	CPC  R31,R26
                 	LDI  R26,BYTE3(@0)
                 	CPC  R22,R26
                 	LDI  R26,BYTE4(@0)
                 	CPC  R23,R26
                 	.ENDM
                 
                 	.MACRO __CPD2N
                 	CPI  R26,LOW(@0)
                 	LDI  R30,HIGH(@0)
                 	CPC  R27,R30
                 	LDI  R30,BYTE3(@0)
                 	CPC  R24,R30
                 	LDI  R30,BYTE4(@0)
                 	CPC  R25,R30
                 	.ENDM
                 
                 	.MACRO __CPWRR
                 	CP   R@0,R@2
                 	CPC  R@1,R@3
                 	.ENDM
                 
                 	.MACRO __CPWRN
                 	CPI  R@0,LOW(@2)
                 	LDI  R30,HIGH(@2)
                 	CPC  R@1,R30
                 	.ENDM
                 
                 	.MACRO __ADDB1MN
                 	SUBI R30,LOW(-@0-(@1))
                 	.ENDM
                 	.MACRO __ADDB2MN
                 	SUBI R26,LOW(-@0-(@1))
                 	.ENDM
                 	.MACRO __ADDW1MN
                 	SUBI R30,LOW(-@0-(@1))
                 	SBCI R31,HIGH(-@0-(@1))
                 	.ENDM
                 	.MACRO __ADDW2MN
                 	SUBI R26,LOW(-@0-(@1))
                 	SBCI R27,HIGH(-@0-(@1))
                 	.ENDM
                 	.MACRO __ADDW1FN
                 	SUBI R30,LOW(-2*@0-(@1))
                 	SBCI R31,HIGH(-2*@0-(@1))
                 	.ENDM
                 	.MACRO __ADDD1FN
                 	SUBI R30,LOW(-2*@0-(@1))
                 	SBCI R31,HIGH(-2*@0-(@1))
                 	SBCI R22,BYTE3(-2*@0-(@1))
                 	.ENDM
                 	.MACRO __ADDD1N
                 	SUBI R30,LOW(-@0)
                 	SBCI R31,HIGH(-@0)
                 	SBCI R22,BYTE3(-@0)
                 	SBCI R23,BYTE4(-@0)
                 	.ENDM
                 
                 	.MACRO __ADDD2N
                 	SUBI R26,LOW(-@0)
                 	SBCI R27,HIGH(-@0)
                 	SBCI R24,BYTE3(-@0)
                 	SBCI R25,BYTE4(-@0)
                 	.ENDM
                 
                 	.MACRO __SUBD1N
                 	SUBI R30,LOW(@0)
                 	SBCI R31,HIGH(@0)
                 	SBCI R22,BYTE3(@0)
                 	SBCI R23,BYTE4(@0)
                 	.ENDM
                 
                 	.MACRO __SUBD2N
                 	SUBI R26,LOW(@0)
                 	SBCI R27,HIGH(@0)
                 	SBCI R24,BYTE3(@0)
                 	SBCI R25,BYTE4(@0)
                 	.ENDM
                 
                 	.MACRO __ANDBMNN
                 	LDS  R30,@0+@1
                 	ANDI R30,LOW(@2)
                 	STS  @0+@1,R30
                 	.ENDM
                 
                 	.MACRO __ANDWMNN
                 	LDS  R30,@0+@1
                 	ANDI R30,LOW(@2)
                 	STS  @0+@1,R30
                 	LDS  R30,@0+@1+1
                 	ANDI R30,HIGH(@2)
                 	STS  @0+@1+1,R30
                 	.ENDM
                 
                 	.MACRO __ANDD1N
                 	ANDI R30,LOW(@0)
                 	ANDI R31,HIGH(@0)
                 	ANDI R22,BYTE3(@0)
                 	ANDI R23,BYTE4(@0)
                 	.ENDM
                 
                 	.MACRO __ORBMNN
                 	LDS  R30,@0+@1
                 	ORI  R30,LOW(@2)
                 	STS  @0+@1,R30
                 	.ENDM
                 
                 	.MACRO __ORWMNN
                 	LDS  R30,@0+@1
                 	ORI  R30,LOW(@2)
                 	STS  @0+@1,R30
                 	LDS  R30,@0+@1+1
                 	ORI  R30,HIGH(@2)
                 	STS  @0+@1+1,R30
                 	.ENDM
                 
                 	.MACRO __ORD1N
                 	ORI  R30,LOW(@0)
                 	ORI  R31,HIGH(@0)
                 	ORI  R22,BYTE3(@0)
                 	ORI  R23,BYTE4(@0)
                 	.ENDM
                 
                 	.MACRO __DELAY_USB
                 	LDI  R24,LOW(@0)
                 __DELAY_USB_LOOP:
                 	DEC  R24
                 	BRNE __DELAY_USB_LOOP
                 	.ENDM
                 
                 	.MACRO __DELAY_USW
                 	LDI  R24,LOW(@0)
                 	LDI  R25,HIGH(@0)
                 __DELAY_USW_LOOP:
                 	SBIW R24,1
                 	BRNE __DELAY_USW_LOOP
                 	.ENDM
                 
                 	.MACRO __CLRD1S
                 	LDI  R30,0
                 	STD  Y+@0,R30
                 	STD  Y+@0+1,R30
                 	STD  Y+@0+2,R30
                 	STD  Y+@0+3,R30
                 	.ENDM
                 
                 	.MACRO __GETD1S
                 	LDD  R30,Y+@0
                 	LDD  R31,Y+@0+1
                 	LDD  R22,Y+@0+2
                 	LDD  R23,Y+@0+3
                 	.ENDM
                 
                 	.MACRO __PUTD1S
                 	STD  Y+@0,R30
                 	STD  Y+@0+1,R31
                 	STD  Y+@0+2,R22
                 	STD  Y+@0+3,R23
                 	.ENDM
                 
                 	.MACRO __PUTD2S
                 	STD  Y+@0,R26
                 	STD  Y+@0+1,R27
                 	STD  Y+@0+2,R24
                 	STD  Y+@0+3,R25
                 	.ENDM
                 
                 	.MACRO __POINTB1MN
                 	LDI  R30,LOW(@0+@1)
                 	.ENDM
                 
                 	.MACRO __POINTW1MN
                 	LDI  R30,LOW(@0+@1)
                 	LDI  R31,HIGH(@0+@1)
                 	.ENDM
                 
                 	.MACRO __POINTD1M
                 	LDI  R30,LOW(@0)
                 	LDI  R31,HIGH(@0)
                 	LDI  R22,BYTE3(@0)
                 	LDI  R23,BYTE4(@0)
                 	.ENDM
                 
                 	.MACRO __POINTW1FN
                 	LDI  R30,LOW(2*@0+@1)
                 	LDI  R31,HIGH(2*@0+@1)
                 	.ENDM
                 
                 	.MACRO __POINTD1FN
                 	LDI  R30,LOW(2*@0+@1)
                 	LDI  R31,HIGH(2*@0+@1)
                 	LDI  R22,BYTE3(2*@0+@1)
                 	LDI  R23,BYTE4(2*@0+@1)
                 	.ENDM
                 
                 	.MACRO __POINTB2MN
                 	LDI  R26,LOW(@0+@1)
                 	.ENDM
                 
                 	.MACRO __POINTW2MN
                 	LDI  R26,LOW(@0+@1)
                 	LDI  R27,HIGH(@0+@1)
                 	.ENDM
                 
                 	.MACRO __POINTBRM
                 	LDI  R@0,LOW(@1)
                 	.ENDM
                 
                 	.MACRO __POINTWRM
                 	LDI  R@0,LOW(@2)
                 	LDI  R@1,HIGH(@2)
                 	.ENDM
                 
                 	.MACRO __POINTBRMN
                 	LDI  R@0,LOW(@1+@2)
                 	.ENDM
                 
                 	.MACRO __POINTWRMN
                 	LDI  R@0,LOW(@2+@3)
                 	LDI  R@1,HIGH(@2+@3)
                 	.ENDM
                 
                 	.MACRO __POINTWRFN
                 	LDI  R@0,LOW(@2*2+@3)
                 	LDI  R@1,HIGH(@2*2+@3)
                 	.ENDM
                 
                 	.MACRO __GETD1N
                 	LDI  R30,LOW(@0)
                 	LDI  R31,HIGH(@0)
                 	LDI  R22,BYTE3(@0)
                 	LDI  R23,BYTE4(@0)
                 	.ENDM
                 
                 	.MACRO __GETD2N
                 	LDI  R26,LOW(@0)
                 	LDI  R27,HIGH(@0)
                 	LDI  R24,BYTE3(@0)
                 	LDI  R25,BYTE4(@0)
                 	.ENDM
                 
                 	.MACRO __GETD2S
                 	LDD  R26,Y+@0
                 	LDD  R27,Y+@0+1
                 	LDD  R24,Y+@0+2
                 	LDD  R25,Y+@0+3
                 	.ENDM
                 
                 	.MACRO __GETB1MN
                 	LDS  R30,@0+@1
                 	.ENDM
                 
                 	.MACRO __GETB1HMN
                 	LDS  R31,@0+@1
                 	.ENDM
                 
                 	.MACRO __GETW1MN
                 	LDS  R30,@0+@1
                 	LDS  R31,@0+@1+1
                 	.ENDM
                 
                 	.MACRO __GETD1MN
                 	LDS  R30,@0+@1
                 	LDS  R31,@0+@1+1
                 	LDS  R22,@0+@1+2
                 	LDS  R23,@0+@1+3
                 	.ENDM
                 
                 	.MACRO __GETBRMN
                 	LDS  R@0,@1+@2
                 	.ENDM
                 
                 	.MACRO __GETWRMN
                 	LDS  R@0,@2+@3
                 	LDS  R@1,@2+@3+1
                 	.ENDM
                 
                 	.MACRO __GETWRZ
                 	LDD  R@0,Z+@2
                 	LDD  R@1,Z+@2+1
                 	.ENDM
                 
                 	.MACRO __GETD2Z
                 	LDD  R26,Z+@0
                 	LDD  R27,Z+@0+1
                 	LDD  R24,Z+@0+2
                 	LDD  R25,Z+@0+3
                 	.ENDM
                 
                 	.MACRO __GETB2MN
                 	LDS  R26,@0+@1
                 	.ENDM
                 
                 	.MACRO __GETW2MN
                 	LDS  R26,@0+@1
                 	LDS  R27,@0+@1+1
                 	.ENDM
                 
                 	.MACRO __GETD2MN
                 	LDS  R26,@0+@1
                 	LDS  R27,@0+@1+1
                 	LDS  R24,@0+@1+2
                 	LDS  R25,@0+@1+3
                 	.ENDM
                 
                 	.MACRO __PUTB1MN
                 	STS  @0+@1,R30
                 	.ENDM
                 
                 	.MACRO __PUTW1MN
                 	STS  @0+@1,R30
                 	STS  @0+@1+1,R31
                 	.ENDM
                 
                 	.MACRO __PUTD1MN
                 	STS  @0+@1,R30
                 	STS  @0+@1+1,R31
                 	STS  @0+@1+2,R22
                 	STS  @0+@1+3,R23
                 	.ENDM
                 
                 	.MACRO __PUTBR0MN
                 	STS  @0+@1,R0
                 	.ENDM
                 
                 	.MACRO __PUTDZ2
                 	STD  Z+@0,R26
                 	STD  Z+@0+1,R27
                 	STD  Z+@0+2,R24
                 	STD  Z+@0+3,R25
                 	.ENDM
                 
                 	.MACRO __PUTBMRN
                 	STS  @0+@1,R@2
                 	.ENDM
                 
                 	.MACRO __PUTWMRN
                 	STS  @0+@1,R@2
                 	STS  @0+@1+1,R@3
                 	.ENDM
                 
                 	.MACRO __PUTBZR
                 	STD  Z+@1,R@0
                 	.ENDM
                 
                 	.MACRO __PUTWZR
                 	STD  Z+@2,R@0
                 	STD  Z+@2+1,R@1
                 	.ENDM
                 
                 	.MACRO __GETW1R
                 	MOV  R30,R@0
                 	MOV  R31,R@1
                 	.ENDM
                 
                 	.MACRO __GETW2R
                 	MOV  R26,R@0
                 	MOV  R27,R@1
                 	.ENDM
                 
                 	.MACRO __GETWRN
                 	LDI  R@0,LOW(@2)
                 	LDI  R@1,HIGH(@2)
                 	.ENDM
                 
                 	.MACRO __PUTW1R
                 	MOV  R@0,R30
                 	MOV  R@1,R31
                 	.ENDM
                 
                 	.MACRO __PUTW2R
                 	MOV  R@0,R26
                 	MOV  R@1,R27
                 	.ENDM
                 
                 	.MACRO __ADDWRN
                 	SUBI R@0,LOW(-@2)
                 	SBCI R@1,HIGH(-@2)
                 	.ENDM
                 
                 	.MACRO __ADDWRR
                 	ADD  R@0,R@2
                 	ADC  R@1,R@3
                 	.ENDM
                 
                 	.MACRO __SUBWRN
                 	SUBI R@0,LOW(@2)
                 	SBCI R@1,HIGH(@2)
                 	.ENDM
                 
                 	.MACRO __SUBWRR
                 	SUB  R@0,R@2
                 	SBC  R@1,R@3
                 	.ENDM
                 
                 	.MACRO __ANDWRN
                 	ANDI R@0,LOW(@2)
                 	ANDI R@1,HIGH(@2)
                 	.ENDM
                 
                 	.MACRO __ANDWRR
                 	AND  R@0,R@2
                 	AND  R@1,R@3
                 	.ENDM
                 
                 	.MACRO __ORWRN
                 	ORI  R@0,LOW(@2)
                 	ORI  R@1,HIGH(@2)
                 	.ENDM
                 
                 	.MACRO __ORWRR
                 	OR   R@0,R@2
                 	OR   R@1,R@3
                 	.ENDM
                 
                 	.MACRO __EORWRR
                 	EOR  R@0,R@2
                 	EOR  R@1,R@3
                 	.ENDM
                 
                 	.MACRO __GETWRS
                 	LDD  R@0,Y+@2
                 	LDD  R@1,Y+@2+1
                 	.ENDM
                 
                 	.MACRO __PUTWSR
                 	STD  Y+@2,R@0
                 	STD  Y+@2+1,R@1
                 	.ENDM
                 
                 	.MACRO __MOVEWRR
                 	MOV  R@0,R@2
                 	MOV  R@1,R@3
                 	.ENDM
                 
                 	.MACRO __INWR
                 	IN   R@0,@2
                 	IN   R@1,@2+1
                 	.ENDM
                 
                 	.MACRO __OUTWR
                 	OUT  @2+1,R@1
                 	OUT  @2,R@0
                 	.ENDM
                 
                 	.MACRO __CALL1MN
                 	LDS  R30,@0+@1
                 	LDS  R31,@0+@1+1
                 	ICALL
                 	.ENDM
                 
                 	.MACRO __CALL1FN
                 	LDI  R30,LOW(2*@0+@1)
                 	LDI  R31,HIGH(2*@0+@1)
                 	CALL __GETW1PF
                 	ICALL
                 	.ENDM
                 
                 	.MACRO __CALL2EN
                 	LDI  R26,LOW(@0+@1)
                 	LDI  R27,HIGH(@0+@1)
                 	CALL __EEPROMRDW
                 	ICALL
                 	.ENDM
                 
                 	.MACRO __GETW1STACK
                 	IN   R26,SPL
                 	IN   R27,SPH
                 	ADIW R26,@0+1
                 	LD   R30,X+
                 	LD   R31,X
                 	.ENDM
                 
                 	.MACRO __NBST
                 	BST  R@0,@1
                 	IN   R30,SREG
                 	LDI  R31,0x40
                 	EOR  R30,R31
                 	OUT  SREG,R30
                 	.ENDM
                 
                 
                 	.MACRO __PUTB1SN
                 	LDD  R26,Y+@0
                 	LDD  R27,Y+@0+1
                 	SUBI R26,LOW(-@1)
                 	SBCI R27,HIGH(-@1)
                 	ST   X,R30
                 	.ENDM
                 
                 	.MACRO __PUTW1SN
                 	LDD  R26,Y+@0
                 	LDD  R27,Y+@0+1
                 	SUBI R26,LOW(-@1)
                 	SBCI R27,HIGH(-@1)
                 	ST   X+,R30
                 	ST   X,R31
                 	.ENDM
                 
                 	.MACRO __PUTD1SN
                 	LDD  R26,Y+@0
                 	LDD  R27,Y+@0+1
                 	SUBI R26,LOW(-@1)
                 	SBCI R27,HIGH(-@1)
                 	CALL __PUTDP1
                 	.ENDM
                 
                 	.MACRO __PUTB1SNS
                 	LDD  R26,Y+@0
                 	LDD  R27,Y+@0+1
                 	ADIW R26,@1
                 	ST   X,R30
                 	.ENDM
                 
                 	.MACRO __PUTW1SNS
                 	LDD  R26,Y+@0
                 	LDD  R27,Y+@0+1
                 	ADIW R26,@1
                 	ST   X+,R30
                 	ST   X,R31
                 	.ENDM
                 
                 	.MACRO __PUTD1SNS
                 	LDD  R26,Y+@0
                 	LDD  R27,Y+@0+1
                 	ADIW R26,@1
                 	CALL __PUTDP1
                 	.ENDM
                 
                 	.MACRO __PUTB1PMN
                 	LDS  R26,@0
                 	LDS  R27,@0+1
                 	SUBI R26,LOW(-@1)
                 	SBCI R27,HIGH(-@1)
                 	ST   X,R30
                 	.ENDM
                 
                 	.MACRO __PUTW1PMN
                 	LDS  R26,@0
                 	LDS  R27,@0+1
                 	SUBI R26,LOW(-@1)
                 	SBCI R27,HIGH(-@1)
                 	ST   X+,R30
                 	ST   X,R31
                 	.ENDM
                 
                 	.MACRO __PUTD1PMN
                 	LDS  R26,@0
                 	LDS  R27,@0+1
                 	SUBI R26,LOW(-@1)
                 	SBCI R27,HIGH(-@1)
                 	CALL __PUTDP1
                 	.ENDM
                 
                 	.MACRO __PUTB1PMNS
                 	LDS  R26,@0
                 	LDS  R27,@0+1
                 	ADIW R26,@1
                 	ST   X,R30
                 	.ENDM
                 
                 	.MACRO __PUTW1PMNS
                 	LDS  R26,@0
                 	LDS  R27,@0+1
                 	ADIW R26,@1
                 	ST   X+,R30
                 	ST   X,R31
                 	.ENDM
                 
                 	.MACRO __PUTD1PMNS
                 	LDS  R26,@0
                 	LDS  R27,@0+1
                 	ADIW R26,@1
                 	CALL __PUTDP1
                 	.ENDM
                 
                 	.MACRO __PUTB1RN
                 	MOVW R26,R@0
                 	SUBI R26,LOW(-@1)
                 	SBCI R27,HIGH(-@1)
                 	ST   X,R30
                 	.ENDM
                 
                 	.MACRO __PUTW1RN
                 	MOVW R26,R@0
                 	SUBI R26,LOW(-@1)
                 	SBCI R27,HIGH(-@1)
                 	ST   X+,R30
                 	ST   X,R31
                 	.ENDM
                 
                 	.MACRO __PUTD1RN
                 	MOVW R26,R@0
                 	SUBI R26,LOW(-@1)
                 	SBCI R27,HIGH(-@1)
                 	CALL __PUTDP1
                 	.ENDM
                 
                 	.MACRO __PUTB1RNS
                 	MOVW R26,R@0
                 	ADIW R26,@1
                 	ST   X,R30
                 	.ENDM
                 
                 	.MACRO __PUTW1RNS
                 	MOVW R26,R@0
                 	ADIW R26,@1
                 	ST   X+,R30
                 	ST   X,R31
                 	.ENDM
                 
                 	.MACRO __PUTD1RNS
                 	MOVW R26,R@0
                 	ADIW R26,@1
                 	CALL __PUTDP1
                 	.ENDM
                 
                 	.MACRO __PUTB1RON
                 	MOV  R26,R@0
                 	MOV  R27,R@1
                 	SUBI R26,LOW(-@2)
                 	SBCI R27,HIGH(-@2)
                 	ST   X,R30
                 	.ENDM
                 
                 	.MACRO __PUTW1RON
                 	MOV  R26,R@0
                 	MOV  R27,R@1
                 	SUBI R26,LOW(-@2)
                 	SBCI R27,HIGH(-@2)
                 	ST   X+,R30
                 	ST   X,R31
                 	.ENDM
                 
                 	.MACRO __PUTD1RON
                 	MOV  R26,R@0
                 	MOV  R27,R@1
                 	SUBI R26,LOW(-@2)
                 	SBCI R27,HIGH(-@2)
                 	CALL __PUTDP1
                 	.ENDM
                 
                 	.MACRO __PUTB1RONS
                 	MOV  R26,R@0
                 	MOV  R27,R@1
                 	ADIW R26,@2
                 	ST   X,R30
                 	.ENDM
                 
                 	.MACRO __PUTW1RONS
                 	MOV  R26,R@0
                 	MOV  R27,R@1
                 	ADIW R26,@2
                 	ST   X+,R30
                 	ST   X,R31
                 	.ENDM
                 
                 	.MACRO __PUTD1RONS
                 	MOV  R26,R@0
                 	MOV  R27,R@1
                 	ADIW R26,@2
                 	CALL __PUTDP1
                 	.ENDM
                 
                 
                 	.MACRO __GETB1SX
                 	MOVW R30,R28
                 	SUBI R30,LOW(-@0)
                 	SBCI R31,HIGH(-@0)
                 	LD   R30,Z
                 	.ENDM
                 
                 	.MACRO __GETB1HSX
                 	MOVW R30,R28
                 	SUBI R30,LOW(-@0)
                 	SBCI R31,HIGH(-@0)
                 	LD   R31,Z
                 	.ENDM
                 
                 	.MACRO __GETW1SX
                 	MOVW R30,R28
                 	SUBI R30,LOW(-@0)
                 	SBCI R31,HIGH(-@0)
                 	LD   R0,Z+
                 	LD   R31,Z
                 	MOV  R30,R0
                 	.ENDM
                 
                 	.MACRO __GETD1SX
                 	MOVW R30,R28
                 	SUBI R30,LOW(-@0)
                 	SBCI R31,HIGH(-@0)
                 	LD   R0,Z+
                 	LD   R1,Z+
                 	LD   R22,Z+
                 	LD   R23,Z
                 	MOVW R30,R0
                 	.ENDM
                 
                 	.MACRO __GETB2SX
                 	MOVW R26,R28
                 	SUBI R26,LOW(-@0)
                 	SBCI R27,HIGH(-@0)
                 	LD   R26,X
                 	.ENDM
                 
                 	.MACRO __GETW2SX
                 	MOVW R26,R28
                 	SUBI R26,LOW(-@0)
                 	SBCI R27,HIGH(-@0)
                 	LD   R0,X+
                 	LD   R27,X
                 	MOV  R26,R0
                 	.ENDM
                 
                 	.MACRO __GETD2SX
                 	MOVW R26,R28
                 	SUBI R26,LOW(-@0)
                 	SBCI R27,HIGH(-@0)
                 	LD   R0,X+
                 	LD   R1,X+
                 	LD   R24,X+
                 	LD   R25,X
                 	MOVW R26,R0
                 	.ENDM
                 
                 	.MACRO __GETBRSX
                 	MOVW R30,R28
                 	SUBI R30,LOW(-@1)
                 	SBCI R31,HIGH(-@1)
                 	LD   R@0,Z
                 	.ENDM
                 
                 	.MACRO __GETWRSX
                 	MOVW R30,R28
                 	SUBI R30,LOW(-@2)
                 	SBCI R31,HIGH(-@2)
                 	LD   R@0,Z+
                 	LD   R@1,Z
                 	.ENDM
                 
                 	.MACRO __LSLW8SX
                 	MOVW R30,R28
                 	SUBI R30,LOW(-@0)
                 	SBCI R31,HIGH(-@0)
                 	LD   R31,Z
                 	CLR  R30
                 	.ENDM
                 
                 	.MACRO __PUTB1SX
                 	MOVW R26,R28
                 	SUBI R26,LOW(-@0)
                 	SBCI R27,HIGH(-@0)
                 	ST   X,R30
                 	.ENDM
                 
                 	.MACRO __PUTW1SX
                 	MOVW R26,R28
                 	SUBI R26,LOW(-@0)
                 	SBCI R27,HIGH(-@0)
                 	ST   X+,R30
                 	ST   X,R31
                 	.ENDM
                 
                 	.MACRO __PUTD1SX
                 	MOVW R26,R28
                 	SUBI R26,LOW(-@0)
                 	SBCI R27,HIGH(-@0)
                 	ST   X+,R30
                 	ST   X+,R31
                 	ST   X+,R22
                 	ST   X,R23
                 	.ENDM
                 
                 	.MACRO __CLRW1SX
                 	MOVW R30,R28
                 	SUBI R30,LOW(-@0)
                 	SBCI R31,HIGH(-@0)
                 	CLR  R0
                 	ST   Z+,R0
                 	ST   Z,R0
                 	.ENDM
                 
                 	.MACRO __CLRD1SX
                 	MOVW R30,R28
                 	SUBI R30,LOW(-@0)
                 	SBCI R31,HIGH(-@0)
                 	CLR  R0
                 	ST   Z+,R0
                 	ST   Z+,R0
                 	ST   Z+,R0
                 	ST   Z,R0
                 	.ENDM
                 
                 	.MACRO __PUTB2SX
                 	MOVW R30,R28
                 	SUBI R30,LOW(-@0)
                 	SBCI R31,HIGH(-@0)
                 	ST   Z,R26
                 	.ENDM
                 
                 	.MACRO __PUTW2SX
                 	MOVW R30,R28
                 	SUBI R30,LOW(-@0)
                 	SBCI R31,HIGH(-@0)
                 	ST   Z+,R26
                 	ST   Z,R27
                 	.ENDM
                 
                 	.MACRO __PUTD2SX
                 	MOVW R30,R28
                 	SUBI R30,LOW(-@0)
                 	SBCI R31,HIGH(-@0)
                 	ST   Z+,R26
                 	ST   Z+,R27
                 	ST   Z+,R24
                 	ST   Z,R25
                 	.ENDM
                 
                 	.MACRO __PUTBSRX
                 	MOVW R30,R28
                 	SUBI R30,LOW(-@0)
                 	SBCI R31,HIGH(-@0)
                 	ST   Z,R@1
                 	.ENDM
                 
                 	.MACRO __PUTWSRX
                 	MOVW R30,R28
                 	SUBI R30,LOW(-@2)
                 	SBCI R31,HIGH(-@2)
                 	ST   Z+,R@0
                 	ST   Z,R@1
                 	.ENDM
                 
                 	.MACRO __PUTB1SNX
                 	MOVW R26,R28
                 	SUBI R26,LOW(-@0)
                 	SBCI R27,HIGH(-@0)
                 	LD   R0,X+
                 	LD   R27,X
                 	MOV  R26,R0
                 	SUBI R26,LOW(-@1)
                 	SBCI R27,HIGH(-@1)
                 	ST   X,R30
                 	.ENDM
                 
                 	.MACRO __PUTW1SNX
                 	MOVW R26,R28
                 	SUBI R26,LOW(-@0)
                 	SBCI R27,HIGH(-@0)
                 	LD   R0,X+
                 	LD   R27,X
                 	MOV  R26,R0
                 	SUBI R26,LOW(-@1)
                 	SBCI R27,HIGH(-@1)
                 	ST   X+,R30
                 	ST   X,R31
                 	.ENDM
                 
                 	.MACRO __PUTD1SNX
                 	MOVW R26,R28
                 	SUBI R26,LOW(-@0)
                 	SBCI R27,HIGH(-@0)
                 	LD   R0,X+
                 	LD   R27,X
                 	MOV  R26,R0
                 	SUBI R26,LOW(-@1)
                 	SBCI R27,HIGH(-@1)
                 	ST   X+,R30
                 	ST   X+,R31
                 	ST   X+,R22
                 	ST   X,R23
                 	.ENDM
                 
                 	.MACRO __MULBRR
                 	MULS R@0,R@1
                 	MOVW R30,R0
                 	.ENDM
                 
                 	.MACRO __MULBRRU
                 	MUL  R@0,R@1
                 	MOVW R30,R0
                 	.ENDM
                 
                 	.MACRO __MULBRR0
                 	MULS R@0,R@1
                 	.ENDM
                 
                 	.MACRO __MULBRRU0
                 	MUL  R@0,R@1
                 	.ENDM
                 
                 	.MACRO __MULBNWRU
                 	LDI  R26,@2
                 	MUL  R26,R@0
                 	MOVW R30,R0
                 	MUL  R26,R@1
                 	ADD  R31,R0
                 	.ENDM
                 
                 	.CSEG
                 	.ORG 0
                 
                 	.INCLUDE "cooler_system.vec"
                 
                 ;INTERRUPT VECTORS
000000 940c 0139 	JMP  __RESET
000002 940c 0000 	JMP  0x00
000004 940c 0000 	JMP  0x00
000006 940c 0000 	JMP  0x00
000008 940c 0000 	JMP  0x00
00000a 940c 0000 	JMP  0x00
00000c 940c 0000 	JMP  0x00
00000e 940c 032a 	JMP  _timer1_compa_isr
000010 940c 0000 	JMP  0x00
000012 940c 0000 	JMP  0x00
000014 940c 0000 	JMP  0x00
000016 940c 0000 	JMP  0x00
000018 940c 0000 	JMP  0x00
00001a 940c 0000 	JMP  0x00
00001c 940c 0000 	JMP  0x00
00001e 940c 0000 	JMP  0x00
000020 940c 0000 	JMP  0x00
000022 940c 0000 	JMP  0x00
000024 940c 0000 	JMP  0x00
000026 940c 0000 	JMP  0x00
000028 940c 0000 	JMP  0x00
                 
                 	.INCLUDE "cooler_system.inc"
                 
                 	.DEF _mode=R5
                 	.DEF _seconds=R4
                 	.DEF _tin=R7
                 	.DEF _tout=R6
                 	.DEF _PREV_PINC=R9
                 _3:
cooler_system.inc(8): warning: .cseg .db misalignment - padding zero byte
cooler_system.asm(990): 'cooler_system.inc' included form here
00002a 00ff      	.DB  0xFF
                 _4:
00002b 161a
00002c 1a14
00002d 1a0a
00002e 0a0a      	.DB  0x1A,0x16,0x14,0x1A,0xA,0x1A,0xA,0xA
cooler_system.inc(11): warning: .cseg .db misalignment - padding zero byte
cooler_system.asm(990): 'cooler_system.inc' included form here
00002f 0025      	.DB  0x25
                 _0x5:
000030 4146      	.DB  0x46,0x41
000031 204e      	.DB  0x4E,0x20
000032 3154      	.DB  0x54,0x31
000033 003d      	.DB  0x3D,0x0
000034 0000      	.DB  0x0,0x0
000035 4146      	.DB  0x46,0x41
000036 204e      	.DB  0x4E,0x20
000037 3254      	.DB  0x54,0x32
000038 003d      	.DB  0x3D,0x0
000039 0000      	.DB  0x0,0x0
00003a 4146      	.DB  0x46,0x41
00003b 204e      	.DB  0x4E,0x20
00003c 3354      	.DB  0x54,0x33
00003d 003d      	.DB  0x3D,0x0
00003e 0000      	.DB  0x0,0x0
00003f 4853      	.DB  0x53,0x48
000040 2055      	.DB  0x55,0x20
000041 3454      	.DB  0x54,0x34
000042 003d      	.DB  0x3D,0x0
000043 0000      	.DB  0x0,0x0
000044 4853      	.DB  0x53,0x48
000045 2055      	.DB  0x55,0x20
000046 3554      	.DB  0x54,0x35
000047 003d      	.DB  0x3D,0x0
000048 0000      	.DB  0x0,0x0
000049 4f43      	.DB  0x43,0x4F
00004a 204e      	.DB  0x4E,0x20
00004b 3654      	.DB  0x54,0x36
00004c 003d      	.DB  0x3D,0x0
00004d 0000      	.DB  0x0,0x0
00004e 4f43      	.DB  0x43,0x4F
00004f 204e      	.DB  0x4E,0x20
000050 3754      	.DB  0x54,0x37
000051 003d      	.DB  0x3D,0x0
000052 0000      	.DB  0x0,0x0
000053 4f43      	.DB  0x43,0x4F
000054 204e      	.DB  0x4E,0x20
000055 3854      	.DB  0x54,0x38
000056 003d      	.DB  0x3D,0x0
000057 0000      	.DB  0x0,0x0
000058 4c41      	.DB  0x41,0x4C
000059 5241      	.DB  0x41,0x52
00005a 204d      	.DB  0x4D,0x20
00005b 3954      	.DB  0x54,0x39
00005c 003d      	.DB  0x3D,0x0
                 _0x15:
00005d 3154      	.DB  0x54,0x31
00005e 5400      	.DB  0x0,0x54
00005f 0032      	.DB  0x32,0x0
000060 3354      	.DB  0x54,0x33
000061 5400      	.DB  0x0,0x54
000062 0034      	.DB  0x34,0x0
000063 3554      	.DB  0x54,0x35
000064 5400      	.DB  0x0,0x54
000065 0036      	.DB  0x36,0x0
000066 3754      	.DB  0x54,0x37
000067 5400      	.DB  0x0,0x54
000068 0038      	.DB  0x38,0x0
000069 3954      	.DB  0x54,0x39
cooler_system.inc(72): warning: .cseg .db misalignment - padding zero byte
cooler_system.asm(990): 'cooler_system.inc' included form here
00006a 0000      	.DB  0x0
                 _0x4E:
00006b 4e49      	.DB  0x49,0x4E
00006c 4554      	.DB  0x54,0x45
00006d 5247      	.DB  0x47,0x52
00006e 4c41      	.DB  0x41,0x4C
00006f 4300      	.DB  0x0,0x43
000070 4f4f      	.DB  0x4F,0x4F
000071 454c      	.DB  0x4C,0x45
000072 2052      	.DB  0x52,0x20
000073 5953      	.DB  0x53,0x59
000074 5453      	.DB  0x53,0x54
000075 4d45      	.DB  0x45,0x4D
cooler_system.inc(85): warning: .cseg .db misalignment - padding zero byte
cooler_system.asm(990): 'cooler_system.inc' included form here
000076 0000      	.DB  0x0
                 	.DEF _therm_dq=R8
                 _0x99:
000077 0008      	.DB  0x8,0x0
000078 000c      	.DB  0xC,0x0
000079 000e      	.DB  0xE,0x0
00007a 000f      	.DB  0xF,0x0
                 __fround_G3:
00007b 0000
00007c 3f00
00007d cccd
00007e 3d4c      	.DB  0x0,0x0,0x0,0x3F,0xCD,0xCC,0x4C,0x3D
00007f d70a
000080 3ba3
000081 126f
000082 3a03      	.DB  0xA,0xD7,0xA3,0x3B,0x6F,0x12,0x3,0x3A
000083 b717
000084 3851
000085 c5ac
000086 36a7      	.DB  0x17,0xB7,0x51,0x38,0xAC,0xC5,0xA7,0x36
000087 37bd
000088 3506      	.DB  0xBD,0x37,0x6,0x35
                 _426:
000089 c080      	.DB  0x80,0xC0
                 	.DEF __lcd_x=R11
                 	.DEF __lcd_y=R10
                 	.DEF __lcd_maxx=R13
                 _435:
00008a 0000      	.DW  0x00
                 _0:
00008b 2020
00008c 0020
00008d 414d
00008e 4e49      	.DB  0x20,0x20,0x20,0x0,0x4D,0x41,0x49,0x4E
00008f 4d20
000090 4e45
000091 0055
000092 6954      	.DB  0x20,0x4D,0x45,0x4E,0x55,0x0,0x54,0x69
000093 3a6e
000094 2520
000095 2e2b
000096 6631      	.DB  0x6E,0x3A,0x20,0x25,0x2B,0x2E,0x31,0x66
000097 6325
000098 2043
000099 2020
00009a 0a20      	.DB  0x25,0x63,0x43,0x20,0x20,0x20,0x20,0xA
00009b 6f54
00009c 7475
00009d 203a
00009e 2b25      	.DB  0x54,0x6F,0x75,0x74,0x3A,0x20,0x25,0x2B
00009f 312e
0000a0 2566
0000a1 4363
0000a2 2020      	.DB  0x2E,0x31,0x66,0x25,0x63,0x43,0x20,0x20
0000a3 0020
0000a4 4146
0000a5 204e
0000a6 3154      	.DB  0x20,0x0,0x46,0x41,0x4E,0x20,0x54,0x31
0000a7 253d
0000a8 2064
0000a9 3254
0000aa 253d      	.DB  0x3D,0x25,0x64,0x20,0x54,0x32,0x3D,0x25
0000ab 0a64
0000ac 3354
0000ad 253d
0000ae 2064      	.DB  0x64,0xA,0x54,0x33,0x3D,0x25,0x64,0x20
0000af 2020
0000b0 2020
0000b1 2020
0000b2 2020      	.DB  0x20,0x20,0x20,0x20,0x20,0x20,0x20,0x20
0000b3 5300
0000b4 5548
0000b5 5420
0000b6 3d34      	.DB  0x0,0x53,0x48,0x55,0x20,0x54,0x34,0x3D
0000b7 6425
0000b8 5420
0000b9 3d35
0000ba 6425      	.DB  0x25,0x64,0x20,0x54,0x35,0x3D,0x25,0x64
0000bb 200a
0000bc 2020
0000bd 2020
0000be 2020      	.DB  0xA,0x20,0x20,0x20,0x20,0x20,0x20,0x20
0000bf 2020
0000c0 2020
0000c1 2020
0000c2 4300      	.DB  0x20,0x20,0x20,0x20,0x20,0x20,0x0,0x43
0000c3 4e4f
0000c4 5420
0000c5 3d36
0000c6 6425      	.DB  0x4F,0x4E,0x20,0x54,0x36,0x3D,0x25,0x64
0000c7 5420
0000c8 3d37
0000c9 6425
0000ca 540a      	.DB  0x20,0x54,0x37,0x3D,0x25,0x64,0xA,0x54
0000cb 3d38
0000cc 6425
0000cd 2020
0000ce 0020      	.DB  0x38,0x3D,0x25,0x64,0x20,0x20,0x20,0x0
0000cf 4c41
0000d0 5241
0000d1 204d
0000d2 3954      	.DB  0x41,0x4C,0x41,0x52,0x4D,0x20,0x54,0x39
0000d3 253d
0000d4 2064
0000d5 2020
0000d6 0a20      	.DB  0x3D,0x25,0x64,0x20,0x20,0x20,0x20,0xA
0000d7 2020
0000d8 2020
0000d9 2020
0000da 2020      	.DB  0x20,0x20,0x20,0x20,0x20,0x20,0x20,0x20
0000db 5400
0000dc 6e69
0000dd 203a
0000de 2b25      	.DB  0x0,0x54,0x69,0x6E,0x3A,0x20,0x25,0x2B
0000df 312e
0000e0 2566
0000e1 4363
0000e2 2020      	.DB  0x2E,0x31,0x66,0x25,0x63,0x43,0x20,0x20
0000e3 0a20
0000e4 6f54
0000e5 7475
0000e6 203a      	.DB  0x20,0xA,0x54,0x6F,0x75,0x74,0x3A,0x20
0000e7 2b25
0000e8 312e
0000e9 2566
0000ea 4363      	.DB  0x25,0x2B,0x2E,0x31,0x66,0x25,0x63,0x43
0000eb 2020
0000ec 0020
0000ed 4341
0000ee 4900      	.DB  0x20,0x20,0x20,0x0,0x41,0x43,0x0,0x49
0000ef 696e
0000f0 2074
0000f1 7265
0000f2 6f72      	.DB  0x6E,0x69,0x74,0x20,0x65,0x72,0x72,0x6F
0000f3 0a72
0000f4 6e69
0000f5 6f64
0000f6 726f      	.DB  0x72,0xA,0x69,0x6E,0x64,0x6F,0x6F,0x72
0000f7 7320
0000f8 6e65
0000f9 6f73
0000fa 0072      	.DB  0x20,0x73,0x65,0x6E,0x73,0x6F,0x72,0x0
0000fb 6e49
0000fc 7469
0000fd 6520
0000fe 7272      	.DB  0x49,0x6E,0x69,0x74,0x20,0x65,0x72,0x72
0000ff 726f
000100 6f0a
000101 7475
000102 6f64      	.DB  0x6F,0x72,0xA,0x6F,0x75,0x74,0x64,0x6F
000103 726f
000104 7320
000105 6e65
000106 6f73      	.DB  0x6F,0x72,0x20,0x73,0x65,0x6E,0x73,0x6F
000107 0072
000108 6954
000109 206e
00010a 7265      	.DB  0x72,0x0,0x54,0x69,0x6E,0x20,0x65,0x72
00010b 6f72
00010c 0a72
00010d 6f54
00010e 7475      	.DB  0x72,0x6F,0x72,0xA,0x54,0x6F,0x75,0x74
00010f 6520
000110 7272
000111 726f
000112 5400      	.DB  0x20,0x65,0x72,0x72,0x6F,0x72,0x0,0x54
000113 6e69
000114 6520
000115 7272
000116 726f      	.DB  0x69,0x6E,0x20,0x65,0x72,0x72,0x6F,0x72
000117 540a
000118 756f
000119 3a74
00011a 2520      	.DB  0xA,0x54,0x6F,0x75,0x74,0x3A,0x20,0x25
00011b 2e2b
00011c 6631
00011d 6325
00011e 0043      	.DB  0x2B,0x2E,0x31,0x66,0x25,0x63,0x43,0x0
00011f 6954
000120 3a6e
000121 2520
000122 2e2b      	.DB  0x54,0x69,0x6E,0x3A,0x20,0x25,0x2B,0x2E
000123 6631
000124 6325
000125 0a43
000126 6f54      	.DB  0x31,0x66,0x25,0x63,0x43,0xA,0x54,0x6F
000127 7475
000128 6520
000129 7272
00012a 726f      	.DB  0x75,0x74,0x20,0x65,0x72,0x72,0x6F,0x72
cooler_system.inc(145): warning: .cseg .db misalignment - padding zero byte
cooler_system.asm(990): 'cooler_system.inc' included form here
00012b 0000      	.DB  0x0
                 
                 __GLOBAL_INI_TBL:
00012c 0001      	.DW  0x01
00012d 0009      	.DW  0x09
00012e 0054      	.DW  _3*2
                 
00012f 0009      	.DW  0x09
000130 0289      	.DW  _temp
000131 0056      	.DW  _4*2
                 
000132 0002      	.DW  0x02
000133 029b      	.DW  __base_y_G4
000134 0112      	.DW  _426*2
                 
000135 0002      	.DW  0x02
000136 029f      	.DW  _p_S6A
000137 0114      	.DW  _435*2
                 
000138 0000      	.DW  0
                 _0x1CB:
                 
                 __RESET:
000139 94f8      	CLI
00013a 27ee      	CLR  R30
00013b bbec      	OUT  EECR,R30
                 
                 ;INTERRUPT VECTORS ARE PLACED
                 ;AT THE START OF FLASH
00013c e0f1      	LDI  R31,1
00013d bffb      	OUT  GICR,R31
00013e bfeb      	OUT  GICR,R30
00013f bfe5      	OUT  MCUCR,R30
                 
                 ;DISABLE WATCHDOG
000140 e1f8      	LDI  R31,0x18
000141 bdf1      	OUT  WDTCR,R31
000142 bde1      	OUT  WDTCR,R30
                 
                 ;CLEAR R2-R14
000143 e08d      	LDI  R24,13
000144 e0a2      	LDI  R26,2
000145 27bb      	CLR  R27
                 __CLEAR_REG:
000146 93ed      	ST   X+,R30
000147 958a      	DEC  R24
000148 f7e9      	BRNE __CLEAR_REG
                 
                 ;CLEAR SRAM
000149 e080      	LDI  R24,LOW(0x800)
00014a e098      	LDI  R25,HIGH(0x800)
00014b e6a0      	LDI  R26,0x60
                 __CLEAR_SRAM:
00014c 93ed      	ST   X+,R30
00014d 9701      	SBIW R24,1
00014e f7e9      	BRNE __CLEAR_SRAM
                 
                 ;GLOBAL VARIABLES INITIALIZATION
00014f e5e8      	LDI  R30,LOW(__GLOBAL_INI_TBL*2)
000150 e0f2      	LDI  R31,HIGH(__GLOBAL_INI_TBL*2)
                 __GLOBAL_INI_NEXT:
000151 9185      	LPM  R24,Z+
000152 9195      	LPM  R25,Z+
000153 9700      	SBIW R24,0
000154 f061      	BREQ __GLOBAL_INI_END
000155 91a5      	LPM  R26,Z+
000156 91b5      	LPM  R27,Z+
000157 9005      	LPM  R0,Z+
000158 9015      	LPM  R1,Z+
000159 01bf      	MOVW R22,R30
00015a 01f0      	MOVW R30,R0
                 __GLOBAL_INI_LOOP:
00015b 9005      	LPM  R0,Z+
00015c 920d      	ST   X+,R0
00015d 9701      	SBIW R24,1
00015e f7e1      	BRNE __GLOBAL_INI_LOOP
00015f 01fb      	MOVW R30,R22
000160 cff0      	RJMP __GLOBAL_INI_NEXT
                 __GLOBAL_INI_END:
                 
                 ;STACK POINTER INITIALIZATION
000161 e5ef      	LDI  R30,LOW(0x85F)
000162 bfed      	OUT  SPL,R30
000163 e0e8      	LDI  R30,HIGH(0x85F)
000164 bfee      	OUT  SPH,R30
                 
                 ;DATA STACK POINTER INITIALIZATION
000165 e6c0      	LDI  R28,LOW(0x260)
000166 e0d2      	LDI  R29,HIGH(0x260)
                 
000167 940c 0367 	JMP  _main
                 
                 	.ESEG
                 	.ORG 0
                 
                 	.DSEG
                 	.ORG 0x260
                 ;       1 /*****************************************************
                 ;       2 Project : COOLER SYSTEM
                 ;       3 Version : version 2.1 developed in CodeVisionAVR v1.25.8
                 ;       4 Date    : 25.06.2010
                 ;       5 Author  : Ihor Holovatyy
                 ;       6 Company : INTEGRAL
                 ;       7 Comments: this program is used for cooler system designed on the base of AVR ATmega32 microcontroller
                 ;       8 
                 ;       9 Chip type           : ATmega32
                 ;      10 Program type        : Application
                 ;      11 Clock frequency     : 8,000000 MHz
                 ;      12 Memory model        : Small
                 ;      13 External SRAM size  : 0
                 ;      14 Data Stack size     : 512
                 ;      15 *****************************************************/
                 ;      16 
                 ;      17 #include <mega32.h>
                 ;      18 	#ifndef __SLEEP_DEFINED__
                 	#ifndef __SLEEP_DEFINED__
                 ;      19 	#define __SLEEP_DEFINED__
                 	#define __SLEEP_DEFINED__
                 ;      20 	.EQU __se_bit=0x80
                 	.EQU __se_bit=0x80
                 ;      21 	.EQU __sm_mask=0x70
                 	.EQU __sm_mask=0x70
                 ;      22 	.EQU __sm_powerdown=0x20
                 	.EQU __sm_powerdown=0x20
                 ;      23 	.EQU __sm_powersave=0x30
                 	.EQU __sm_powersave=0x30
                 ;      24 	.EQU __sm_standby=0x60
                 	.EQU __sm_standby=0x60
                 ;      25 	.EQU __sm_ext_standby=0x70
                 	.EQU __sm_ext_standby=0x70
                 ;      26 	.EQU __sm_adc_noise_red=0x10
                 	.EQU __sm_adc_noise_red=0x10
                 ;      27 	.SET power_ctrl_reg=mcucr
                 	.SET power_ctrl_reg=mcucr
                 ;      28 	#endif
                 	#endif
                 ;      29 #include <stdio.h>
                 ;      30 #include <delay.h>
                 ;      31 #include <lcd.h> // функції LCD
                 ;      32 #include "therm_ds18b20.h"
                 ;      33 
                 ;      34 /*#ifndef F_CPU
                 ;      35 	#define F_CPU 8000000UL 	//частота тактового генератора в Гц (8 МГц тут)
                 ;      36 #endif*/
                 ;      37 
                 ;      38 /*
                 ;      39 #define T_IN_FAN_ON 22     		//внутрішня температура вмикання FAN
                 ;      40 #define T_IN_FAN_OFF 20			//внутрішня температура вимикання FAN
                 ;      41 #define T_OUT_FAN_OFF 26		//зовнішня температура виключення FAN
                 ;      42 
                 ;      43 #define T_OUT_SHU_OFF_MAX 26	//максимальна зовнішня температура закриття заслонки
                 ;      44 #define T_OUT_SHU_OFF_MIN 10	//мінімальна зовнішня температура закриття заслонки
                 ;      45 
                 ;      46 #define T_IN_CON_ON_MAX 26		//максимальна внутрішня температура включення кондиціонера
                 ;      47 #define T_IN_CON_ON_MIN 10		//мінімальна внутрішня температура включення кондиціонера
                 ;      48 #define T_OUT_CON_ON 10			//зовнішня температура включення кондиціонера
                 ;      49 */
                 ;      50 
                 ;      51 //кнопка exit/mode change
                 ;      52 #define BTN_PORT PORTB
                 ;      53 #define BTN_PORT_DDR DDRB
                 ;      54 #define BTN_PIN PINB
                 ;      55 #define BTN 1
                 ;      56 //світлодіод на кнопку exit/mode change
                 ;      57 #define BTN_LED_PORT PORTD
                 ;      58 #define BTN_LED_PORT_DDR DDRD
                 ;      59 #define BTN_LED 6
                 ;      60 //алярмова кнопка
                 ;      61 #define T_ALARM 37
                 ;      62 #define ALRM_BTN_PORT PORTB
                 ;      63 #define ALRM_BTN_PORT_DDR DDRB
                 ;      64 #define ALRM_BTN_PIN PINB
                 ;      65 #define ALRM_BTN 0
                 ;      66 //вентилятор
                 ;      67 #define FAN_PORT PORTD
                 ;      68 #define FAN_PORT_DDR DDRD
                 ;      69 #define FAN 3
                 ;      70 #define LED_FAN 0
                 ;      71 //заслонка
                 ;      72 #define SHU_PORT PORTD
                 ;      73 #define SHU_PORT_DDR DDRD
                 ;      74 #define SHU 4
                 ;      75 #define LED_SHU 1
                 ;      76 //кондиціонер
                 ;      77 #define CON_PORT PORTD
                 ;      78 #define CON_PORT_DDR DDRD
                 ;      79 #define CON 5
                 ;      80 #define LED_CON 2
                 ;      81 #define COND_PORT PORTC
                 ;      82 #define COND_PORT_DDR DDRC
                 ;      83 #define COND 6
                 ;      84 #define NORMAL 7
                 ;      85 //кнопки настройки MENU/ENTER, SELECT+, SELECT-
                 ;      86 #define BTNS_PORT PORTC
                 ;      87 #define BTNS_PORT_DDR DDRC
                 ;      88 #define MENU_ENTER_BTN 3
                 ;      89 #define SELECT_PLUS_BTN 4
                 ;      90 #define SELECT_MINUS_BTN 5
                 ;      91 
                 ;      92 #asm
                 ;      93     .equ __lcd_port=0x1b // порт піключення LCD, PORTA
                     .equ __lcd_port=0x1b // порт піключення LCD, PORTA
                 ;      94 #endasm
                 ;      95 
                 ;      96 #define CS10   0
                 ;      97 #define CS11   1
                 ;      98 #define CS12   2
                 ;      99 #define OCIE1A 4 //біт дозволу переривання при досягненні значення в лічильнику рівного значенню в рег. A
                 ;     100 
                 ;     101 char /*lcd_buffer[5][33],*/ buffer[33];
                 _buffer:
000260           	.BYTE 0x21
                 ;     102 uint8_t mode=0, seconds=0;
                 ;     103 bit fan=0, con=0, alarmBtnState=0, button_pressed=0;
                 ;     104 float tinf=0.0f, toutf=0.0f;
                 _tinf:
000281           	.BYTE 0x4
                 _toutf:
000285           	.BYTE 0x4
                 ;     105 char tin=0, tout=0;
                 ;     106 
                 ;     107 unsigned char PREV_PINC=0xff;
                 ;     108 
                 ;     109 char temp[]={
                 _temp:
                 ;     110     26, /* T_OUT_FAN_OFF зовнішня температура виключення FAN */
                 ;     111     22, /* T_IN_FAN_ON внутрішня температура вмикання FAN */
                 ;     112     20, /* T_IN_FAN_OFF внутрішня температура вимикання FAN */
                 ;     113     26, /* T_OUT_SHU_OFF_MAX максимальна зовнішня температура закриття заслонки */
                 ;     114     10, /* T_OUT_SHU_OFF_MIN мінімальна зовнішня температура закриття заслонки */
                 ;     115     26, /* T_IN_CON_ON_MAX максимальна внутрішня температура включення кондиціонера */
                 ;     116     10, /* T_IN_CON_ON_MIN мінімальна внутрішня температура включення кондиціонера */
                 ;     117     10, /* T_OUT_CON_ON зовнішня температура включення кондиціонера */
                 ;     118     37  /* T_ALARM аварійна температура виключення вентилятора (FAN) і заслонки (SHU) */
                 ;     119 }; // temperatures
000289           	.BYTE 0x9
                 ;     120 
                 ;     121 unsigned char get_key_status(unsigned char key)
                 ;     122 {
                 
                 	.CSEG
                 _get_key_status:
                 ;     123   return (!(PINC & (1<<key)));
                 ;	key -> Y+0
000169 b213      	IN   R1,19
00016a 81e8      	LD   R30,Y
00016b 940e 0af2 	CALL SUBOPT_0x0
00016d 940e 0d40 	CALL __LNEGB1
00016f c007      	RJMP _0x1C1
                 ;     124 }
                 ;     125 
                 ;     126 unsigned char get_prev_key_status(unsigned char key)
                 ;     127 {
                 _get_prev_key_status:
                 ;     128   return (!(PREV_PINC & (1<<key)));
                 ;	key -> Y+0
000170 81e8      	LD   R30,Y
000171 e0a1      	LDI  R26,LOW(1)
000172 940e 0d19 	CALL __LSLB12
000174 21e9      	AND  R30,R9
000175 940e 0d40 	CALL __LNEGB1
                 _0x1C1:
000177 9621      	ADIW R28,1
000178 9508      	RET
                 ;     129 }
                 ;     130 
                 ;     131 void enter_temp(int sel)
                 ;     132 {
                 _enter_temp:
                 ;     133   char items[9][10]={"FAN T1=", "FAN T2=", "FAN T3=", "SHU T4=", "SHU T5=", "CON T6=", "CON T7=", "CON T8=", "ALARM T9="};
                 ;     134   char t=temp[sel];
                 ;     135 
                 ;     136   while(1)
000179 97ef      	SBIW R28,63
00017a 976b      	SBIW R28,27
00017b e58a      	LDI  R24,90
00017c e0a0      	LDI  R26,LOW(0)
00017d e0b0      	LDI  R27,HIGH(0)
00017e e6e0      	LDI  R30,LOW(_0x5*2)
00017f e0f0      	LDI  R31,HIGH(_0x5*2)
000180 940e 0f8d 	CALL __INITLOCB
000182 931a      	ST   -Y,R17
                 ;	sel -> Y+91
                 ;	items -> Y+1
                 ;	t -> R17
000183 940e 0af7 	CALL SUBOPT_0x1
000185 57e7      	SUBI R30,LOW(-_temp)
000186 4ffd      	SBCI R31,HIGH(-_temp)
000187 81e0      	LD   R30,Z
000188 2f1e      	MOV  R17,R30
                 _0x6:
                 ;     137   {
                 ;     138     PREV_PINC=PINC;
000189 b293      	IN   R9,19
                 ;     139 
                 ;     140     lcd_gotoxy(0,0);
00018a 940e 0afe 	CALL SUBOPT_0x2
                 ;     141     lcd_puts(items[sel]);
00018c 940e 0af7 	CALL SUBOPT_0x1
00018e e0aa      	LDI  R26,LOW(10)
00018f e0b0      	LDI  R27,HIGH(10)
000190 940e 0d45 	CALL __MULW12U
000192 01de      	MOVW R26,R28
000193 9611      	ADIW R26,1
000194 940e 0b03 	CALL SUBOPT_0x3
                 ;     142     lcd_putchar((48+t/10));
000196 2fa1      	MOV  R26,R17
000197 e0ea      	LDI  R30,LOW(10)
000198 940e 0d4d 	CALL __DIVB21U
00019a 5de0      	SUBI R30,-LOW(48)
00019b 93ea      	ST   -Y,R30
00019c 940e 0a5a 	CALL _lcd_putchar
                 ;     143     lcd_putchar((48+t%10));
00019e 2fa1      	MOV  R26,R17
00019f e0ea      	LDI  R30,LOW(10)
0001a0 940e 0d91 	CALL __MODB21U
0001a2 5de0      	SUBI R30,-LOW(48)
0001a3 93ea      	ST   -Y,R30
0001a4 940e 0a5a 	CALL _lcd_putchar
                 ;     144     lcd_putsf("   ");
0001a6 e1e6
0001a7 e0f1      	__POINTW1FN _0,0
0001a8 940e 0b09 	CALL SUBOPT_0x4
                 ;     145     delay_ms(50);
0001aa 940e 0b0d 	CALL SUBOPT_0x5
                 ;     146 
                 ;     147     if (get_key_status(SELECT_PLUS_BTN))  //select+
0001ac f039      	BREQ _0x9
                 ;     148     {
                 ;     149       if (!get_prev_key_status(SELECT_PLUS_BTN))
0001ad e0e4      	LDI  R30,LOW(4)
0001ae 940e 0b19 	CALL SUBOPT_0x6
0001b0 f419      	BRNE _0xA
                 ;     150       {
                 ;     151         if (t<60)
0001b1 331c      	CPI  R17,60
0001b2 f408      	BRSH _0xB
                 ;     152           t++;
0001b3 5f1f      	SUBI R17,-1
                 ;     153       }
                 _0xB:
                 ;     154     }
                 _0xA:
                 ;     155 
                 ;     156     if (get_key_status(SELECT_MINUS_BTN)) //select-
                 _0x9:
0001b4 e0e5      	LDI  R30,LOW(5)
0001b5 940e 0b1e 	CALL SUBOPT_0x7
0001b7 f039      	BREQ _0xC
                 ;     157     {
                 ;     158       if (!get_prev_key_status(SELECT_MINUS_BTN))
0001b8 e0e5      	LDI  R30,LOW(5)
0001b9 940e 0b19 	CALL SUBOPT_0x6
0001bb f419      	BRNE _0xD
                 ;     159       {
                 ;     160         if (t>10)
0001bc 301b      	CPI  R17,11
0001bd f008      	BRLO _0xE
                 ;     161           t--;
0001be 5011      	SUBI R17,1
                 ;     162       }
                 _0xE:
                 ;     163     }
                 _0xD:
                 ;     164 
                 ;     165     if (get_key_status(MENU_ENTER_BTN)) //enter
                 _0xC:
0001bf e0e3      	LDI  R30,LOW(3)
0001c0 940e 0b1e 	CALL SUBOPT_0x7
0001c2 f119      	BREQ _0xF
                 ;     166     {
                 ;     167       if (!get_prev_key_status(MENU_ENTER_BTN))
0001c3 e0e3      	LDI  R30,LOW(3)
0001c4 940e 0b19 	CALL SUBOPT_0x6
0001c6 f4f9      	BRNE _0x10
                 ;     168       {
                 ;     169         if (t!=temp[sel])
0001c7 940e 0b23 	CALL SUBOPT_0x8
0001c9 81e0      	LD   R30,Z
0001ca 17e1      	CP   R30,R17
0001cb f019      	BREQ _0x11
                 ;     170           temp[sel]=t;
0001cc 940e 0b23 	CALL SUBOPT_0x8
0001ce 8310      	ST   Z,R17
                 ;     171         if (sel==8) sel=0;
                 _0x11:
0001cf 01de
0001d0 5aa5
0001d1 4fbf
0001d2 900d
0001d3 91bc
0001d4 2da0      	__GETW2SX 91
0001d5 9718      	SBIW R26,8
0001d6 f439      	BRNE _0x12
0001d7 01fe
0001d8 5ae5
0001d9 4fff
0001da 2400
0001db 9201
0001dc 8200      	__CLRW1SX 91
                 ;     172         else sel++;
0001dd c005      	RJMP _0x13
                 _0x12:
0001de 01de      	MOVW R26,R28
0001df 5aa5      	SUBI R26,LOW(-(91))
0001e0 4fbf      	SBCI R27,HIGH(-(91))
0001e1 940e 0b27 	CALL SUBOPT_0x9
                 ;     173         t=temp[sel];
                 _0x13:
0001e3 940e 0b23 	CALL SUBOPT_0x8
0001e5 8110      	LD   R17,Z
                 ;     174       }
                 ;     175     }
                 _0x10:
                 ;     176 
                 ;     177     if (!(BTN_PIN & (1<<BTN))) //exit
                 _0xF:
0001e6 99b1      	SBIC 0x16,1
0001e7 c002      	RJMP _0x14
                 ;     178       return;
0001e8 8118      	LDD  R17,Y+0
0001e9 c001      	RJMP _0x1C0
                 ;     179 
                 ;     180   }
                 _0x14:
0001ea cf9e      	RJMP _0x6
                 ;     181 }
                 _0x1C0:
0001eb 96ef      	ADIW R28,63
0001ec 966e      	ADIW R28,30
0001ed 9508      	RET
                 ;     182 
                 ;     183 void show_main_menu(void)
                 ;     184 {
                 _show_main_menu:
                 ;     185   char menu_items[9][3]={"T1", "T2", "T3", "T4", "T5", "T6", "T7", "T8", "T9"};
                 ;     186   int selected=0;
                 ;     187   lcd_gotoxy(3,0);
0001ee 976b      	SBIW R28,27
0001ef e18b      	LDI  R24,27
0001f0 e0a0      	LDI  R26,LOW(0)
0001f1 e0b0      	LDI  R27,HIGH(0)
0001f2 ebea      	LDI  R30,LOW(_0x15*2)
0001f3 e0f0      	LDI  R31,HIGH(_0x15*2)
0001f4 940e 0f8d 	CALL __INITLOCB
0001f6 931a      	ST   -Y,R17
0001f7 930a      	ST   -Y,R16
                 ;	menu_items -> Y+2
                 ;	selected -> R16,R17
0001f8 e000      	LDI  R16,0
0001f9 e010      	LDI  R17,0
0001fa e0e3      	LDI  R30,LOW(3)
0001fb 940e 0b2d 	CALL SUBOPT_0xA
                 ;     188   lcd_putsf("MAIN MENU");
0001fd e1ea
0001fe e0f1      	__POINTW1FN _0,4
0001ff 940e 0b09 	CALL SUBOPT_0x4
                 ;     189 
                 ;     190   while(1)
                 _0x16:
                 ;     191   {
                 ;     192     PREV_PINC=PINC;
000201 b293      	IN   R9,19
                 ;     193     lcd_gotoxy(7,1);
000202 e0e7      	LDI  R30,LOW(7)
000203 93ea      	ST   -Y,R30
000204 e0e1      	LDI  R30,LOW(1)
000205 93ea      	ST   -Y,R30
000206 940e 0a34 	CALL _lcd_gotoxy
                 ;     194     lcd_puts(menu_items[selected]);
000208 e0a3
000209 9fa0
00020a 01f0
00020b 9fa1
00020c 0df0      	__MULBNWRU 16,17,3
00020d 01de      	MOVW R26,R28
00020e 9612      	ADIW R26,2
00020f 940e 0b03 	CALL SUBOPT_0x3
                 ;     195     delay_ms(50);
000211 940e 0b0d 	CALL SUBOPT_0x5
                 ;     196 
                 ;     197     if (get_key_status(SELECT_PLUS_BTN))  //select+
000213 f059      	BREQ _0x19
                 ;     198     {
                 ;     199       if (!get_prev_key_status(SELECT_PLUS_BTN))
000214 e0e4      	LDI  R30,LOW(4)
000215 940e 0b19 	CALL SUBOPT_0x6
000217 f439      	BRNE _0x1A
                 ;     200       {
                 ;     201         if (selected!=8)
000218 e0e8      	LDI  R30,LOW(8)
000219 e0f0      	LDI  R31,HIGH(8)
00021a 17e0      	CP   R30,R16
00021b 07f1      	CPC  R31,R17
00021c f011      	BREQ _0x1B
                 ;     202           selected++;
00021d 5f0f
00021e 4f1f      	__ADDWRN 16,17,1
                 ;     203       }
                 _0x1B:
                 ;     204     }
                 _0x1A:
                 ;     205 
                 ;     206     if (get_key_status(SELECT_MINUS_BTN)) //select-
                 _0x19:
00021f e0e5      	LDI  R30,LOW(5)
000220 940e 0b1e 	CALL SUBOPT_0x7
000222 f049      	BREQ _0x1C
                 ;     207     {
                 ;     208       if (!get_prev_key_status(SELECT_MINUS_BTN))
000223 e0e5      	LDI  R30,LOW(5)
000224 940e 0b19 	CALL SUBOPT_0x6
000226 f429      	BRNE _0x1D
                 ;     209       {
                 ;     210         if (selected!=0)
000227 2e00      	MOV  R0,R16
000228 2a01      	OR   R0,R17
000229 f011      	BREQ _0x1E
                 ;     211           selected--;
00022a 5001
00022b 4010      	__SUBWRN 16,17,1
                 ;     212       }
                 _0x1E:
                 ;     213     }
                 _0x1D:
                 ;     214 
                 ;     215     if (get_key_status(MENU_ENTER_BTN)) //enter
                 _0x1C:
00022c e0e3      	LDI  R30,LOW(3)
00022d 940e 0b1e 	CALL SUBOPT_0x7
00022f f051      	BREQ _0x1F
                 ;     216     {
                 ;     217       if (!get_prev_key_status(MENU_ENTER_BTN))
000230 e0e3      	LDI  R30,LOW(3)
000231 940e 0b19 	CALL SUBOPT_0x6
000233 f431      	BRNE _0x20
                 ;     218       {
                 ;     219         lcd_clear();
000234 940e 0a44 	CALL _lcd_clear
                 ;     220         enter_temp(selected);
000236 931a      	ST   -Y,R17
000237 930a      	ST   -Y,R16
000238 940e 0179 	CALL _enter_temp
                 ;     221       }
                 ;     222     }
                 _0x20:
                 ;     223 
                 ;     224     if (!(BTN_PIN & (1<<BTN))) //exit
                 _0x1F:
00023a 99b1      	SBIC 0x16,1
00023b c003      	RJMP _0x21
                 ;     225     {
                 ;     226       button_pressed=1;
00023c 9468      	SET
00023d f823      	BLD  R2,3
                 ;     227       return;
00023e c001      	RJMP _0x1BF
                 ;     228     }
                 ;     229 
                 ;     230   }
                 _0x21:
00023f cfc1      	RJMP _0x16
                 ;     231 }
                 _0x1BF:
000240 8119      	LDD  R17,Y+1
000241 8108      	LDD  R16,Y+0
000242 966d      	ADIW R28,29
000243 9508      	RET
                 ;     232 
                 ;     233 //робочий алгоритм роботи COOLER SYSTEM
                 ;     234 void working_algorithm(void)
                 ;     235 {
                 _working_algorithm:
                 ;     236 	//управління кондиціонером
                 ;     237     if (tin >= temp[5] || tin <= temp[6] || tout <= temp[7])
000244 91e0 028e 	__GETB1MN _temp,5
000246 167e      	CP   R7,R30
000247 f440      	BRSH _0x23
000248 91e0 028f 	__GETB1MN _temp,6
00024a 15e7      	CP   R30,R7
00024b f420      	BRSH _0x23
00024c 91e0 0290 	__GETB1MN _temp,7
00024e 15e6      	CP   R30,R6
00024f f038      	BRLO _0x22
                 _0x23:
                 ;     238     {
                 ;     239 		CON_PORT&=~(1<<CON);
000250 9895      	CBI  0x12,5
                 ;     240 		CON_PORT|=1<<LED_CON; //con=1;
000251 9a92      	SBI  0x12,2
                 ;     241 		con=1;
000252 9468      	SET
000253 f821      	BLD  R2,1
                 ;     242 		SHU_PORT&=~(1<<SHU)&~(1<<LED_SHU);
000254 940e 0b32 	CALL SUBOPT_0xB
                 ;     243 		FAN_PORT&=~(1<<FAN)&~(1<<LED_FAN);
                 ;     244 		fan=0;
000256 c035      	RJMP _0x1C2
                 ;     245 	}
                 ;     246 	else
                 _0x22:
                 ;     247 	{
                 ;     248 	    if (tin <= (temp[5]-2) || tout >= (temp[7]+2))
000257 91e0 028e 	__GETB1MN _temp,5
000259 50e2      	SUBI R30,LOW(2)
00025a 15e7      	CP   R30,R7
00025b f428      	BRSH _0x27
00025c 91e0 0290 	__GETB1MN _temp,7
00025e 5fee      	SUBI R30,-LOW(2)
00025f 166e      	CP   R6,R30
000260 f160      	BRLO _0x26
                 _0x27:
                 ;     249 	    {
                 ;     250 	        CON_PORT|=1<<CON;
000261 9a95      	SBI  0x12,5
                 ;     251 	        CON_PORT&=~(1<<LED_CON); //con=0;
000262 9892      	CBI  0x12,2
                 ;     252 	        con=0;
000263 94e8      	CLT
000264 f821      	BLD  R2,1
                 ;     253 	        //управління заслонкою
                 ;     254 	        if (tout >= temp[3] || tout <= temp[4])
000265 91e0 028c 	__GETB1MN _temp,3
000267 166e      	CP   R6,R30
000268 f420      	BRSH _0x2A
000269 91e0 028d 	__GETB1MN _temp,4
00026b 15e6      	CP   R30,R6
00026c f018      	BRLO _0x29
                 _0x2A:
                 ;     255 	        {
                 ;     256 	            SHU_PORT&=~(1<<SHU)&~(1<<LED_SHU); //shu=0; заслонка закрита
00026d 940e 0b32 	CALL SUBOPT_0xB
                 ;     257 	            FAN_PORT&=~(1<<FAN)&~(1<<LED_FAN);
                 ;     258 		        fan=0;
00026f c01c      	RJMP _0x1C2
                 ;     259             }
                 ;     260 	        else
                 _0x29:
                 ;     261 	        {
                 ;     262 	            SHU_PORT|=(1<<SHU|1<<LED_SHU); //shu=1;
000270 b3e2      	IN   R30,0x12
000271 61e2      	ORI  R30,LOW(0x12)
000272 bbe2      	OUT  0x12,R30
                 ;     263 	            //управління FAN
                 ;     264 	            if (tout >= temp[0] || (fan==1 && tin <= temp[2]))
000273 91e0 0289 	LDS  R30,_temp
000275 166e      	CP   R6,R30
000276 f438      	BRSH _0x2E
000277 fe20      	SBRS R2,0
000278 c004      	RJMP _0x2F
000279 91e0 028b 	__GETB1MN _temp,2
00027b 15e7      	CP   R30,R7
00027c f408      	BRSH _0x2E
                 _0x2F:
00027d c003      	RJMP _0x2D
                 _0x2E:
                 ;     265 	            {
                 ;     266 		            FAN_PORT&=~(1<<FAN)&~(1<<LED_FAN);
00027e 940e 0b3a 	CALL SUBOPT_0xC
                 ;     267 		            fan=0;
000280 c00b      	RJMP _0x1C2
                 ;     268 	            }
                 ;     269 	            else if (fan==0 && tin >= temp[1])
                 _0x2D:
000281 fc20      	SBRC R2,0
000282 c004      	RJMP _0x34
000283 91e0 028a 	__GETB1MN _temp,1
000285 167e      	CP   R7,R30
000286 f408      	BRSH _0x35
                 _0x34:
000287 c005      	RJMP _0x33
                 _0x35:
                 ;     270 	            {
                 ;     271 	                FAN_PORT|=1<<FAN|1<<LED_FAN;
000288 b3e2      	IN   R30,0x12
000289 60e9      	ORI  R30,LOW(0x9)
00028a bbe2      	OUT  0x12,R30
                 ;     272 		            fan=1;
00028b 9468      	SET
                 _0x1C2:
00028c f820      	BLD  R2,0
                 ;     273 	            }
                 ;     274 	         }
                 _0x33:
                 ;     275 	    }
                 ;     276 	}
                 _0x26:
                 ;     277    /* if (i==0)
                 ;     278 	  sprintf(lcd_buffer[0], "Tin: %+.1f%cC   \nTout: %+.1f%cC   ", tinf, 0xdf, toutf, 0xdf);
                 ;     279 	lcd_gotoxy(0,0);
                 ;     280 	lcd_puts(lcd_buffer[i]); */
                 ;     281 	switch (mode)
00028d 2de5      	MOV  R30,R5
                 ;     282 	{
                 ;     283 	  case 0: sprintf(buffer, "Tin: %+.1f%cC    \nTout: %+.1f%cC   ", tinf, 0xdf, toutf, 0xdf); break;
00028e 30e0      	CPI  R30,0
00028f f439      	BRNE _0x39
000290 940e 0b3f 	CALL SUBOPT_0xD
000292 e2e4
000293 e0f1      	__POINTW1FN _0,14
000294 940e 0b44 	CALL SUBOPT_0xE
000296 c057      	RJMP _0x38
                 ;     284 	  case 1: sprintf(buffer, "FAN T1=%d T2=%d\nT3=%d         ", temp[0], temp[1], temp[2]); break;
                 _0x39:
000297 30e1      	CPI  R30,LOW(0x1)
000298 f4b9      	BRNE _0x3A
000299 940e 0b3f 	CALL SUBOPT_0xD
00029b e4e8
00029c e0f1      	__POINTW1FN _0,50
00029d 93fa      	ST   -Y,R31
00029e 93ea      	ST   -Y,R30
00029f 91e0 0289 	LDS  R30,_temp
0002a1 940e 0b6b 	CALL SUBOPT_0xF
0002a3 91e0 028a 	__GETB1MN _temp,1
0002a5 940e 0b6b 	CALL SUBOPT_0xF
0002a7 91e0 028b 	__GETB1MN _temp,2
0002a9 940e 0b6b 	CALL SUBOPT_0xF
0002ab e08c      	LDI  R24,12
0002ac 940e 09bf 	CALL _sprintf
0002ae 9660      	ADIW R28,16
0002af c03e      	RJMP _0x38
                 ;     285 	  case 2: sprintf(buffer, "SHU T4=%d T5=%d\n             ", temp[3], temp[4]); break;
                 _0x3A:
0002b0 30e2      	CPI  R30,LOW(0x2)
0002b1 f499      	BRNE _0x3B
0002b2 940e 0b3f 	CALL SUBOPT_0xD
0002b4 e6e7
0002b5 e0f1      	__POINTW1FN _0,81
0002b6 93fa      	ST   -Y,R31
0002b7 93ea      	ST   -Y,R30
0002b8 91e0 028c 	__GETB1MN _temp,3
0002ba 940e 0b6b 	CALL SUBOPT_0xF
0002bc 91e0 028d 	__GETB1MN _temp,4
0002be 940e 0b6b 	CALL SUBOPT_0xF
0002c0 e088      	LDI  R24,8
0002c1 940e 09bf 	CALL _sprintf
0002c3 962c      	ADIW R28,12
0002c4 c029      	RJMP _0x38
                 ;     286 	  case 3: sprintf(buffer, "CON T6=%d T7=%d\nT8=%d   ", temp[5], temp[6], temp[7]); break;
                 _0x3B:
0002c5 30e3      	CPI  R30,LOW(0x3)
0002c6 f4b9      	BRNE _0x3C
0002c7 940e 0b3f 	CALL SUBOPT_0xD
0002c9 e8e5
0002ca e0f1      	__POINTW1FN _0,111
0002cb 93fa      	ST   -Y,R31
0002cc 93ea      	ST   -Y,R30
0002cd 91e0 028e 	__GETB1MN _temp,5
0002cf 940e 0b6b 	CALL SUBOPT_0xF
0002d1 91e0 028f 	__GETB1MN _temp,6
0002d3 940e 0b6b 	CALL SUBOPT_0xF
0002d5 91e0 0290 	__GETB1MN _temp,7
0002d7 940e 0b6b 	CALL SUBOPT_0xF
0002d9 e08c      	LDI  R24,12
0002da 940e 09bf 	CALL _sprintf
0002dc 9660      	ADIW R28,16
0002dd c010      	RJMP _0x38
                 ;     287 	  case 4: sprintf(buffer, "ALARM T9=%d    \n        ", temp[8]); break;
                 _0x3C:
0002de 30e4      	CPI  R30,LOW(0x4)
0002df f471      	BRNE _0x38
0002e0 940e 0b3f 	CALL SUBOPT_0xD
0002e2 e9ee
0002e3 e0f1      	__POINTW1FN _0,136
0002e4 93fa      	ST   -Y,R31
0002e5 93ea      	ST   -Y,R30
0002e6 91e0 0291 	__GETB1MN _temp,8
0002e8 940e 0b6b 	CALL SUBOPT_0xF
0002ea e084      	LDI  R24,4
0002eb 940e 09bf 	CALL _sprintf
0002ed 9628      	ADIW R28,8
                 ;     288 	}
                 _0x38:
                 ;     289 	lcd_gotoxy(0,0);
0002ee 940e 0afe 	CALL SUBOPT_0x2
                 ;     290 	lcd_puts(buffer);
0002f0 940e 0b3f 	CALL SUBOPT_0xD
0002f2 940e 0a74 	CALL _lcd_puts
                 ;     291 }
0002f4 9508      	RET
                 ;     292 
                 ;     293 //алярмовий алгоритм роботи COOLER SYSTEM
                 ;     294 void alarm_algorithm(void)
                 ;     295 {
                 _alarm_algorithm:
                 ;     296 	//управління заслонкою
                 ;     297 	if (tout >= temp[8] || tout <= temp[4])
0002f5 91e0 0291 	__GETB1MN _temp,8
0002f7 166e      	CP   R6,R30
0002f8 f420      	BRSH _0x3F
0002f9 91e0 028d 	__GETB1MN _temp,4
0002fb 15e6      	CP   R30,R6
0002fc f018      	BRLO _0x3E
                 _0x3F:
                 ;     298 	{
                 ;     299 		SHU_PORT&=~(1<<SHU)&~(1<<LED_SHU); //shu=0; //заслонка закрита
0002fd 940e 0b32 	CALL SUBOPT_0xB
                 ;     300 		FAN_PORT&=~(1<<FAN)&~(1<<LED_FAN);
                 ;     301 		fan=0;
0002ff c01c      	RJMP _0x1C3
                 ;     302 	}
                 ;     303 	else
                 _0x3E:
                 ;     304 	{
                 ;     305 	    SHU_PORT|=1<<SHU|1<<LED_SHU; //shu=1;
000300 b3e2      	IN   R30,0x12
000301 61e2      	ORI  R30,LOW(0x12)
000302 bbe2      	OUT  0x12,R30
                 ;     306 	    //управління FAN
                 ;     307 	    if (tout > temp[8] || (fan==1 && tin <= temp[2]))
000303 91e0 0291 	__GETB1MN _temp,8
000305 15e6      	CP   R30,R6
000306 f038      	BRLO _0x43
000307 fe20      	SBRS R2,0
000308 c004      	RJMP _0x44
000309 91e0 028b 	__GETB1MN _temp,2
00030b 15e7      	CP   R30,R7
00030c f408      	BRSH _0x43
                 _0x44:
00030d c003      	RJMP _0x42
                 _0x43:
                 ;     308 	    {
                 ;     309 		    FAN_PORT&=~(1<<FAN)&~(1<<LED_FAN);
00030e 940e 0b3a 	CALL SUBOPT_0xC
                 ;     310 		    fan=0;
000310 c00b      	RJMP _0x1C3
                 ;     311 	    }
                 ;     312 	    else if (fan==0 && tin >= temp[1])
                 _0x42:
000311 fc20      	SBRC R2,0
000312 c004      	RJMP _0x49
000313 91e0 028a 	__GETB1MN _temp,1
000315 167e      	CP   R7,R30
000316 f408      	BRSH _0x4A
                 _0x49:
000317 c005      	RJMP _0x48
                 _0x4A:
                 ;     313 	    {
                 ;     314 	        FAN_PORT|=1<<FAN|1<<LED_FAN;
000318 b3e2      	IN   R30,0x12
000319 60e9      	ORI  R30,LOW(0x9)
00031a bbe2      	OUT  0x12,R30
                 ;     315 		    fan=1;
00031b 9468      	SET
                 _0x1C3:
00031c f820      	BLD  R2,0
                 ;     316 	    }
                 ;     317    	}
                 _0x48:
                 ;     318 	//sprintf(lcd_buffer[0], "Tin: %+.1f%cC\nTout: %+.1f%cC", tinf, 0xdf, toutf, 0xdf);
                 ;     319 	//lcd_clear();
                 ;     320 	sprintf(buffer, "Tin: %+.1f%cC   \nTout: %+.1f%cC   ", tinf, 0xdf, toutf, 0xdf);
00031d 940e 0b3f 	CALL SUBOPT_0xD
00031f ebe7
000320 e0f1      	__POINTW1FN _0,161
000321 940e 0b44 	CALL SUBOPT_0xE
                 ;     321 	lcd_gotoxy(0,0);
000323 940e 0afe 	CALL SUBOPT_0x2
                 ;     322 	lcd_puts(buffer);
000325 940e 0b3f 	CALL SUBOPT_0xD
000327 940e 0a74 	CALL _lcd_puts
                 ;     323 }
000329 9508      	RET
                 ;     324 
                 ;     325 //функція обробки переривання від таймера
                 ;     326 interrupt [TIM1_COMPA] void timer1_compa_isr(void) //переривання 1 раз в сек.
                 ;     327 {
                 _timer1_compa_isr:
00032a 920a      	ST   -Y,R0
00032b 921a      	ST   -Y,R1
00032c 92fa      	ST   -Y,R15
00032d 936a      	ST   -Y,R22
00032e 937a      	ST   -Y,R23
00032f 938a      	ST   -Y,R24
000330 939a      	ST   -Y,R25
000331 93aa      	ST   -Y,R26
000332 93ba      	ST   -Y,R27
000333 93ea      	ST   -Y,R30
000334 93fa      	ST   -Y,R31
000335 b7ef      	IN   R30,SREG
000336 93ea      	ST   -Y,R30
                 ;     328 	/* This interrupt service routine (ISR)*/
                 ;     329 	TCNT1H=0;
000337 940e 0b71 	CALL SUBOPT_0x10
                 ;     330 	TCNT1L=0;
                 ;     331 	if (++seconds>10)
000339 9443      	INC  R4
00033a e0ea      	LDI  R30,LOW(10)
00033b 15e4      	CP   R30,R4
00033c f450      	BRSH _0x4B
                 ;     332 	{
                 ;     333 		TIMSK&=~(1<<OCIE1A);
00033d b7e9      	IN   R30,0x39
00033e 7eef      	ANDI R30,0xEF
00033f bfe9      	OUT  0x39,R30
                 ;     334 		mode=0;
000340 2455      	CLR  R5
                 ;     335 		BTN_LED_PORT|=(1<<BTN_LED);
000341 9a96      	SBI  0x12,6
                 ;     336 		delay_ms(100);
000342 e6e4      	LDI  R30,LOW(100)
000343 e0f0      	LDI  R31,HIGH(100)
000344 940e 0b75 	CALL SUBOPT_0x11
                 ;     337 		BTN_LED_PORT&=~(1<<BTN_LED);
000346 9896      	CBI  0x12,6
                 ;     338 	}
                 ;     339 }
                 _0x4B:
000347 91e9      	LD   R30,Y+
000348 bfef      	OUT  SREG,R30
000349 91f9      	LD   R31,Y+
00034a 91e9      	LD   R30,Y+
00034b 91b9      	LD   R27,Y+
00034c 91a9      	LD   R26,Y+
00034d 9199      	LD   R25,Y+
00034e 9189      	LD   R24,Y+
00034f 9179      	LD   R23,Y+
000350 9169      	LD   R22,Y+
000351 90f9      	LD   R15,Y+
000352 9019      	LD   R1,Y+
000353 9009      	LD   R0,Y+
000354 9518      	RETI
                 ;     340 
                 ;     341 void print_message_alarm220(void)
                 ;     342 {
                 _print_message_alarm220:
                 ;     343   static bit ac=0;
                 ;     344   lcd_gotoxy(14,0);
000355 e0ee      	LDI  R30,LOW(14)
000356 940e 0b2d 	CALL SUBOPT_0xA
                 ;     345   if (ac)
000358 fe24      	SBRS R2,4
000359 c006      	RJMP _0x4C
                 ;     346   {
                 ;     347     lcd_putsf("  ");
00035a e1e7
00035b e0f1      	__POINTW1FN _0,1
00035c 940e 0b09 	CALL SUBOPT_0x4
                 ;     348     ac=0;
00035e 94e8      	CLT
00035f c005      	RJMP _0x1C4
                 ;     349   }
                 ;     350   else
                 _0x4C:
                 ;     351   {
                 ;     352     lcd_putsf("AC"); // AC ERROR 220V
000360 edea
000361 e0f1      	__POINTW1FN _0,196
000362 940e 0b09 	CALL SUBOPT_0x4
                 ;     353     ac=1;
000364 9468      	SET
                 _0x1C4:
000365 f824      	BLD  R2,4
                 ;     354   }
                 ;     355 }
000366 9508      	RET
                 ;     356 
                 ;     357 //#pragma rl+
                 ;     358 // Declare your global variables here
                 ;     359 int main(void)
                 ;     360 {
                 _main:
                 ;     361     //char title[]="СИСТЕМА\n  ОХОЛОДЖЕННЯ";
                 ;     362 	char title[]="COOLER SYSTEM";
                 ;     363 	//char firm[]="IНТЕГРАЛ";
                 ;     364 	char firm[]="INTEGRAL";
                 ;     365     uint8_t meas_res_tin, meas_res_tout;
                 ;     366 
                 ;     367 	/*sprintf(lcd_buffer[1], "FAN T1=%d T2=%d\nT3=%d         ", T_OUT_FAN_OFF, T_IN_FAN_ON, T_IN_FAN_OFF);
                 ;     368 	sprintf(lcd_buffer[2], "SHU T4=%d T5=%d\n             ", T_OUT_SHU_OFF_MAX, T_OUT_SHU_OFF_MIN);
                 ;     369 	sprintf(lcd_buffer[3], "CON T6=%d T7=%d\nT8=%d   ", T_IN_CON_ON_MAX, T_IN_CON_ON_MIN, T_OUT_CON_ON);
                 ;     370 	sprintf(lcd_buffer[4], "ALARM T9=%d    \n        ", T_ALARM);
                 ;     371 	*/
                 ;     372 
                 ;     373 	//ініціалізація кнопок
                 ;     374     BTN_PORT|=(1<<BTN_PIN);
000367 9767      	SBIW R28,23
000368 e187      	LDI  R24,23
000369 e0a0      	LDI  R26,LOW(0)
00036a e0b0      	LDI  R27,HIGH(0)
00036b ede6      	LDI  R30,LOW(_0x4E*2)
00036c e0f0      	LDI  R31,HIGH(_0x4E*2)
00036d 940e 0f8d 	CALL __INITLOCB
                 ;	title -> Y+9
                 ;	firm -> Y+0
                 ;	meas_res_tin -> R17
                 ;	meas_res_tout -> R16
00036f 940e 0b79 	CALL SUBOPT_0x12
                 ;     375 	BTN_PORT_DDR&=~(1<<BTN_PIN);
                 ;     376 	ALRM_BTN_PORT|=(1<<ALRM_BTN_PIN);
000371 940e 0b79 	CALL SUBOPT_0x12
                 ;     377 	ALRM_BTN_PORT_DDR&=~(1<<ALRM_BTN_PIN);
                 ;     378 	//ініціалізація управляючих пристроїв
                 ;     379 	FAN_PORT_DDR|=(1<<FAN)|(1<<LED_FAN);
000373 b3e1      	IN   R30,0x11
000374 60e9      	ORI  R30,LOW(0x9)
000375 bbe1      	OUT  0x11,R30
                 ;     380 	FAN_PORT=0;
000376 e0e0      	LDI  R30,LOW(0)
000377 bbe2      	OUT  0x12,R30
                 ;     381 	SHU_PORT_DDR|=(1<<SHU)|(1<<LED_SHU);
000378 b3e1      	IN   R30,0x11
000379 61e2      	ORI  R30,LOW(0x12)
00037a bbe1      	OUT  0x11,R30
                 ;     382 	SHU_PORT=0;
00037b e0e0      	LDI  R30,LOW(0)
00037c bbe2      	OUT  0x12,R30
                 ;     383 	CON_PORT_DDR|=(1<<CON)|(1<<LED_CON);
00037d b3e1      	IN   R30,0x11
00037e 62e4      	ORI  R30,LOW(0x24)
00037f bbe1      	OUT  0x11,R30
                 ;     384 	CON_PORT=1<<CON;
000380 e2e0      	LDI  R30,LOW(32)
000381 bbe2      	OUT  0x12,R30
                 ;     385 	BTNS_PORT=(1<<MENU_ENTER_BTN)|(1<<SELECT_PLUS_BTN)|(1<<SELECT_MINUS_BTN);
000382 e3e8      	LDI  R30,LOW(56)
000383 bbe5      	OUT  0x15,R30
                 ;     386 	BTNS_PORT_DDR&=~(1<<MENU_ENTER_BTN)&~(1<<SELECT_PLUS_BTN)&~(1<<SELECT_MINUS_BTN);
000384 b3e4      	IN   R30,0x14
000385 7ce7      	ANDI R30,LOW(0xC7)
000386 bbe4      	OUT  0x14,R30
                 ;     387 	COND_PORT_DDR|=(1<<COND)|(1<<NORMAL);
000387 b3e4      	IN   R30,0x14
000388 6ce0      	ORI  R30,LOW(0xC0)
000389 bbe4      	OUT  0x14,R30
                 ;     388 	COND_PORT|=(1<<COND)|(1<<NORMAL);
00038a b3e5      	IN   R30,0x15
00038b 6ce0      	ORI  R30,LOW(0xC0)
00038c bbe5      	OUT  0x15,R30
                 ;     389 	BTN_LED_PORT_DDR|=(1<<BTN_LED);
00038d 9a8e      	SBI  0x11,6
                 ;     390 	BTN_PORT=0;
00038e e0e0      	LDI  R30,LOW(0)
00038f bbe8      	OUT  0x18,R30
                 ;     391     //ініціалізація 16 бітного таймера
                 ;     392 	TCCR1A=0x00;
000390 bdef      	OUT  0x2F,R30
                 ;     393 	TCCR1B=0x04; //1<<CS12|~(1<<CS11)|~(1<<CS10);  //clk/256, 8MHz/256=31250Hz, TCCR1B=0x04
000391 e0e4      	LDI  R30,LOW(4)
000392 bdee      	OUT  0x2E,R30
                 ;     394 	TCNT1H=0x00;
000393 940e 0b71 	CALL SUBOPT_0x10
                 ;     395 	TCNT1L=0x00;
                 ;     396 	ICR1H=0x00;
000395 e0e0      	LDI  R30,LOW(0)
000396 bde7      	OUT  0x27,R30
                 ;     397 	ICR1L=0x00;
000397 bde6      	OUT  0x26,R30
                 ;     398 	OCR1AH=0x7A; //high byte of 31250=7A, high byte has to be written before low byte
000398 e7ea      	LDI  R30,LOW(122)
000399 bdeb      	OUT  0x2B,R30
                 ;     399 	OCR1AL=0x12; //low byte of 31250=12
00039a e1e2      	LDI  R30,LOW(18)
00039b bdea      	OUT  0x2A,R30
                 ;     400 	OCR1BH=0x00;
00039c e0e0      	LDI  R30,LOW(0)
00039d bde9      	OUT  0x29,R30
                 ;     401 	OCR1BL=0x00;
00039e bde8      	OUT  0x28,R30
                 ;     402 	//ініціалізація зовнішніх переривань
                 ;     403 	//INT0: Off; INT1: Off
                 ;     404 	GICR=0x00;
00039f bfeb      	OUT  0x3B,R30
                 ;     405 	MCUCR=0x00;
0003a0 bfe5      	OUT  0x35,R30
                 ;     406 	//маскування переривання
                 ;     407 	TIMSK&=~(1<<OCIE1A); //TIMSK=0x10;
0003a1 b7e9      	IN   R30,0x39
0003a2 7eef      	ANDI R30,0xEF
0003a3 bfe9      	OUT  0x39,R30
                 ;     408 	//Analog Comparator initialization; Analog Comparator: Off; Analog Comparator Input capture by Timer/Counter 1: Off
                 ;     409 	ACSR=0x80;
0003a4 e8e0      	LDI  R30,LOW(128)
0003a5 b9e8      	OUT  0x8,R30
                 ;     410 	SFIOR=0x00;
0003a6 e0e0      	LDI  R30,LOW(0)
0003a7 bfe0      	OUT  0x30,R30
                 ;     411 	//дозволяємо переривання
                 ;     412 	#asm("sei");
0003a8 9478      	sei
                 ;     413 	//ініціалізація LCD
                 ;     414     lcd_init(16);
0003a9 e1e0      	LDI  R30,LOW(16)
0003aa 93ea      	ST   -Y,R30
0003ab 940e 0aa6 	CALL _lcd_init
                 ;     415 	//вивід на LCD COOLER SYSTEM i INTEGRAL
                 ;     416 	lcd_gotoxy(1,0);
0003ad e0e1      	LDI  R30,LOW(1)
0003ae 940e 0b2d 	CALL SUBOPT_0xA
                 ;     417 	lcd_puts(title);
0003b0 01fe      	MOVW R30,R28
0003b1 9639      	ADIW R30,9
0003b2 940e 0b88 	CALL SUBOPT_0x13
                 ;     418 	delay_ms(1000);
                 ;     419 	lcd_clear();
0003b4 940e 0a44 	CALL _lcd_clear
                 ;     420 	lcd_gotoxy(4,0);
0003b6 e0e4      	LDI  R30,LOW(4)
0003b7 940e 0b2d 	CALL SUBOPT_0xA
                 ;     421 	lcd_puts(firm);
0003b9 01fe      	MOVW R30,R28
0003ba 940e 0b88 	CALL SUBOPT_0x13
                 ;     422 	delay_ms(1000);
                 ;     423 	//ініціалізація давачів температури
                 ;     424 	if (therm_init(0, -55, 125, THERM_9BIT_RES))
0003bc e0e0      	LDI  R30,LOW(0)
0003bd 940e 0b8f 	CALL SUBOPT_0x14
0003bf f059      	BREQ _0x4F
                 ;     425 	{
                 ;     426 	    lcd_clear();
0003c0 940e 0a44 	CALL _lcd_clear
                 ;     427 	    lcd_putsf("Init error\nindoor sensor");
0003c2 eded
0003c3 e0f1      	__POINTW1FN _0,199
0003c4 940e 0b09 	CALL SUBOPT_0x4
                 ;     428 	    FAN_PORT&=~(1<<FAN)&~(1<<LED_FAN);
0003c6 940e 0b3a 	CALL SUBOPT_0xC
                 ;     429 	    fan=0;
0003c8 940e 0b9a 	CALL SUBOPT_0x15
                 ;     430 	    SHU_PORT&=~(1<<SHU)&~(1<<LED_SHU);
                 ;     431 	    CON_PORT&=~(1<<CON);
                 ;     432 	    CON_PORT|=1<<LED_CON;
                 ;     433 	    COND_PORT&=~(1<<COND)&~(1<<NORMAL);
                 ;     434 	    while(1);
                 _0x50:
0003ca cfff      	RJMP _0x50
                 ;     435 	}
                 ;     436 	if (therm_init(1, -55, 125, THERM_9BIT_RES))
                 _0x4F:
0003cb e0e1      	LDI  R30,LOW(1)
0003cc 940e 0b8f 	CALL SUBOPT_0x14
0003ce f059      	BREQ _0x53
                 ;     437 	{
                 ;     438 	    lcd_clear();
0003cf 940e 0a44 	CALL _lcd_clear
                 ;     439 	    lcd_putsf("Init error\noutdoor sensor");
0003d1 efe6
0003d2 e0f1      	__POINTW1FN _0,224
0003d3 940e 0b09 	CALL SUBOPT_0x4
                 ;     440 	    FAN_PORT&=~(1<<FAN)&~(1<<LED_FAN);
0003d5 940e 0b3a 	CALL SUBOPT_0xC
                 ;     441 	    fan=0;
0003d7 940e 0b9a 	CALL SUBOPT_0x15
                 ;     442 	    SHU_PORT&=~(1<<SHU)&~(1<<LED_SHU);
                 ;     443 	    CON_PORT&=~(1<<CON);
                 ;     444 	    CON_PORT|=1<<LED_CON;
                 ;     445 	    COND_PORT&=~(1<<COND)&~(1<<NORMAL);
                 ;     446 	    while(1);
                 _0x54:
0003d9 cfff      	RJMP _0x54
                 ;     447 	}
                 ;     448 	// main loop starts here
                 ;     449 	while(1)
                 _0x53:
                 _0x57:
                 ;     450 	{
                 ;     451 		//перевіряємо чи непропало живлення
                 ;     452 		if ((ALRM_BTN_PIN & 1<<ALRM_BTN)==0 && alarmBtnState==0)
0003da 99b0      	SBIC 0x16,0
0003db c002      	RJMP _0x5B
0003dc fe22      	SBRS R2,2
0003dd c001      	RJMP _0x5C
                 _0x5B:
0003de c002      	RJMP _0x5A
                 _0x5C:
                 ;     453 		  alarmBtnState=1;
0003df 9468      	SET
0003e0 f822      	BLD  R2,2
                 ;     454 		if ((ALRM_BTN_PIN & 1<<ALRM_BTN) && alarmBtnState==1)
                 _0x5A:
0003e1 9bb0      	SBIS 0x16,0
0003e2 c002      	RJMP _0x5E
0003e3 fc22      	SBRC R2,2
0003e4 c001      	RJMP _0x5F
                 _0x5E:
0003e5 c009      	RJMP _0x5D
                 _0x5F:
                 ;     455 		{
                 ;     456 		  alarmBtnState=0;
0003e6 94e8      	CLT
0003e7 f822      	BLD  R2,2
                 ;     457    	      lcd_gotoxy(14,0);
0003e8 e0ee      	LDI  R30,LOW(14)
0003e9 940e 0b2d 	CALL SUBOPT_0xA
                 ;     458           lcd_putsf("  ");
0003eb e1e7
0003ec e0f1      	__POINTW1FN _0,1
0003ed 940e 0b09 	CALL SUBOPT_0x4
                 ;     459 		}
                 ;     460 		//міряємо температуру з давачів
                 ;     461 		meas_res_tin=therm_read_temperature(0,&tinf);
                 _0x5D:
0003ef e0e0      	LDI  R30,LOW(0)
0003f0 93ea      	ST   -Y,R30
0003f1 e8e1      	LDI  R30,LOW(_tinf)
0003f2 e0f2      	LDI  R31,HIGH(_tinf)
0003f3 93fa      	ST   -Y,R31
0003f4 93ea      	ST   -Y,R30
0003f5 d1be      	RCALL _therm_read_temperature
0003f6 2f1e      	MOV  R17,R30
                 ;     462 		meas_res_tout=therm_read_temperature(1,&toutf);
0003f7 e0e1      	LDI  R30,LOW(1)
0003f8 93ea      	ST   -Y,R30
0003f9 e8e5      	LDI  R30,LOW(_toutf)
0003fa e0f2      	LDI  R31,HIGH(_toutf)
0003fb 93fa      	ST   -Y,R31
0003fc 93ea      	ST   -Y,R30
0003fd d1b6      	RCALL _therm_read_temperature
0003fe 2f0e      	MOV  R16,R30
                 ;     463 		if (meas_res_tin || meas_res_tout)
0003ff 3010      	CPI  R17,0
000400 f419      	BRNE _0x61
000401 3000      	CPI  R16,0
000402 f409      	BRNE _0x61
000403 c041      	RJMP _0x60
                 _0x61:
                 ;     464 		{
                 ;     465 			FAN_PORT&=~(1<<FAN)&~(1<<LED_FAN);
000404 940e 0b3a 	CALL SUBOPT_0xC
                 ;     466 			fan=0;
000406 f820      	BLD  R2,0
                 ;     467 			SHU_PORT&=~(1<<SHU)&~(1<<LED_SHU);
000407 b3e2      	IN   R30,0x12
000408 7eed      	ANDI R30,LOW(0xED)
000409 bbe2      	OUT  0x12,R30
                 ;     468 			CON_PORT&=~(1<<CON);
00040a 9895      	CBI  0x12,5
                 ;     469 			CON_PORT|=1<<LED_CON;
00040b 9a92      	SBI  0x12,2
                 ;     470 			COND_PORT&=~(1<<NORMAL);
00040c 98af      	CBI  0x15,7
                 ;     471 			lcd_clear();
00040d 940e 0a44 	CALL _lcd_clear
                 ;     472 			if (meas_res_tin && meas_res_tout)
00040f 3010      	CPI  R17,0
000410 f011      	BREQ _0x64
000411 3000      	CPI  R16,0
000412 f409      	BRNE _0x65
                 _0x64:
000413 c005      	RJMP _0x63
                 _0x65:
                 ;     473 		        lcd_putsf("Tin error\nTout error");
000414 e1e0
000415 e0f2      	__POINTW1FN _0,250
000416 940e 0b09 	CALL SUBOPT_0x4
                 ;     474 			else
000418 c025      	RJMP _0x66
                 _0x63:
                 ;     475 			{
                 ;     476 			    if (meas_res_tin)
000419 3010      	CPI  R17,0
00041a f049      	BREQ _0x67
                 ;     477 			      sprintf(buffer, "Tin error\nTout: %+.1f%cC", toutf, 0xdf);
00041b 940e 0b3f 	CALL SUBOPT_0xD
00041d e2e5
00041e e0f2      	__POINTW1FN _0,271
00041f 93fa      	ST   -Y,R31
000420 93ea      	ST   -Y,R30
000421 940e 0ba4 	CALL SUBOPT_0x16
000423 c00a      	RJMP _0x1C5
                 ;     478 			    else if (meas_res_tout)
                 _0x67:
000424 3000      	CPI  R16,0
000425 f0a1      	BREQ _0x69
                 ;     479 			      sprintf(buffer, "Tin: %+.1f%cC\nTout error", tinf, 0xdf);
000426 940e 0b3f 	CALL SUBOPT_0xD
000428 e3ee
000429 e0f2      	__POINTW1FN _0,296
00042a 93fa      	ST   -Y,R31
00042b 93ea      	ST   -Y,R30
00042c 940e 0bad 	CALL SUBOPT_0x17
                 _0x1C5:
00042e 940e 0db9 	CALL __PUTPARD1
000430 edef
000431 e0f0
000432 e060
000433 e070      	__GETD1N 0xDF
000434 940e 0db9 	CALL __PUTPARD1
000436 e088      	LDI  R24,8
000437 940e 09bf 	CALL _sprintf
000439 962c      	ADIW R28,12
                 ;     480 			    lcd_puts(buffer);
                 _0x69:
00043a 940e 0b3f 	CALL SUBOPT_0xD
00043c 940e 0a74 	CALL _lcd_puts
                 ;     481 			}
                 _0x66:
                 ;     482 			if (alarmBtnState)
00043e fe22      	SBRS R2,2
00043f c002      	RJMP _0x6A
                 ;     483 			  print_message_alarm220();
000440 940e 0355 	CALL _print_message_alarm220
                 ;     484 			delay_ms(200);
                 _0x6A:
000442 ece8      	LDI  R30,LOW(200)
000443 e0f0      	LDI  R31,HIGH(200)
000444 c06f      	RJMP _0x1C6
                 ;     485 		}
                 ;     486 	    else
                 _0x60:
                 ;     487 		{
                 ;     488 		    if ((tinf-tin!=0.5) && (tinf-tin!=-0.5))
000445 2de7      	MOV  R30,R7
000446 91a0 0281 	LDS  R26,_tinf
000448 91b0 0282 	LDS  R27,_tinf+1
00044a 9180 0283 	LDS  R24,_tinf+2
00044c 9190 0284 	LDS  R25,_tinf+3
00044e 940e 0bb6 	CALL SUBOPT_0x18
000450 f019      	BREQ _0x6D
000451 940e 0bc7 	CALL SUBOPT_0x19
000453 f409      	BRNE _0x6E
                 _0x6D:
000454 c005      	RJMP _0x6C
                 _0x6E:
                 ;     489 		        tin=(int)tinf;
000455 940e 0bad 	CALL SUBOPT_0x17
000457 940e 0e05 	CALL __CFD1
000459 2e7e      	MOV  R7,R30
                 ;     490 		    if ((toutf-tout!=0.5) && (toutf-tout!=-0.5))
                 _0x6C:
00045a 2de6      	MOV  R30,R6
00045b 91a0 0285 	LDS  R26,_toutf
00045d 91b0 0286 	LDS  R27,_toutf+1
00045f 9180 0287 	LDS  R24,_toutf+2
000461 9190 0288 	LDS  R25,_toutf+3
000463 940e 0bb6 	CALL SUBOPT_0x18
000465 f019      	BREQ _0x70
000466 940e 0bc7 	CALL SUBOPT_0x19
000468 f409      	BRNE _0x71
                 _0x70:
000469 c005      	RJMP _0x6F
                 _0x71:
                 ;     491 		        tout=(int)toutf;
00046a 940e 0ba4 	CALL SUBOPT_0x16
00046c 940e 0e05 	CALL __CFD1
00046e 2e6e      	MOV  R6,R30
                 ;     492 			if (!alarmBtnState)
                 _0x6F:
00046f fc22      	SBRC R2,2
000470 c03c      	RJMP _0x72
                 ;     493 			{
                 ;     494 			    if ((tin-temp[5] >= 2) && con==1)
000471 91a0 028e 	__GETB2MN _temp,5
000473 2de7      	MOV  R30,R7
000474 1bea      	SUB  R30,R26
000475 30e2      	CPI  R30,LOW(0x2)
000476 f010      	BRLO _0x74
000477 fc21      	SBRC R2,1
000478 c001      	RJMP _0x75
                 _0x74:
000479 c005      	RJMP _0x73
                 _0x75:
                 ;     495 			    {
                 ;     496 	                COND_PORT|=1<<NORMAL;
00047a 9aaf      	SBI  0x15,7
                 ;     497 	                COND_PORT&=~(1<<COND);
00047b 98ae      	CBI  0x15,6
                 ;     498 	                //виконання алярмового алгоритму
                 ;     499 		            alarm_algorithm();
00047c 940e 02f5 	CALL _alarm_algorithm
                 ;     500 	            }
                 ;     501 	            else
00047e c02d      	RJMP _0x76
                 _0x73:
                 ;     502 			    {
                 ;     503 			        COND_PORT|=1<<COND|1<<NORMAL;
00047f b3e5      	IN   R30,0x15
000480 6ce0      	ORI  R30,LOW(0xC0)
000481 bbe5      	OUT  0x15,R30
                 ;     504 			        //перевіряємо чи ненатиснута кнопка виводу інфо. на дисплей
                 ;     505 			        if ((BTN_PIN & 1<<BTN)==0 && button_pressed==0)
000482 99b1      	SBIC 0x16,1
000483 c002      	RJMP _0x78
000484 fe23      	SBRS R2,3
000485 c001      	RJMP _0x79
                 _0x78:
000486 c012      	RJMP _0x77
                 _0x79:
                 ;     506 			        {
                 ;     507 				        //delay_ms(1);
                 ;     508 				        TIMSK&=~(1<<OCIE1A);
000487 b7e9      	IN   R30,0x39
000488 7eef      	ANDI R30,0xEF
000489 bfe9      	OUT  0x39,R30
                 ;     509 				        if (mode>3) mode=0;
00048a e0e3      	LDI  R30,LOW(3)
00048b 15e5      	CP   R30,R5
00048c f410      	BRSH _0x7A
00048d 2455      	CLR  R5
                 ;     510 				        else
00048e c007      	RJMP _0x7B
                 _0x7A:
                 ;     511 				        {
                 ;     512 					        mode++;
00048f 9453      	INC  R5
                 ;     513 					        TCNT1H=0;
000490 940e 0b71 	CALL SUBOPT_0x10
                 ;     514 					        TCNT1L=0;
                 ;     515 					        seconds=0;
000492 2444      	CLR  R4
                 ;     516 					        TIMSK|=(1<<OCIE1A);
000493 b7e9      	IN   R30,0x39
000494 61e0      	ORI  R30,0x10
000495 bfe9      	OUT  0x39,R30
                 ;     517 				        }
                 _0x7B:
                 ;     518 				        BTN_LED_PORT|=(1<<BTN_LED);
000496 9a96      	SBI  0x12,6
                 ;     519 				        button_pressed=1;
000497 9468      	SET
000498 f823      	BLD  R2,3
                 ;     520 			        }
                 ;     521 			        //перевіряємо чи відпущена кнопка виводу інфо. на дисплей
                 ;     522 			        if ((BTN_PIN & 1<<BTN))
                 _0x77:
000499 9bb1      	SBIS 0x16,1
00049a c003      	RJMP _0x7C
                 ;     523 			        {
                 ;     524 				        BTN_LED_PORT&=~(1<<BTN_LED);
00049b 9896      	CBI  0x12,6
                 ;     525 				        button_pressed=0;
00049c 94e8      	CLT
00049d f823      	BLD  R2,3
                 ;     526 			        }
                 ;     527 
                 ;     528 			        if (get_key_status(MENU_ENTER_BTN)) //main menu call
                 _0x7C:
00049e e0e3      	LDI  R30,LOW(3)
00049f 940e 0b1e 	CALL SUBOPT_0x7
0004a1 f041      	BREQ _0x7D
                 ;     529                     {
                 ;     530                         if (!get_prev_key_status(MENU_ENTER_BTN))
0004a2 e0e3      	LDI  R30,LOW(3)
0004a3 940e 0b19 	CALL SUBOPT_0x6
0004a5 f421      	BRNE _0x7E
                 ;     531                         {
                 ;     532                             lcd_clear();
0004a6 940e 0a44 	CALL _lcd_clear
                 ;     533                             show_main_menu();
0004a8 940e 01ee 	CALL _show_main_menu
                 ;     534                         }
                 ;     535                     }
                 _0x7E:
                 ;     536 
                 ;     537 			        //виконання робочого алгоритму
                 ;     538 			        working_algorithm();
                 _0x7D:
0004aa 940e 0244 	CALL _working_algorithm
                 ;     539 			    }
                 _0x76:
                 ;     540 			}
                 ;     541 		    else
0004ac c00b      	RJMP _0x7F
                 _0x72:
                 ;     542 		    {
                 ;     543 		      COND_PORT&=~(1<<NORMAL);
0004ad 98af      	CBI  0x15,7
                 ;     544 		      //виконання алярмового алгоритму
                 ;     545 		      alarm_algorithm();
0004ae 940e 02f5 	CALL _alarm_algorithm
                 ;     546 		      print_message_alarm220();
0004b0 940e 0355 	CALL _print_message_alarm220
                 ;     547               delay_ms(150);
0004b2 e9e6      	LDI  R30,LOW(150)
0004b3 e0f0      	LDI  R31,HIGH(150)
                 _0x1C6:
0004b4 93fa      	ST   -Y,R31
0004b5 93ea      	ST   -Y,R30
0004b6 940e 0cc9 	CALL _delay_ms
                 ;     548 		    }
                 _0x7F:
                 ;     549 	    }
                 ;     550  }
0004b8 cf21      	RJMP _0x57
                 ;     551  //#pragma rl-
                 ;     552  return 0;
                 _0x80:
0004b9 cfff      	RJMP _0x80
                 ;     553 }
                 ;     554 #include "therm_ds18b20.h"
                 ;     555 
                 ;     556 struct __ds18b20_scratch_pad_struct __ds18b20_scratch_pad;
                 
                 	.DSEG
                 ___ds18b20_scratch_pad:
000292           	.BYTE 0x9
                 ;     557 uint8_t therm_dq;
                 ;     558 
                 ;     559 void therm_input_mode(void)
                 ;     560 {
                 
                 	.CSEG
                 _therm_input_mode:
                 ;     561 	THERM_DDR&=~(1<<therm_dq);
0004ba b214      	IN   R1,20
0004bb 940e 0bcf 	CALL SUBOPT_0x1A
0004bd 95e0      	COM  R30
0004be 21e1      	AND  R30,R1
0004bf bbe4      	OUT  0x14,R30
                 ;     562 }
0004c0 9508      	RET
                 ;     563 void therm_output_mode(void)
                 ;     564 {
                 _therm_output_mode:
                 ;     565 	THERM_DDR|=(1<<therm_dq);
0004c1 b214      	IN   R1,20
0004c2 940e 0bcf 	CALL SUBOPT_0x1A
0004c4 29e1      	OR   R30,R1
0004c5 bbe4      	OUT  0x14,R30
                 ;     566 }
0004c6 9508      	RET
                 ;     567 void therm_low(void)
                 ;     568 {
                 _therm_low:
                 ;     569 	THERM_PORT&=~(1<<therm_dq);
0004c7 b215      	IN   R1,21
0004c8 940e 0bcf 	CALL SUBOPT_0x1A
0004ca 95e0      	COM  R30
0004cb 21e1      	AND  R30,R1
0004cc bbe5      	OUT  0x15,R30
                 ;     570 }
0004cd 9508      	RET
                 ;     571 /*void therm_high(void)
                 ;     572 {
                 ;     573 	THERM_PORT|=(1<<therm_dq);
                 ;     574 }
                 ;     575 void therm_delay(uint16_t delay)
                 ;     576 {
                 ;     577 	while (delay--) #asm("nop");
                 ;     578 }*/
                 ;     579 
                 ;     580 uint8_t therm_reset()
                 ;     581 {
                 _therm_reset:
                 ;     582 	uint8_t i;
                 ;     583 	//посилаємо імпульс скидання тривалістю 480 мкс
                 ;     584 	therm_low();
0004ce 931a      	ST   -Y,R17
                 ;	i -> R17
0004cf 940e 0bd4 	CALL SUBOPT_0x1B
                 ;     585 	therm_output_mode();
                 ;     586 	//therm_delay(us(480));
                 ;     587 	delay_us(480);
0004d1 ec80
0004d2 e093
0004d3 9701
0004d4 f7f1      	__DELAY_USW 960
                 ;     588 	//повертаємо шину і чекаємо 60 мкс на відповідь
                 ;     589 	therm_input_mode();
0004d5 940e 04ba 	CALL _therm_input_mode
                 ;     590 	//therm_delay(us(60));
                 ;     591 	delay_us(60);
0004d7 ea80
0004d8 958a
0004d9 f7f1      	__DELAY_USB 160
                 ;     592 	//зберігаємо значення на шині і чекаємо завершення 480 мкс періода
                 ;     593 	i=(THERM_PIN & (1<<therm_dq));
0004da 940e 0bd8 	CALL SUBOPT_0x1C
0004dc 2f1e      	MOV  R17,R30
                 ;     594 	//therm_delay(us(420));
                 ;     595 	delay_us(420);
0004dd e488
0004de e093
0004df 9701
0004e0 f7f1      	__DELAY_USW 840
                 ;     596 	if ((THERM_PIN & (1<<therm_dq))==i) return 1;
0004e1 940e 0bd8 	CALL SUBOPT_0x1C
0004e3 171e      	CP   R17,R30
0004e4 f411      	BRNE _0x81
0004e5 e0e1      	LDI  R30,LOW(1)
0004e6 c027      	RJMP _0x1BE
                 ;     597 	//повертаємо результат виконання (presence pulse) (0=OK, 1=WRONG)
                 ;     598 	return 0;
                 _0x81:
0004e7 e0e0      	LDI  R30,LOW(0)
0004e8 c025      	RJMP _0x1BE
                 ;     599 }
                 ;     600 
                 ;     601 void therm_write_bit(uint8_t _bit)
                 ;     602 {
                 _therm_write_bit:
                 ;     603 	//переводимо шину в стан лог. 0 на 1 мкс
                 ;     604 	therm_low();
                 ;	_bit -> Y+0
0004e9 940e 0bd4 	CALL SUBOPT_0x1B
                 ;     605 	therm_output_mode();
                 ;     606 	//therm_delay(us(1));
                 ;     607 	delay_us(1);
0004eb e083
0004ec 958a
0004ed f7f1      	__DELAY_USB 3
                 ;     608 	//якщо пишемо 1, відпускаємо шину (якщо 0 тримаємо в стані лог. 0)
                 ;     609 	if (_bit) therm_input_mode();
0004ee 81e8      	LD   R30,Y
0004ef 30e0      	CPI  R30,0
0004f0 f011      	BREQ _0x82
0004f1 940e 04ba 	CALL _therm_input_mode
                 ;     610 	//чекаємо 60мкм і відпускаємо шину
                 ;     611 	//therm_delay(us(60));
                 ;     612 	delay_us(60);
                 _0x82:
0004f3 ea80
0004f4 958a
0004f5 f7f1      	__DELAY_USB 160
                 ;     613 	therm_input_mode();
0004f6 940e 04ba 	CALL _therm_input_mode
                 ;     614 }
0004f8 9621      	ADIW R28,1
0004f9 9508      	RET
                 ;     615 
                 ;     616 uint8_t therm_read_bit(void)
                 ;     617 {
                 _therm_read_bit:
                 ;     618 	uint8_t _bit=0;
                 ;     619 	//переводимо шину в лог. 0 на 1 мкс
                 ;     620 	therm_low();
0004fa 931a      	ST   -Y,R17
                 ;	_bit -> R17
0004fb e010      	LDI  R17,0
0004fc 940e 0bd4 	CALL SUBOPT_0x1B
                 ;     621 	therm_output_mode();
                 ;     622 	//therm_delay(us(1));
                 ;     623 	delay_us(1);
0004fe e083
0004ff 958a
000500 f7f1      	__DELAY_USB 3
                 ;     624 	//відпускаємо шину і чекаємо 14 мкс
                 ;     625 	therm_input_mode();
000501 940e 04ba 	CALL _therm_input_mode
                 ;     626 	//therm_delay(us(14));
                 ;     627 	delay_us(14);
000503 e285
000504 958a
000505 f7f1      	__DELAY_USB 37
                 ;     628 	//читаємо біт з шини
                 ;     629 	if (THERM_PIN&(1<<therm_dq)) _bit=1;
000506 940e 0bd8 	CALL SUBOPT_0x1C
000508 f009      	BREQ _0x83
000509 e011      	LDI  R17,LOW(1)
                 ;     630 	//чекаємо 45 мкс до закінчення і вертаємо прочитане значення
                 ;     631 	//therm_delay(us(45));
                 ;     632 	delay_us(45);
                 _0x83:
00050a e788
00050b 958a
00050c f7f1      	__DELAY_USB 120
                 ;     633 	return _bit;
00050d 2fe1      	MOV  R30,R17
                 _0x1BE:
00050e 9119      	LD   R17,Y+
00050f 9508      	RET
                 ;     634 }
                 ;     635 
                 ;     636 uint8_t therm_read_byte(void)
                 ;     637 {
                 _therm_read_byte:
                 ;     638 	uint8_t i=8, n=0;
                 ;     639 	while (i--)
000510 931a      	ST   -Y,R17
000511 930a      	ST   -Y,R16
                 ;	i -> R17
                 ;	n -> R16
000512 e000      	LDI  R16,0
000513 e018      	LDI  R17,8
                 _0x84:
000514 2fe1      	MOV  R30,R17
000515 5011      	SUBI R17,1
000516 30e0      	CPI  R30,0
000517 f041      	BREQ _0x86
                 ;     640 	{
                 ;     641 		//зсуваємо на 1 розряд вправо і зберігаємо прочитане значення
                 ;     642 		n>>=1;
000518 9506      	LSR  R16
                 ;     643 		n|=(therm_read_bit()<<7);
000519 940e 04fa 	CALL _therm_read_bit
00051b 95e7      	ROR  R30
00051c e0e0      	LDI  R30,0
00051d 95e7      	ROR  R30
00051e 2b0e      	OR   R16,R30
                 ;     644 	}
00051f cff4      	RJMP _0x84
                 _0x86:
                 ;     645 	return n;
000520 2fe0      	MOV  R30,R16
000521 9109      	LD   R16,Y+
000522 9119      	LD   R17,Y+
000523 9508      	RET
                 ;     646 }
                 ;     647 
                 ;     648 void therm_write_byte(uint8_t byte)
                 ;     649 {
                 _therm_write_byte:
                 ;     650 	uint8_t i=8;
                 ;     651 	while (i--)
000524 931a      	ST   -Y,R17
                 ;	byte -> Y+1
                 ;	i -> R17
000525 e018      	LDI  R17,8
                 _0x87:
000526 2fe1      	MOV  R30,R17
000527 5011      	SUBI R17,1
000528 30e0      	CPI  R30,0
000529 f049      	BREQ _0x89
                 ;     652 	{
                 ;     653 		//пишемо молодший біт і зсуваємо на 1 розряд вправо для виводу наступного біта
                 ;     654 		therm_write_bit(byte&1);
00052a 81e9      	LDD  R30,Y+1
00052b 70e1      	ANDI R30,LOW(0x1)
00052c 93ea      	ST   -Y,R30
00052d 940e 04e9 	CALL _therm_write_bit
                 ;     655 		byte>>=1;
00052f 81e9      	LDD  R30,Y+1
000530 95e6      	LSR  R30
000531 83e9      	STD  Y+1,R30
                 ;     656 	}
000532 cff3      	RJMP _0x87
                 _0x89:
                 ;     657 }
000533 8118      	LDD  R17,Y+0
000534 9622      	ADIW R28,2
000535 9508      	RET
                 ;     658 
                 ;     659 uint8_t therm_crc8(uint8_t *data, uint8_t num_bytes)
                 ;     660 {
                 _therm_crc8:
                 ;     661 	uint8_t byte_ctr, cur_byte, bit_ctr, crc=0;
                 ;     662 
                 ;     663 	for (byte_ctr=0; byte_ctr<num_bytes; byte_ctr++)
000536 940e 0f81 	CALL __SAVELOCR4
                 ;	*data -> Y+5
                 ;	num_bytes -> Y+4
                 ;	byte_ctr -> R17
                 ;	cur_byte -> R16
                 ;	bit_ctr -> R19
                 ;	crc -> R18
000538 e020      	LDI  R18,0
000539 e010      	LDI  R17,LOW(0)
                 _0x8B:
00053a 81ec      	LDD  R30,Y+4
00053b 171e      	CP   R17,R30
00053c f4c8      	BRSH _0x8C
                 ;     664 	{
                 ;     665 		cur_byte=data[byte_ctr];
00053d 81ad      	LDD  R26,Y+5
00053e 81be      	LDD  R27,Y+5+1
00053f 27ee      	CLR  R30
000540 0fa1      	ADD  R26,R17
000541 1fbe      	ADC  R27,R30
000542 910c      	LD   R16,X
                 ;     666 		for (bit_ctr=0; bit_ctr<8; cur_byte>>=1, bit_ctr++)
000543 e030      	LDI  R19,LOW(0)
                 _0x8E:
000544 3038      	CPI  R19,8
000545 f470      	BRSH _0x8F
                 ;     667 			if ((cur_byte ^ crc) & 1) crc = ((crc ^ 0x18) >> 1) | 0x80;
000546 2fe2      	MOV  R30,R18
000547 27e0      	EOR  R30,R16
000548 70e1      	ANDI R30,LOW(0x1)
000549 f031      	BREQ _0x90
00054a e1e8      	LDI  R30,LOW(24)
00054b 27e2      	EOR  R30,R18
00054c 95e6      	LSR  R30
00054d 68e0      	ORI  R30,0x80
00054e 2f2e      	MOV  R18,R30
                 ;     668 			else crc>>=1;
00054f c001      	RJMP _0x91
                 _0x90:
000550 9526      	LSR  R18
                 ;     669 	}
                 _0x91:
000551 9506      	LSR  R16
000552 5f3f      	SUBI R19,-1
000553 cff0      	RJMP _0x8E
                 _0x8F:
000554 5f1f      	SUBI R17,-1
000555 cfe4      	RJMP _0x8B
                 _0x8C:
                 ;     670 	return crc;
000556 2fe2      	MOV  R30,R18
000557 940e 0f88 	CALL __LOADLOCR4
000559 9627      	ADIW R28,7
00055a 9508      	RET
                 ;     671 }
                 ;     672 
                 ;     673 uint8_t therm_init(uint8_t sensor_id, int8_t temp_low, int8_t temp_high, uint8_t resolution)
                 ;     674 {
                 _therm_init:
                 ;     675 	resolution=(resolution<<5)|0x1f;
                 ;	sensor_id -> Y+3
                 ;	temp_low -> Y+2
                 ;	temp_high -> Y+1
                 ;	resolution -> Y+0
00055b 81e8      	LD   R30,Y
00055c 95e2      	SWAP R30
00055d 7fe0      	ANDI R30,0xF0
00055e 0fee      	LSL  R30
00055f 61ef      	ORI  R30,LOW(0x1F)
000560 83e8      	ST   Y,R30
                 ;     676 	//ініціалізуємо давач sensor_id
                 ;     677 	if (sensor_id) therm_dq=OUTDOOR_THERM;
000561 81eb      	LDD  R30,Y+3
000562 30e0      	CPI  R30,0
000563 f011      	BREQ _0x92
000564 2488      	CLR  R8
                 ;     678     else therm_dq=INDOOR_THERM;
000565 c002      	RJMP _0x93
                 _0x92:
000566 e0e1      	LDI  R30,LOW(1)
000567 2e8e      	MOV  R8,R30
                 ;     679 	if (therm_reset()) return 1;
                 _0x93:
000568 940e 04ce 	CALL _therm_reset
00056a 30e0      	CPI  R30,0
00056b f011      	BREQ _0x94
00056c e0e1      	LDI  R30,LOW(1)
00056d c01f      	RJMP _0x1BD
                 ;     680 	therm_write_byte(THERM_CMD_SKIPROM);
                 _0x94:
00056e 940e 0bdb 	CALL SUBOPT_0x1D
                 ;     681 	therm_write_byte(THERM_CMD_WSCRATCHPAD);
000570 e4ee      	LDI  R30,LOW(78)
000571 93ea      	ST   -Y,R30
000572 940e 0524 	CALL _therm_write_byte
                 ;     682 	therm_write_byte(temp_high);
000574 81e9      	LDD  R30,Y+1
000575 93ea      	ST   -Y,R30
000576 940e 0524 	CALL _therm_write_byte
                 ;     683 	therm_write_byte(temp_low);
000578 81ea      	LDD  R30,Y+2
000579 93ea      	ST   -Y,R30
00057a 940e 0524 	CALL _therm_write_byte
                 ;     684 	therm_write_byte(resolution);
00057c 81e8      	LD   R30,Y
00057d 93ea      	ST   -Y,R30
00057e 940e 0524 	CALL _therm_write_byte
                 ;     685 	therm_reset();
000580 940e 04ce 	CALL _therm_reset
                 ;     686 	therm_write_byte(THERM_CMD_SKIPROM);
000582 940e 0bdb 	CALL SUBOPT_0x1D
                 ;     687 	therm_write_byte(THERM_CMD_CPYSCRATCHPAD);
000584 e4e8      	LDI  R30,LOW(72)
000585 93ea      	ST   -Y,R30
000586 940e 0524 	CALL _therm_write_byte
                 ;     688 	delay_ms(15);
000588 e0ef      	LDI  R30,LOW(15)
000589 e0f0      	LDI  R31,HIGH(15)
00058a 940e 0b75 	CALL SUBOPT_0x11
                 ;     689 	return 0;
00058c e0e0      	LDI  R30,LOW(0)
                 _0x1BD:
00058d 9624      	ADIW R28,4
00058e 9508      	RET
                 ;     690 }
                 ;     691 
                 ;     692 uint8_t therm_read_spd(void)
                 ;     693 {
                 _therm_read_spd:
                 ;     694 	uint8_t i=0, *p;
                 ;     695 
                 ;     696 	p = (uint8_t*) &__ds18b20_scratch_pad;
00058f 940e 0f81 	CALL __SAVELOCR4
                 ;	i -> R17
                 ;	*p -> R18,R19
000591 e010      	LDI  R17,0
000592 e922
000593 e032      	__POINTWRM 18,19,___ds18b20_scratch_pad
                 ;     697 	do
                 _0x96:
                 ;     698 		*(p++)=therm_read_byte();
000594 933f      	PUSH R19
000595 932f      	PUSH R18
000596 5f2f
000597 4f3f      	__ADDWRN 18,19,1
000598 940e 0510 	CALL _therm_read_byte
00059a 91af      	POP  R26
00059b 91bf      	POP  R27
00059c 93ec      	ST   X,R30
                 ;     699 	while(++i<9);
00059d 5f1f      	SUBI R17,-LOW(1)
00059e 3019      	CPI  R17,9
00059f f3a0      	BRLO _0x96
                 ;     700 	if (therm_crc8((uint8_t*)&__ds18b20_scratch_pad,8)!=__ds18b20_scratch_pad.crc)
0005a0 e9e2      	LDI  R30,LOW(___ds18b20_scratch_pad)
0005a1 e0f2      	LDI  R31,HIGH(___ds18b20_scratch_pad)
0005a2 93fa      	ST   -Y,R31
0005a3 93ea      	ST   -Y,R30
0005a4 e0e8      	LDI  R30,LOW(8)
0005a5 93ea      	ST   -Y,R30
0005a6 940e 0536 	CALL _therm_crc8
0005a8 2fae      	MOV  R26,R30
0005a9 91e0 029a 	__GETB1MN ___ds18b20_scratch_pad,8
0005ab 17ea      	CP   R30,R26
0005ac f011      	BREQ _0x98
                 ;     701 		return 1;
0005ad e0e1      	LDI  R30,LOW(1)
0005ae c001      	RJMP _0x1BC
                 ;     702 	return 0;
                 _0x98:
0005af e0e0      	LDI  R30,LOW(0)
                 _0x1BC:
0005b0 940e 0f88 	CALL __LOADLOCR4
0005b2 9624      	ADIW R28,4
0005b3 9508      	RET
                 ;     703 }
                 ;     704 
                 ;     705 uint8_t therm_read_temperature(uint8_t sensor_id, float *temp)
                 ;     706 {
                 _therm_read_temperature:
                 ;     707 	uint8_t digit, decimal, resolution, sign;
                 ;     708 	uint16_t meas, bit_mask[4]={0x0008, 0x000c, 0x000e, 0x000f};
                 ;     709 
                 ;     710 	if (sensor_id) therm_dq=OUTDOOR_THERM;
0005b4 9728      	SBIW R28,8
0005b5 e088      	LDI  R24,8
0005b6 e0a0      	LDI  R26,LOW(0)
0005b7 e0b0      	LDI  R27,HIGH(0)
0005b8 eeee      	LDI  R30,LOW(_0x99*2)
0005b9 e0f0      	LDI  R31,HIGH(_0x99*2)
0005ba 940e 0f8d 	CALL __INITLOCB
0005bc 940e 0f7f 	CALL __SAVELOCR6
                 ;	sensor_id -> Y+16
                 ;	*temp -> Y+14
                 ;	digit -> R17
                 ;	decimal -> R16
                 ;	resolution -> R19
                 ;	sign -> R18
                 ;	meas -> R20,R21
                 ;	bit_mask -> Y+6
0005be 89e8      	LDD  R30,Y+16
0005bf 30e0      	CPI  R30,0
0005c0 f011      	BREQ _0x9A
0005c1 2488      	CLR  R8
                 ;     711     else therm_dq=INDOOR_THERM;
0005c2 c002      	RJMP _0x9B
                 _0x9A:
0005c3 e0e1      	LDI  R30,LOW(1)
0005c4 2e8e      	MOV  R8,R30
                 ;     712 	//скинути, пропустити процедуру перевірки серійного номера ROM і почати вимірювання і перетворення температури
                 ;     713 	if (therm_reset()) return 1;
                 _0x9B:
0005c5 940e 04ce 	CALL _therm_reset
0005c7 30e0      	CPI  R30,0
0005c8 f011      	BREQ _0x9C
0005c9 e0e1      	LDI  R30,LOW(1)
0005ca c064      	RJMP _0x1BB
                 ;     714 	therm_write_byte(THERM_CMD_SKIPROM);
                 _0x9C:
0005cb 940e 0bdb 	CALL SUBOPT_0x1D
                 ;     715 	therm_write_byte(THERM_CMD_CONVERTTEMP);
0005cd e4e4      	LDI  R30,LOW(68)
0005ce 93ea      	ST   -Y,R30
0005cf 940e 0524 	CALL _therm_write_byte
                 ;     716 	//чекаємо до закінчення перетворення
                 ;     717 	while(!therm_read_bit());
                 _0x9D:
0005d1 940e 04fa 	CALL _therm_read_bit
0005d3 30e0      	CPI  R30,0
0005d4 f3e1      	BREQ _0x9D
                 ;     718 	//скидаємо, пропускаємо ROM і посилаємо команду зчитування Scratchpad
                 ;     719 	therm_reset();
0005d5 940e 04ce 	CALL _therm_reset
                 ;     720 	therm_write_byte(THERM_CMD_SKIPROM);
0005d7 940e 0bdb 	CALL SUBOPT_0x1D
                 ;     721 	therm_write_byte(THERM_CMD_RSCRATCHPAD);
0005d9 ebee      	LDI  R30,LOW(190)
0005da 93ea      	ST   -Y,R30
0005db 940e 0524 	CALL _therm_write_byte
                 ;     722 	if (therm_read_spd()) return 1;
0005dd 940e 058f 	CALL _therm_read_spd
0005df 30e0      	CPI  R30,0
0005e0 f011      	BREQ _0xA0
0005e1 e0e1      	LDI  R30,LOW(1)
0005e2 c04c      	RJMP _0x1BB
                 ;     723 	therm_reset();
                 _0xA0:
0005e3 940e 04ce 	CALL _therm_reset
                 ;     724 	resolution=(__ds18b20_scratch_pad.conf_register>>5) & 3;
0005e5 91e0 0296 	__GETB1MN ___ds18b20_scratch_pad,4
0005e7 95e2      	SWAP R30
0005e8 70ef      	ANDI R30,0xF
0005e9 95e6      	LSR  R30
0005ea 70e3      	ANDI R30,LOW(0x3)
0005eb 2f3e      	MOV  R19,R30
                 ;     725     //отримуємо молодший і старший байти температури
                 ;     726 	meas=__ds18b20_scratch_pad.temp_lsb;  // LSB
0005ec 9140 0292 	LDS  R20,___ds18b20_scratch_pad
0005ee 2755      	CLR  R21
                 ;     727 	meas|=((uint16_t)__ds18b20_scratch_pad.temp_msb) << 8; // MSB
0005ef 91f0 0293 	__GETB1HMN ___ds18b20_scratch_pad,1
0005f1 e0e0      	LDI  R30,LOW(0)
0005f2 2b4e
0005f3 2b5f      	__ORWRR 20,21,30,31
                 ;     728 	//перевіряємо на мінусову температуру
                 ;     729 	if (meas & 0x8000)
0005f4 ff57      	SBRS R21,7
0005f5 c008      	RJMP _0xA1
                 ;     730 	{
                 ;     731 		sign=1;  //відмічаємо мінусову температуру
0005f6 e021      	LDI  R18,LOW(1)
                 ;     732 		meas^=0xffff;  //перетворюємо в плюсову
0005f7 efef      	LDI  R30,LOW(65535)
0005f8 efff      	LDI  R31,HIGH(65535)
0005f9 274e
0005fa 275f      	__EORWRR 20,21,30,31
                 ;     733 		meas++;
0005fb 5f4f
0005fc 4f5f      	__ADDWRN 20,21,1
                 ;     734 	}
                 ;     735 	else sign=0;
0005fd c001      	RJMP _0xA2
                 _0xA1:
0005fe e020      	LDI  R18,LOW(0)
                 ;     736 	//зберігаємо цілу і дробову частини температури
                 ;     737 	digit=(uint8_t)(meas >> 4); //зберігаємо цілу частину
                 _0xA2:
0005ff 01fa      	MOVW R30,R20
000600 940e 0d26 	CALL __LSRW4
000602 2f1e      	MOV  R17,R30
                 ;     738 	decimal=(uint8_t)(meas & bit_mask[resolution]);	//отримуємо дробову частину
000603 2fe3      	MOV  R30,R19
000604 e0f0      	LDI  R31,0
000605 01de      	MOVW R26,R28
000606 9616      	ADIW R26,6
000607 0fee      	LSL  R30
000608 1fff      	ROL  R31
000609 0fae      	ADD  R26,R30
00060a 1fbf      	ADC  R27,R31
00060b 940e 0da4 	CALL __GETW1P
00060d 23e4      	AND  R30,R20
00060e 23f5      	AND  R31,R21
00060f 2f0e      	MOV  R16,R30
                 ;     739 	*temp=digit+decimal*0.0625;
000610 940e 0bdf 	CALL SUBOPT_0x1E
000612 e0a0
000613 e0b0
000614 e880
000615 e39d      	__GETD2N 0x3D800000
000616 940e 0ec4 	CALL __MULF12
000618 2fa1      	MOV  R26,R17
000619 27bb      	CLR  R27
00061a 2788      	CLR  R24
00061b 2799      	CLR  R25
00061c 940e 0dc0 	CALL __CDF2
00061e 940e 0e76 	CALL __ADDF12
000620 85ae      	LDD  R26,Y+14
000621 85bf      	LDD  R27,Y+14+1
000622 940e 0dae 	CALL __PUTDP1
                 ;     740 	if (sign) *temp=-(*temp); //ставемо знак мінус, якщо мінусова температура
000624 3020      	CPI  R18,0
000625 f041      	BREQ _0xA3
000626 85ae      	LDD  R26,Y+14
000627 85bf      	LDD  R27,Y+14+1
000628 940e 0da8 	CALL __GETD1P
00062a 940e 0dd0 	CALL __ANEGF1
00062c 940e 0dae 	CALL __PUTDP1
                 ;     741 	return 0;
                 _0xA3:
00062e e0e0      	LDI  R30,LOW(0)
                 _0x1BB:
00062f 940e 0f86 	CALL __LOADLOCR6
000631 9661      	ADIW R28,17
000632 9508      	RET
                 ;     742 }
                 
                 	#ifndef __SLEEP_DEFINED__
                 	#endif
                 _getchar:
000633 9b5f           sbis usr,rxc
000634 cffe           rjmp _getchar
000635 b1ec           in   r30,udr
000636 9508      	RET
                 _putchar:
000637 9b5d           sbis usr,udre
000638 cffe           rjmp _putchar
000639 81e8           ld   r30,y
00063a b9ec           out  udr,r30
00063b 9621      	ADIW R28,1
00063c 9508      	RET
                 __put_G3:
00063d 931a      	ST   -Y,R17
00063e 930a      	ST   -Y,R16
00063f 81ac      	LDD  R26,Y+4
000640 81bd      	LDD  R27,Y+4+1
000641 940e 0da4 	CALL __GETW1P
000643 9730      	SBIW R30,0
000644 f0c1      	BREQ _0xB1
000645 81aa      	LDD  R26,Y+2
000646 81bb      	LDD  R27,Y+2+1
000647 940e 0da4 	CALL __GETW1P
000649 018f      	MOVW R16,R30
00064a 9730      	SBIW R30,0
00064b f049      	BREQ _0xB3
00064c 3002
00064d e0e0
00064e 071e      	__CPWRN 16,17,2
00064f f060      	BRLO _0xB4
000650 01f8      	MOVW R30,R16
000651 9731      	SBIW R30,1
000652 018f      	MOVW R16,R30
000653 93ed      	ST   X+,R30
000654 93fc      	ST   X,R31
                 _0xB3:
000655 81ac      	LDD  R26,Y+4
000656 81bd      	LDD  R27,Y+4+1
000657 940e 0b27 	CALL SUBOPT_0x9
000659 9731      	SBIW R30,1
00065a 81ae      	LDD  R26,Y+6
00065b 83a0      	STD  Z+0,R26
                 _0xB4:
00065c c004      	RJMP _0xB5
                 _0xB1:
00065d 81ee      	LDD  R30,Y+6
00065e 93ea      	ST   -Y,R30
00065f 940e 0637 	CALL _putchar
                 _0xB5:
000661 8119      	LDD  R17,Y+1
000662 8108      	LDD  R16,Y+0
000663 9627      	ADIW R28,7
000664 9508      	RET
                 __ftoa_G3:
000665 9724      	SBIW R28,4
000666 931a      	ST   -Y,R17
000667 930a      	ST   -Y,R16
000668 85a8      	LDD  R26,Y+8
000669 30a7      	CPI  R26,LOW(0x7)
00066a f010      	BRLO _0xB6
00066b e0e6      	LDI  R30,LOW(6)
00066c 87e8      	STD  Y+8,R30
                 _0xB6:
00066d 85e8      	LDD  R30,Y+8
00066e efa6      	LDI  R26,LOW(__fround_G3*2)
00066f e0b0      	LDI  R27,HIGH(__fround_G3*2)
000670 e0f0      	LDI  R31,0
000671 940e 0d21 	CALL __LSLW2
000673 0fea      	ADD  R30,R26
000674 1ffb      	ADC  R31,R27
000675 940e 0db3 	CALL __GETD1PF
000677 940e 0be6 	CALL SUBOPT_0x1F
000679 940e 0e76 	CALL __ADDF12
00067b 940e 0beb 	CALL SUBOPT_0x20
00067d e010      	LDI  R17,LOW(0)
00067e e0e0
00067f e0f0
000680 e860
000681 e37f      	__GETD1N 0x3F800000
000682 940e 0bf0 	CALL SUBOPT_0x21
                 _0xB7:
000684 940e 0bf5 	CALL SUBOPT_0x22
000686 940e 0f57 	CALL __CMPF12
000688 f040      	BRLO _0xB9
000689 940e 0bfa 	CALL SUBOPT_0x23
00068b 940e 0ec4 	CALL __MULF12
00068d 940e 0bf0 	CALL SUBOPT_0x21
00068f 5f1f      	SUBI R17,-LOW(1)
000690 cff3      	RJMP _0xB7
                 _0xB9:
000691 3010      	CPI  R17,0
000692 f429      	BRNE _0xBA
000693 940e 0c03 	CALL SUBOPT_0x24
000695 e3e0      	LDI  R30,LOW(48)
000696 93ec      	ST   X,R30
000697 c027      	RJMP _0xBB
                 _0xBA:
                 _0xBC:
000698 2fe1      	MOV  R30,R17
000699 5011      	SUBI R17,1
00069a 30e0      	CPI  R30,0
00069b f119      	BREQ _0xBE
00069c 940e 0bfa 	CALL SUBOPT_0x23
00069e 940e 0c0a 	CALL SUBOPT_0x25
0006a0 940e 0bf0 	CALL SUBOPT_0x21
0006a2 940e 0bf5 	CALL SUBOPT_0x22
0006a4 940e 0f12 	CALL __DIVF21
0006a6 940e 0e05 	CALL __CFD1
0006a8 2f0e      	MOV  R16,R30
0006a9 940e 0c03 	CALL SUBOPT_0x24
0006ab 2fe0      	MOV  R30,R16
0006ac 5de0      	SUBI R30,-LOW(48)
0006ad 93ec      	ST   X,R30
0006ae 2fe0      	MOV  R30,R16
0006af 81aa
0006b0 81bb
0006b1 818c
0006b2 819d      	__GETD2S 2
0006b3 27ff      	CLR  R31
0006b4 2766      	CLR  R22
0006b5 2777      	CLR  R23
0006b6 940e 0e3c 	CALL __CDF1
0006b8 940e 0ec4 	CALL __MULF12
0006ba 940e 0be6 	CALL SUBOPT_0x1F
0006bc 940e 0c16 	CALL SUBOPT_0x26
0006be cfd9      	RJMP _0xBC
                 _0xBE:
                 _0xBB:
0006bf 85e8      	LDD  R30,Y+8
0006c0 30e0      	CPI  R30,0
0006c1 f429      	BRNE _0xBF
0006c2 81ae      	LDD  R26,Y+6
0006c3 81bf      	LDD  R27,Y+6+1
0006c4 e0e0      	LDI  R30,LOW(0)
0006c5 93ec      	ST   X,R30
0006c6 c02a      	RJMP _0x1BA
                 _0xBF:
0006c7 940e 0c03 	CALL SUBOPT_0x24
0006c9 e2ee      	LDI  R30,LOW(46)
0006ca 93ec      	ST   X,R30
                 _0xC0:
0006cb 85e8      	LDD  R30,Y+8
0006cc 50e1      	SUBI R30,LOW(1)
0006cd 87e8      	STD  Y+8,R30
0006ce 5fef      	SUBI R30,-LOW(1)
0006cf f0e9      	BREQ _0xC2
0006d0 940e 0be6 	CALL SUBOPT_0x1F
0006d2 940e 0c1b 	CALL SUBOPT_0x27
0006d4 940e 0beb 	CALL SUBOPT_0x20
0006d6 85e9
0006d7 85fa
0006d8 856b
0006d9 857c      	__GETD1S 9
0006da 940e 0e03 	CALL __CFD1U
0006dc 2f0e      	MOV  R16,R30
0006dd 940e 0c03 	CALL SUBOPT_0x24
0006df 2fe0      	MOV  R30,R16
0006e0 5de0      	SUBI R30,-LOW(48)
0006e1 93ec      	ST   X,R30
0006e2 2fe0      	MOV  R30,R16
0006e3 940e 0be6 	CALL SUBOPT_0x1F
0006e5 27ff      	CLR  R31
0006e6 2766      	CLR  R22
0006e7 2777      	CLR  R23
0006e8 940e 0e3c 	CALL __CDF1
0006ea 940e 0c16 	CALL SUBOPT_0x26
0006ec cfde      	RJMP _0xC0
                 _0xC2:
0006ed 81ae      	LDD  R26,Y+6
0006ee 81bf      	LDD  R27,Y+6+1
0006ef e0e0      	LDI  R30,LOW(0)
0006f0 93ec      	ST   X,R30
                 _0x1BA:
0006f1 8119      	LDD  R17,Y+1
0006f2 8108      	LDD  R16,Y+0
0006f3 962d      	ADIW R28,13
0006f4 9508      	RET
                 __ftoe_G3:
0006f5 9724      	SBIW R28,4
0006f6 940e 0f81 	CALL __SAVELOCR4
0006f8 e0e0
0006f9 e0f0
0006fa e860
0006fb e37f      	__GETD1N 0x3F800000
0006fc 940e 0c22 	CALL SUBOPT_0x28
0006fe 85ab      	LDD  R26,Y+11
0006ff 30a7      	CPI  R26,LOW(0x7)
000700 f010      	BRLO _0xC3
000701 e0e6      	LDI  R30,LOW(6)
000702 87eb      	STD  Y+11,R30
                 _0xC3:
000703 851b      	LDD  R17,Y+11
                 _0xC4:
000704 2fe1      	MOV  R30,R17
000705 5011      	SUBI R17,1
000706 30e0      	CPI  R30,0
000707 f029      	BREQ _0xC6
000708 940e 0c27 	CALL SUBOPT_0x29
00070a 940e 0c22 	CALL SUBOPT_0x28
00070c cff7      	RJMP _0xC4
                 _0xC6:
00070d 940e 0c2c 	CALL SUBOPT_0x2A
00070f 940e 0f77 	CALL __CPD10
000711 f431      	BRNE _0xC7
000712 e030      	LDI  R19,LOW(0)
000713 940e 0c27 	CALL SUBOPT_0x29
000715 940e 0c22 	CALL SUBOPT_0x28
000717 c034      	RJMP _0xC8
                 _0xC7:
000718 853b      	LDD  R19,Y+11
000719 940e 0c31 	CALL SUBOPT_0x2B
00071b f009      	BREQ PC+2
00071c f410      	BRCC PC+3
00071d 940c 072c 	JMP  _0xC9
00071f 940e 0c27 	CALL SUBOPT_0x29
000721 940e 0c22 	CALL SUBOPT_0x28
                 _0xCA:
000723 940e 0c31 	CALL SUBOPT_0x2B
000725 f028      	BRLO _0xCC
000726 940e 0c3c 	CALL SUBOPT_0x2C
000728 940e 0c41 	CALL SUBOPT_0x2D
00072a cff8      	RJMP _0xCA
                 _0xCC:
00072b c00f      	RJMP _0xCD
                 _0xC9:
                 _0xCE:
00072c 940e 0c31 	CALL SUBOPT_0x2B
00072e f440      	BRSH _0xD0
00072f 940e 0c3c 	CALL SUBOPT_0x2C
000731 940e 0c1b 	CALL SUBOPT_0x27
000733 940e 0c4d 	CALL SUBOPT_0x2E
000735 5031      	SUBI R19,LOW(1)
000736 cff5      	RJMP _0xCE
                 _0xD0:
000737 940e 0c27 	CALL SUBOPT_0x29
000739 940e 0c22 	CALL SUBOPT_0x28
                 _0xCD:
00073b 940e 0c2c 	CALL SUBOPT_0x2A
00073d e0a0
00073e e0b0
00073f e080
000740 e39f      	__GETD2N 0x3F000000
000741 940e 0e76 	CALL __ADDF12
000743 940e 0c4d 	CALL SUBOPT_0x2E
000745 940e 0c31 	CALL SUBOPT_0x2B
000747 f020      	BRLO _0xD1
000748 940e 0c3c 	CALL SUBOPT_0x2C
00074a 940e 0c41 	CALL SUBOPT_0x2D
                 _0xD1:
                 _0xC8:
00074c e010      	LDI  R17,LOW(0)
                 _0xD2:
00074d 85eb      	LDD  R30,Y+11
00074e 17e1      	CP   R30,R17
00074f f1a8      	BRLO _0xD4
000750 81ac
000751 81bd
000752 818e
000753 819f      	__GETD2S 4
000754 e0e0
000755 e0f0
000756 e260
000757 e471      	__GETD1N 0x41200000
000758 940e 0c0a 	CALL SUBOPT_0x25
00075a 940e 0c22 	CALL SUBOPT_0x28
00075c 81ec
00075d 81fd
00075e 816e
00075f 817f      	__GETD1S 4
000760 940e 0c3c 	CALL SUBOPT_0x2C
000762 940e 0f12 	CALL __DIVF21
000764 940e 0e05 	CALL __CFD1
000766 2f0e      	MOV  R16,R30
000767 940e 0c52 	CALL SUBOPT_0x2F
000769 2fe0      	MOV  R30,R16
00076a 5de0      	SUBI R30,-LOW(48)
00076b 93ec      	ST   X,R30
00076c 940e 0bdf 	CALL SUBOPT_0x1E
00076e 81ac
00076f 81bd
000770 818e
000771 819f      	__GETD2S 4
000772 940e 0ec4 	CALL __MULF12
000774 940e 0c3c 	CALL SUBOPT_0x2C
000776 940e 0dc3 	CALL __SWAPD12
000778 940e 0e6f 	CALL __SUBF12
00077a 940e 0c4d 	CALL SUBOPT_0x2E
00077c 2fe1      	MOV  R30,R17
00077d 5f1f      	SUBI R17,-1
00077e 30e0      	CPI  R30,0
00077f f669      	BRNE _0xD2
000780 940e 0c52 	CALL SUBOPT_0x2F
000782 e2ee      	LDI  R30,LOW(46)
000783 93ec      	ST   X,R30
000784 cfc8      	RJMP _0xD2
                 _0xD4:
000785 940e 0c59 	CALL SUBOPT_0x30
000787 85aa      	LDD  R26,Y+10
000788 83a0      	STD  Z+0,R26
000789 3030      	CPI  R19,0
00078a f42c      	BRGE _0xD6
00078b 940e 0c52 	CALL SUBOPT_0x2F
00078d e2ed      	LDI  R30,LOW(45)
00078e 93ec      	ST   X,R30
00078f 9531      	NEG  R19
                 _0xD6:
000790 303a      	CPI  R19,10
000791 f054      	BRLT _0xD7
000792 940e 0c59 	CALL SUBOPT_0x30
000794 01bf      	MOVW R22,R30
000795 2fa3      	MOV  R26,R19
000796 e0ea      	LDI  R30,LOW(10)
000797 940e 0d5b 	CALL __DIVB21
000799 5de0      	SUBI R30,-LOW(48)
00079a 01db      	MOVW R26,R22
00079b 93ec      	ST   X,R30
                 _0xD7:
00079c 940e 0c59 	CALL SUBOPT_0x30
00079e 01bf      	MOVW R22,R30
00079f 2fa3      	MOV  R26,R19
0007a0 e0ea      	LDI  R30,LOW(10)
0007a1 940e 0d85 	CALL __MODB21
0007a3 5de0      	SUBI R30,-LOW(48)
0007a4 01db      	MOVW R26,R22
0007a5 93ec      	ST   X,R30
0007a6 85a8      	LDD  R26,Y+8
0007a7 85b9      	LDD  R27,Y+8+1
0007a8 e0e0      	LDI  R30,LOW(0)
0007a9 93ec      	ST   X,R30
0007aa 940e 0f88 	CALL __LOADLOCR4
0007ac 9660      	ADIW R28,16
0007ad 9508      	RET
                 __print_G3:
0007ae 97ef      	SBIW R28,63
0007af 972f      	SBIW R28,15
0007b0 940e 0f7f 	CALL __SAVELOCR6
0007b2 e010      	LDI  R17,0
0007b3 01fe
0007b4 5aec
0007b5 4fff
0007b6 9001
0007b7 81f0
0007b8 2de0      	__GETW1SX 84
0007b9 8be8      	STD  Y+16,R30
0007ba 8bf9      	STD  Y+16+1,R31
                 _0xD8:
0007bb 01de      	MOVW R26,R28
0007bc 5aa6      	SUBI R26,LOW(-(90))
0007bd 4fbf      	SBCI R27,HIGH(-(90))
0007be 940e 0b27 	CALL SUBOPT_0x9
0007c0 9731      	SBIW R30,1
0007c1 91e4      	LPM  R30,Z
0007c2 2f2e      	MOV  R18,R30
0007c3 30e0      	CPI  R30,0
0007c4 f411      	BRNE PC+3
0007c5 940c 09ba 	JMP _0xDA
0007c7 2fe1      	MOV  R30,R17
0007c8 30e0      	CPI  R30,0
0007c9 f439      	BRNE _0xDE
0007ca 3225      	CPI  R18,37
0007cb f411      	BRNE _0xDF
0007cc e011      	LDI  R17,LOW(1)
0007cd c002      	RJMP _0xE0
                 _0xDF:
0007ce 940e 0c60 	CALL SUBOPT_0x31
                 _0xE0:
0007d0 c1e8      	RJMP _0xDD
                 _0xDE:
0007d1 30e1      	CPI  R30,LOW(0x1)
0007d2 f4c1      	BRNE _0xE1
0007d3 3225      	CPI  R18,37
0007d4 f419      	BRNE _0xE2
0007d5 940e 0c60 	CALL SUBOPT_0x31
0007d7 c1e0      	RJMP _0x1C7
                 _0xE2:
0007d8 e012      	LDI  R17,LOW(2)
0007d9 e0e0      	LDI  R30,LOW(0)
0007da 8beb      	STD  Y+19,R30
0007db e000      	LDI  R16,LOW(0)
0007dc 322d      	CPI  R18,45
0007dd f411      	BRNE _0xE3
0007de e001      	LDI  R16,LOW(1)
0007df c1d9      	RJMP _0xDD
                 _0xE3:
0007e0 322b      	CPI  R18,43
0007e1 f419      	BRNE _0xE4
0007e2 e2eb      	LDI  R30,LOW(43)
0007e3 8beb      	STD  Y+19,R30
0007e4 c1d4      	RJMP _0xDD
                 _0xE4:
0007e5 3220      	CPI  R18,32
0007e6 f419      	BRNE _0xE5
0007e7 e2e0      	LDI  R30,LOW(32)
0007e8 8beb      	STD  Y+19,R30
0007e9 c1cf      	RJMP _0xDD
                 _0xE5:
0007ea c002      	RJMP _0xE6
                 _0xE1:
0007eb 30e2      	CPI  R30,LOW(0x2)
0007ec f439      	BRNE _0xE7
                 _0xE6:
0007ed e050      	LDI  R21,LOW(0)
0007ee e013      	LDI  R17,LOW(3)
0007ef 3320      	CPI  R18,48
0007f0 f411      	BRNE _0xE8
0007f1 6800      	ORI  R16,LOW(128)
0007f2 c1c6      	RJMP _0xDD
                 _0xE8:
0007f3 c002      	RJMP _0xE9
                 _0xE7:
0007f4 30e3      	CPI  R30,LOW(0x3)
0007f5 f4a1      	BRNE _0xEA
                 _0xE9:
0007f6 3320      	CPI  R18,48
0007f7 f010      	BRLO _0xEC
0007f8 332a      	CPI  R18,58
0007f9 f008      	BRLO _0xED
                 _0xEC:
0007fa c009      	RJMP _0xEB
                 _0xED:
0007fb 2fa5      	MOV  R26,R21
0007fc e0ea      	LDI  R30,LOW(10)
0007fd 9fea      	MUL  R30,R26
0007fe 01f0      	MOVW R30,R0
0007ff 2f5e      	MOV  R21,R30
000800 2fe2      	MOV  R30,R18
000801 53e0      	SUBI R30,LOW(48)
000802 0f5e      	ADD  R21,R30
000803 c1b5      	RJMP _0xDD
                 _0xEB:
000804 e040      	LDI  R20,LOW(0)
000805 322e      	CPI  R18,46
000806 f411      	BRNE _0xEE
000807 e014      	LDI  R17,LOW(4)
000808 c1b0      	RJMP _0xDD
                 _0xEE:
000809 c011      	RJMP _0xEF
                 _0xEA:
00080a 30e4      	CPI  R30,LOW(0x4)
00080b f4a9      	BRNE _0xF1
00080c 3320      	CPI  R18,48
00080d f010      	BRLO _0xF3
00080e 332a      	CPI  R18,58
00080f f008      	BRLO _0xF4
                 _0xF3:
000810 c00a      	RJMP _0xF2
                 _0xF4:
000811 6200      	ORI  R16,LOW(32)
000812 2fa4      	MOV  R26,R20
000813 e0ea      	LDI  R30,LOW(10)
000814 9fea      	MUL  R30,R26
000815 01f0      	MOVW R30,R0
000816 2f4e      	MOV  R20,R30
000817 2fe2      	MOV  R30,R18
000818 53e0      	SUBI R30,LOW(48)
000819 0f4e      	ADD  R20,R30
00081a c19e      	RJMP _0xDD
                 _0xF2:
                 _0xEF:
00081b 362c      	CPI  R18,108
00081c f419      	BRNE _0xF5
00081d 6002      	ORI  R16,LOW(2)
00081e e015      	LDI  R17,LOW(5)
00081f c199      	RJMP _0xDD
                 _0xF5:
000820 c004      	RJMP _0xF6
                 _0xF1:
000821 30e5      	CPI  R30,LOW(0x5)
000822 f011      	BREQ PC+3
000823 940c 09b9 	JMP _0xDD
                 _0xF6:
000825 2fe2      	MOV  R30,R18
000826 36e3      	CPI  R30,LOW(0x63)
000827 f431      	BRNE _0xFB
000828 940e 0c6f 	CALL SUBOPT_0x32
00082a 81e4      	LDD  R30,Z+4
00082b 940e 0c78 	CALL SUBOPT_0x33
00082d c18a      	RJMP _0xFC
                 _0xFB:
00082e 34e5      	CPI  R30,LOW(0x45)
00082f f011      	BREQ _0xFF
000830 36e5      	CPI  R30,LOW(0x65)
000831 f409      	BRNE _0x100
                 _0xFF:
000832 c004      	RJMP _0x101
                 _0x100:
000833 36e6      	CPI  R30,LOW(0x66)
000834 f011      	BREQ PC+3
000835 940c 087f 	JMP _0x102
                 _0x101:
000837 01fe      	MOVW R30,R28
000838 9674      	ADIW R30,20
000839 87ea      	STD  Y+10,R30
00083a 87fb      	STD  Y+10+1,R31
00083b 940e 0c6f 	CALL SUBOPT_0x32
00083d 9634      	ADIW R30,4
00083e 01df      	MOVW R26,R30
00083f 940e 0da8 	CALL __GETD1P
000841 940e 0c87 	CALL SUBOPT_0x34
000843 01df      	MOVW R26,R30
000844 01cb      	MOVW R24,R22
000845 940e 0f7b 	CALL __CPD20
000847 f024      	BRLT _0x103
000848 89ab      	LDD  R26,Y+19
000849 32ab      	CPI  R26,LOW(0x2B)
00084a f049      	BREQ _0x105
00084b c012      	RJMP _0x106
                 _0x103:
00084c 940e 0c8c 	CALL SUBOPT_0x35
00084e 940e 0dd0 	CALL __ANEGF1
000850 940e 0c87 	CALL SUBOPT_0x34
000852 e2ed      	LDI  R30,LOW(45)
000853 8beb      	STD  Y+19,R30
                 _0x105:
000854 ff07      	SBRS R16,7
000855 c004      	RJMP _0x107
000856 89eb      	LDD  R30,Y+19
000857 940e 0c78 	CALL SUBOPT_0x33
000859 c004      	RJMP _0x108
                 _0x107:
00085a 940e 0c91 	CALL SUBOPT_0x36
00085c 89ab      	LDD  R26,Y+19
00085d 83a0      	STD  Z+0,R26
                 _0x108:
                 _0x106:
00085e ff05      	SBRS R16,5
00085f e046      	LDI  R20,LOW(6)
000860 3626      	CPI  R18,102
000861 f461      	BRNE _0x10A
000862 940e 0c8c 	CALL SUBOPT_0x35
000864 940e 0db9 	CALL __PUTPARD1
000866 934a      	ST   -Y,R20
000867 85ef      	LDD  R30,Y+15
000868 89f8      	LDD  R31,Y+15+1
000869 93fa      	ST   -Y,R31
00086a 93ea      	ST   -Y,R30
00086b 940e 0665 	CALL __ftoa_G3
00086d c00c      	RJMP _0x10B
                 _0x10A:
00086e 940e 0c8c 	CALL SUBOPT_0x35
000870 940e 0db9 	CALL __PUTPARD1
000872 934a      	ST   -Y,R20
000873 932a      	ST   -Y,R18
000874 89e8      	LDD  R30,Y+16
000875 89f9      	LDD  R31,Y+16+1
000876 93fa      	ST   -Y,R31
000877 93ea      	ST   -Y,R30
000878 940e 06f5 	CALL __ftoe_G3
                 _0x10B:
00087a 01fe      	MOVW R30,R28
00087b 9674      	ADIW R30,20
00087c 940e 0c98 	CALL SUBOPT_0x37
00087e c01e      	RJMP _0x10C
                 _0x102:
00087f 37e3      	CPI  R30,LOW(0x73)
000880 f439      	BRNE _0x10E
000881 940e 0c6f 	CALL SUBOPT_0x32
000883 940e 0ca0 	CALL SUBOPT_0x38
000885 940e 0c98 	CALL SUBOPT_0x37
000887 c00e      	RJMP _0x10F
                 _0x10E:
000888 37e0      	CPI  R30,LOW(0x70)
000889 f4c1      	BRNE _0x111
00088a 940e 0c6f 	CALL SUBOPT_0x32
00088c 940e 0ca0 	CALL SUBOPT_0x38
00088e 87ea      	STD  Y+10,R30
00088f 87fb      	STD  Y+10+1,R31
000890 93fa      	ST   -Y,R31
000891 93ea      	ST   -Y,R30
000892 940e 0ae7 	CALL _strlenf
000894 2f1e      	MOV  R17,R30
000895 6008      	ORI  R16,LOW(8)
                 _0x10F:
000896 770f      	ANDI R16,LOW(127)
000897 3040      	CPI  R20,0
000898 f011      	BREQ _0x113
000899 1741      	CP   R20,R17
00089a f008      	BRLO _0x114
                 _0x113:
00089b c001      	RJMP _0x112
                 _0x114:
00089c 2f14      	MOV  R17,R20
                 _0x112:
                 _0x10C:
00089d e040      	LDI  R20,LOW(0)
00089e e0e0      	LDI  R30,LOW(0)
00089f 8bea      	STD  Y+18,R30
0008a0 e030      	LDI  R19,LOW(0)
0008a1 c06f      	RJMP _0x115
                 _0x111:
0008a2 36e4      	CPI  R30,LOW(0x64)
0008a3 f011      	BREQ _0x118
0008a4 36e9      	CPI  R30,LOW(0x69)
0008a5 f411      	BRNE _0x119
                 _0x118:
0008a6 6004      	ORI  R16,LOW(4)
0008a7 c002      	RJMP _0x11A
                 _0x119:
0008a8 37e5      	CPI  R30,LOW(0x75)
0008a9 f4a1      	BRNE _0x11B
                 _0x11A:
0008aa e0ea      	LDI  R30,LOW(10)
0008ab 8bea      	STD  Y+18,R30
0008ac ff01      	SBRS R16,1
0008ad c008      	RJMP _0x11C
0008ae e0e0
0008af ecfa
0008b0 e96a
0008b1 e37b      	__GETD1N 0x3B9ACA00
0008b2 940e 0c4d 	CALL SUBOPT_0x2E
0008b4 e01a      	LDI  R17,LOW(10)
0008b5 c023      	RJMP _0x11D
                 _0x11C:
0008b6 e1e0
0008b7 e2f7
0008b8 e060
0008b9 e070      	__GETD1N 0x2710
0008ba 940e 0c4d 	CALL SUBOPT_0x2E
0008bc e015      	LDI  R17,LOW(5)
0008bd c01b      	RJMP _0x11D
                 _0x11B:
0008be 35e8      	CPI  R30,LOW(0x58)
0008bf f411      	BRNE _0x11F
0008c0 6008      	ORI  R16,LOW(8)
0008c1 c004      	RJMP _0x120
                 _0x11F:
0008c2 37e8      	CPI  R30,LOW(0x78)
0008c3 f011      	BREQ PC+3
0008c4 940c 09b8 	JMP _0x15E
                 _0x120:
0008c6 e1e0      	LDI  R30,LOW(16)
0008c7 8bea      	STD  Y+18,R30
0008c8 ff01      	SBRS R16,1
0008c9 c008      	RJMP _0x122
0008ca e0e0
0008cb e0f0
0008cc e060
0008cd e170      	__GETD1N 0x10000000
0008ce 940e 0c4d 	CALL SUBOPT_0x2E
0008d0 e018      	LDI  R17,LOW(8)
0008d1 c007      	RJMP _0x11D
                 _0x122:
0008d2 e0e0
0008d3 e1f0
0008d4 e060
0008d5 e070      	__GETD1N 0x1000
0008d6 940e 0c4d 	CALL SUBOPT_0x2E
0008d8 e014      	LDI  R17,LOW(4)
                 _0x11D:
0008d9 3040      	CPI  R20,0
0008da f011      	BREQ _0x123
0008db 770f      	ANDI R16,LOW(127)
0008dc c001      	RJMP _0x124
                 _0x123:
0008dd e041      	LDI  R20,LOW(1)
                 _0x124:
0008de ff01      	SBRS R16,1
0008df c007      	RJMP _0x125
0008e0 940e 0c6f 	CALL SUBOPT_0x32
0008e2 9634      	ADIW R30,4
0008e3 01df      	MOVW R26,R30
0008e4 940e 0da8 	CALL __GETD1P
0008e6 c00f      	RJMP _0x1C8
                 _0x125:
0008e7 ff02      	SBRS R16,2
0008e8 c007      	RJMP _0x127
0008e9 940e 0c6f 	CALL SUBOPT_0x32
0008eb 940e 0ca0 	CALL SUBOPT_0x38
0008ed 940e 0d35 	CALL __CWD1
0008ef c006      	RJMP _0x1C8
                 _0x127:
0008f0 940e 0c6f 	CALL SUBOPT_0x32
0008f2 940e 0ca0 	CALL SUBOPT_0x38
0008f4 2766      	CLR  R22
0008f5 2777      	CLR  R23
                 _0x1C8:
0008f6 83ee
0008f7 83ff
0008f8 8768
0008f9 8779      	__PUTD1S 6
0008fa ff02      	SBRS R16,2
0008fb c014      	RJMP _0x129
0008fc 940e 0ca5 	CALL SUBOPT_0x39
0008fe 940e 0f7b 	CALL __CPD20
000900 f444      	BRGE _0x12A
000901 940e 0c8c 	CALL SUBOPT_0x35
000903 940e 0d11 	CALL __ANEGD1
000905 940e 0c87 	CALL SUBOPT_0x34
000907 e2ed      	LDI  R30,LOW(45)
000908 8beb      	STD  Y+19,R30
                 _0x12A:
000909 89eb      	LDD  R30,Y+19
00090a 30e0      	CPI  R30,0
00090b f019      	BREQ _0x12B
00090c 5f1f      	SUBI R17,-LOW(1)
00090d 5f4f      	SUBI R20,-LOW(1)
00090e c001      	RJMP _0x12C
                 _0x12B:
00090f 7f0b      	ANDI R16,LOW(251)
                 _0x12C:
                 _0x129:
000910 2f34      	MOV  R19,R20
                 _0x115:
000911 fd00      	SBRC R16,0
000912 c014      	RJMP _0x12D
                 _0x12E:
000913 1715      	CP   R17,R21
000914 f410      	BRSH _0x131
000915 1735      	CP   R19,R21
000916 f008      	BRLO _0x132
                 _0x131:
000917 c00f      	RJMP _0x130
                 _0x132:
000918 ff07      	SBRS R16,7
000919 c008      	RJMP _0x133
00091a ff02      	SBRS R16,2
00091b c004      	RJMP _0x134
00091c 7f0b      	ANDI R16,LOW(251)
00091d 892b      	LDD  R18,Y+19
00091e 5011      	SUBI R17,LOW(1)
00091f c001      	RJMP _0x135
                 _0x134:
000920 e320      	LDI  R18,LOW(48)
                 _0x135:
000921 c001      	RJMP _0x136
                 _0x133:
000922 e220      	LDI  R18,LOW(32)
                 _0x136:
000923 940e 0c60 	CALL SUBOPT_0x31
000925 5051      	SUBI R21,LOW(1)
000926 cfec      	RJMP _0x12E
                 _0x130:
                 _0x12D:
                 _0x137:
000927 1714      	CP   R17,R20
000928 f488      	BRSH _0x139
000929 6100      	ORI  R16,LOW(16)
00092a ff02      	SBRS R16,2
00092b c006      	RJMP _0x13A
00092c 940e 0caa 	CALL SUBOPT_0x3A
00092e f009      	BREQ _0x13B
00092f 5051      	SUBI R21,LOW(1)
                 _0x13B:
000930 5011      	SUBI R17,LOW(1)
000931 5041      	SUBI R20,LOW(1)
                 _0x13A:
000932 e3e0      	LDI  R30,LOW(48)
000933 940e 0c78 	CALL SUBOPT_0x33
000935 3050      	CPI  R21,0
000936 f009      	BREQ _0x13C
000937 5051      	SUBI R21,LOW(1)
                 _0x13C:
000938 5041      	SUBI R20,LOW(1)
000939 cfed      	RJMP _0x137
                 _0x139:
00093a 2f31      	MOV  R19,R17
00093b 89ea      	LDD  R30,Y+18
00093c 30e0      	CPI  R30,0
00093d f511      	BRNE _0x13D
                 _0x13E:
00093e 3030      	CPI  R19,0
00093f f0f9      	BREQ _0x140
000940 ff03      	SBRS R16,3
000941 c004      	RJMP _0x141
000942 940e 0c91 	CALL SUBOPT_0x36
000944 91e4      	LPM  R30,Z
000945 c005      	RJMP _0x1C9
                 _0x141:
000946 85aa      	LDD  R26,Y+10
000947 85bb      	LDD  R27,Y+10+1
000948 91ed      	LD   R30,X+
000949 87aa      	STD  Y+10,R26
00094a 87bb      	STD  Y+10+1,R27
                 _0x1C9:
00094b 93ea      	ST   -Y,R30
00094c 01fe
00094d 5ae9
00094e 4fff
00094f 9001
000950 81f0
000951 2de0      	__GETW1SX 87
000952 93fa      	ST   -Y,R31
000953 93ea      	ST   -Y,R30
000954 01fe      	MOVW R30,R28
000955 9673      	ADIW R30,19
000956 93fa      	ST   -Y,R31
000957 93ea      	ST   -Y,R30
000958 940e 063d 	CALL __put_G3
00095a 3050      	CPI  R21,0
00095b f009      	BREQ _0x143
00095c 5051      	SUBI R21,LOW(1)
                 _0x143:
00095d 5031      	SUBI R19,LOW(1)
00095e cfdf      	RJMP _0x13E
                 _0x140:
00095f c04f      	RJMP _0x144
                 _0x13D:
                 _0x146:
000960 940e 0c2c 	CALL SUBOPT_0x2A
000962 940e 0ca5 	CALL SUBOPT_0x39
000964 940e 0d60 	CALL __DIVD21U
000966 2f2e      	MOV  R18,R30
000967 302a      	CPI  R18,10
000968 f030      	BRLO _0x148
000969 ff03      	SBRS R16,3
00096a c002      	RJMP _0x149
00096b 5c29      	SUBI R18,-LOW(55)
00096c c001      	RJMP _0x14A
                 _0x149:
00096d 5a29      	SUBI R18,-LOW(87)
                 _0x14A:
00096e c001      	RJMP _0x14B
                 _0x148:
00096f 5d20      	SUBI R18,-LOW(48)
                 _0x14B:
000970 fd04      	SBRC R16,4
000971 c01f      	RJMP _0x14D
000972 3321      	CPI  R18,49
000973 f450      	BRSH _0x14F
000974 940e 0c3c 	CALL SUBOPT_0x2C
000976 30a1
000977 e0e0
000978 07be
000979 e0e0
00097a 078e
00097b e0e0
00097c 079e      	__CPD2N 0x1
00097d f409      	BRNE _0x14E
                 _0x14F:
00097e c00b      	RJMP _0x151
                 _0x14E:
00097f 1743      	CP   R20,R19
000980 f440      	BRSH _0x1CA
000981 1753      	CP   R21,R19
000982 f010      	BRLO _0x154
000983 ff00      	SBRS R16,0
000984 c001      	RJMP _0x155
                 _0x154:
000985 c010      	RJMP _0x153
                 _0x155:
000986 e220      	LDI  R18,LOW(32)
000987 ff07      	SBRS R16,7
000988 c008      	RJMP _0x156
                 _0x1CA:
000989 e320      	LDI  R18,LOW(48)
                 _0x151:
00098a 6100      	ORI  R16,LOW(16)
00098b ff02      	SBRS R16,2
00098c c004      	RJMP _0x157
00098d 940e 0caa 	CALL SUBOPT_0x3A
00098f f009      	BREQ _0x158
000990 5051      	SUBI R21,LOW(1)
                 _0x158:
                 _0x157:
                 _0x156:
                 _0x14D:
000991 940e 0c60 	CALL SUBOPT_0x31
000993 3050      	CPI  R21,0
000994 f009      	BREQ _0x159
000995 5051      	SUBI R21,LOW(1)
                 _0x159:
                 _0x153:
000996 5031      	SUBI R19,LOW(1)
000997 940e 0c2c 	CALL SUBOPT_0x2A
000999 940e 0ca5 	CALL SUBOPT_0x39
00099b 940e 0d94 	CALL __MODD21U
00099d 940e 0c87 	CALL SUBOPT_0x34
00099f 89ea      	LDD  R30,Y+18
0009a0 940e 0c3c 	CALL SUBOPT_0x2C
0009a2 27ff      	CLR  R31
0009a3 2766      	CLR  R22
0009a4 2777      	CLR  R23
0009a5 940e 0d60 	CALL __DIVD21U
0009a7 940e 0c4d 	CALL SUBOPT_0x2E
0009a9 940e 0c2c 	CALL SUBOPT_0x2A
0009ab 940e 0f77 	CALL __CPD10
0009ad f009      	BREQ _0x147
0009ae cfb1      	RJMP _0x146
                 _0x147:
                 _0x144:
0009af ff00      	SBRS R16,0
0009b0 c007      	RJMP _0x15A
                 _0x15B:
0009b1 3050      	CPI  R21,0
0009b2 f029      	BREQ _0x15D
0009b3 5051      	SUBI R21,LOW(1)
0009b4 e2e0      	LDI  R30,LOW(32)
0009b5 940e 0c78 	CALL SUBOPT_0x33
0009b7 cff9      	RJMP _0x15B
                 _0x15D:
                 _0x15A:
                 _0x15E:
                 _0xFC:
                 _0x1C7:
0009b8 e010      	LDI  R17,LOW(0)
                 _0xDD:
0009b9 ce01      	RJMP _0xD8
                 _0xDA:
0009ba 940e 0f86 	CALL __LOADLOCR6
0009bc 96ef      	ADIW R28,63
0009bd 966d      	ADIW R28,29
0009be 9508      	RET
                 _sprintf:
0009bf 92ff      	PUSH R15
0009c0 2ef8      	MOV  R15,R24
0009c1 9722      	SBIW R28,2
0009c2 931a      	ST   -Y,R17
0009c3 930a      	ST   -Y,R16
0009c4 01de      	MOVW R26,R28
0009c5 940e 0d0d 	CALL __ADDW2R15
0009c7 018d      	MOVW R16,R26
0009c8 01de      	MOVW R26,R28
0009c9 9616      	ADIW R26,6
0009ca 940e 0d0d 	CALL __ADDW2R15
0009cc 940e 0da4 	CALL __GETW1P
0009ce 83ea      	STD  Y+2,R30
0009cf 83fb      	STD  Y+2+1,R31
0009d0 01de      	MOVW R26,R28
0009d1 9614      	ADIW R26,4
0009d2 940e 0d0d 	CALL __ADDW2R15
0009d4 940e 0da4 	CALL __GETW1P
0009d6 93fa      	ST   -Y,R31
0009d7 93ea      	ST   -Y,R30
0009d8 931a      	ST   -Y,R17
0009d9 930a      	ST   -Y,R16
0009da 01fe      	MOVW R30,R28
0009db 9636      	ADIW R30,6
0009dc 93fa      	ST   -Y,R31
0009dd 93ea      	ST   -Y,R30
0009de e0e0      	LDI  R30,LOW(0)
0009df e0f0      	LDI  R31,HIGH(0)
0009e0 93fa      	ST   -Y,R31
0009e1 93ea      	ST   -Y,R30
0009e2 940e 07ae 	CALL __print_G3
0009e4 81aa      	LDD  R26,Y+2
0009e5 81bb      	LDD  R27,Y+2+1
0009e6 e0e0      	LDI  R30,LOW(0)
0009e7 93ec      	ST   X,R30
0009e8 8119      	LDD  R17,Y+1
0009e9 8108      	LDD  R16,Y+0
0009ea 9624      	ADIW R28,4
0009eb 90ff      	POP  R15
0009ec 9508      	RET
                     .equ __lcd_direction=__lcd_port-1
                     .equ __lcd_pin=__lcd_port-2
                     .equ __lcd_rs=0
                     .equ __lcd_rd=1
                     .equ __lcd_enable=2
                     .equ __lcd_busy_flag=7
                 
                 	.DSEG
                 __base_y_G4:
00029b           	.BYTE 0x4
                 
                 	.CSEG
                 __lcd_delay_G4:
0009ed e0ff          ldi   r31,15
                 __lcd_delay0:
0009ee 95fa          dec   r31
0009ef f7f1          brne  __lcd_delay0
0009f0 9508      	RET
                 __lcd_ready:
0009f1 b3aa          in    r26,__lcd_direction
0009f2 70af          andi  r26,0xf                 ;set as input
0009f3 bbaa          out   __lcd_direction,r26
0009f4 9ad9          sbi   __lcd_port,__lcd_rd     ;RD=1
0009f5 98d8          cbi   __lcd_port,__lcd_rs     ;RS=0
                 __lcd_busy:
0009f6 940e 09ed 	CALL __lcd_delay_G4
0009f8 9ada          sbi   __lcd_port,__lcd_enable ;EN=1
0009f9 940e 09ed 	CALL __lcd_delay_G4
0009fb b3a9          in    r26,__lcd_pin
0009fc 98da          cbi   __lcd_port,__lcd_enable ;EN=0
0009fd 940e 09ed 	CALL __lcd_delay_G4
0009ff 9ada          sbi   __lcd_port,__lcd_enable ;EN=1
000a00 940e 09ed 	CALL __lcd_delay_G4
000a02 98da          cbi   __lcd_port,__lcd_enable ;EN=0
000a03 fda7          sbrc  r26,__lcd_busy_flag
000a04 cff1          rjmp  __lcd_busy
000a05 9508      	RET
                 __lcd_write_nibble_G4:
000a06 7fa0          andi  r26,0xf0
000a07 2bab          or    r26,r27
000a08 bbab          out   __lcd_port,r26          ;write
000a09 9ada          sbi   __lcd_port,__lcd_enable ;EN=1
000a0a 940e 09ed 	CALL __lcd_delay_G4
000a0c 98da          cbi   __lcd_port,__lcd_enable ;EN=0
000a0d 940e 09ed 	CALL __lcd_delay_G4
000a0f 9508      	RET
                 __lcd_write_data:
000a10 98d9          cbi  __lcd_port,__lcd_rd 	  ;RD=0
000a11 b3aa          in    r26,__lcd_direction
000a12 6fa7          ori   r26,0xf0 | (1<<__lcd_rs) | (1<<__lcd_rd) | (1<<__lcd_enable) ;set as output    
000a13 bbaa          out   __lcd_direction,r26
000a14 b3bb          in    r27,__lcd_port
000a15 70bf          andi  r27,0xf
000a16 81a8          ld    r26,y
000a17 940e 0a06 	CALL __lcd_write_nibble_G4
000a19 81a8          ld    r26,y
000a1a 95a2          swap  r26
000a1b 940e 0a06 	CALL __lcd_write_nibble_G4
000a1d 9ad9          sbi   __lcd_port,__lcd_rd     ;RD=1
000a1e 9621      	ADIW R28,1
000a1f 9508      	RET
                 __lcd_read_nibble_G4:
000a20 9ada          sbi   __lcd_port,__lcd_enable ;EN=1
000a21 940e 09ed 	CALL __lcd_delay_G4
000a23 b3e9          in    r30,__lcd_pin           ;read
000a24 98da          cbi   __lcd_port,__lcd_enable ;EN=0
000a25 940e 09ed 	CALL __lcd_delay_G4
000a27 7fe0          andi  r30,0xf0
000a28 9508      	RET
                 _lcd_read_byte0_G4:
000a29 940e 09ed 	CALL __lcd_delay_G4
000a2b 940e 0a20 	CALL __lcd_read_nibble_G4
000a2d 2fae          mov   r26,r30
000a2e 940e 0a20 	CALL __lcd_read_nibble_G4
000a30 98d9          cbi   __lcd_port,__lcd_rd     ;RD=0
000a31 95e2          swap  r30
000a32 2bea          or    r30,r26
000a33 9508      	RET
                 _lcd_gotoxy:
000a34 940e 09f1 	CALL __lcd_ready
000a36 81e8      	LD   R30,Y
000a37 e0f0      	LDI  R31,0
000a38 56e5      	SUBI R30,LOW(-__base_y_G4)
000a39 4ffd      	SBCI R31,HIGH(-__base_y_G4)
000a3a 81e0      	LD   R30,Z
000a3b 81a9      	LDD  R26,Y+1
000a3c 0fea      	ADD  R30,R26
000a3d 93ea      	ST   -Y,R30
000a3e 940e 0a10 	CALL __lcd_write_data
000a40 80b9      	LDD  R11,Y+1
000a41 80a8      	LDD  R10,Y+0
000a42 9622      	ADIW R28,2
000a43 9508      	RET
                 _lcd_clear:
000a44 940e 09f1 	CALL __lcd_ready
000a46 e0e2      	LDI  R30,LOW(2)
000a47 93ea      	ST   -Y,R30
000a48 940e 0a10 	CALL __lcd_write_data
000a4a 940e 09f1 	CALL __lcd_ready
000a4c e0ec      	LDI  R30,LOW(12)
000a4d 93ea      	ST   -Y,R30
000a4e 940e 0a10 	CALL __lcd_write_data
000a50 940e 09f1 	CALL __lcd_ready
000a52 e0e1      	LDI  R30,LOW(1)
000a53 93ea      	ST   -Y,R30
000a54 940e 0a10 	CALL __lcd_write_data
000a56 e0e0      	LDI  R30,LOW(0)
000a57 2eae      	MOV  R10,R30
000a58 2ebe      	MOV  R11,R30
000a59 9508      	RET
                 _lcd_putchar:
000a5a 93ef          push r30
000a5b 93ff          push r31
000a5c 81a8          ld   r26,y
000a5d 9468          set
000a5e 30aa          cpi  r26,10
000a5f f021          breq __lcd_putchar1
000a60 94e8          clt
000a61 94b3      	INC  R11
000a62 14db      	CP   R13,R11
000a63 f438      	BRSH _0x1AB
                 	__lcd_putchar1:
000a64 94a3      	INC  R10
000a65 e0e0      	LDI  R30,LOW(0)
000a66 93ea      	ST   -Y,R30
000a67 92aa      	ST   -Y,R10
000a68 940e 0a34 	CALL _lcd_gotoxy
000a6a f02e      	brts __lcd_putchar0
                 _0x1AB:
000a6b df85          rcall __lcd_ready
000a6c 9ad8          sbi  __lcd_port,__lcd_rs ;RS=1
000a6d 81a8          ld   r26,y
000a6e 93aa          st   -y,r26
000a6f dfa0          rcall __lcd_write_data
                 __lcd_putchar0:
000a70 91ff          pop  r31
000a71 91ef          pop  r30
000a72 9621      	ADIW R28,1
000a73 9508      	RET
                 _lcd_puts:
000a74 931a      	ST   -Y,R17
                 _0x1AC:
000a75 81a9      	LDD  R26,Y+1
000a76 81ba      	LDD  R27,Y+1+1
000a77 91ed      	LD   R30,X+
000a78 83a9      	STD  Y+1,R26
000a79 83ba      	STD  Y+1+1,R27
000a7a 2f1e      	MOV  R17,R30
000a7b 30e0      	CPI  R30,0
000a7c f021      	BREQ _0x1AE
000a7d 931a      	ST   -Y,R17
000a7e 940e 0a5a 	CALL _lcd_putchar
000a80 cff4      	RJMP _0x1AC
                 _0x1AE:
000a81 8118      	LDD  R17,Y+0
000a82 c010      	RJMP _0x1B9
                 _lcd_putsf:
000a83 931a      	ST   -Y,R17
                 _0x1AF:
000a84 81e9      	LDD  R30,Y+1
000a85 81fa      	LDD  R31,Y+1+1
000a86 9631      	ADIW R30,1
000a87 83e9      	STD  Y+1,R30
000a88 83fa      	STD  Y+1+1,R31
000a89 9731      	SBIW R30,1
000a8a 91e4      	LPM  R30,Z
000a8b 2f1e      	MOV  R17,R30
000a8c 30e0      	CPI  R30,0
000a8d f021      	BREQ _0x1B1
000a8e 931a      	ST   -Y,R17
000a8f 940e 0a5a 	CALL _lcd_putchar
000a91 cff2      	RJMP _0x1AF
                 _0x1B1:
000a92 8118      	LDD  R17,Y+0
                 _0x1B9:
000a93 9623      	ADIW R28,3
000a94 9508      	RET
                 __long_delay_G4:
000a95 27aa          clr   r26
000a96 27bb          clr   r27
                 __long_delay0:
000a97 9711          sbiw  r26,1         ;2 cycles
000a98 f7f1          brne  __long_delay0 ;2 cycles
000a99 9508      	RET
                 __lcd_init_write_G4:
000a9a 98d9          cbi  __lcd_port,__lcd_rd 	  ;RD=0
000a9b b3aa          in    r26,__lcd_direction
000a9c 6fa7          ori   r26,0xf7                ;set as output
000a9d bbaa          out   __lcd_direction,r26
000a9e b3bb          in    r27,__lcd_port
000a9f 70bf          andi  r27,0xf
000aa0 81a8          ld    r26,y
000aa1 940e 0a06 	CALL __lcd_write_nibble_G4
000aa3 9ad9          sbi   __lcd_port,__lcd_rd     ;RD=1
000aa4 9621      	ADIW R28,1
000aa5 9508      	RET
                 _lcd_init:
000aa6 98da          cbi   __lcd_port,__lcd_enable ;EN=0
000aa7 98d8          cbi   __lcd_port,__lcd_rs     ;RS=0
000aa8 80d8      	LDD  R13,Y+0
000aa9 81e8      	LD   R30,Y
000aaa 58e0      	SUBI R30,-LOW(128)
000aab 93e0 029d 	__PUTB1MN __base_y_G4,2
000aad 81e8      	LD   R30,Y
000aae 54e0      	SUBI R30,-LOW(192)
000aaf 93e0 029e 	__PUTB1MN __base_y_G4,3
000ab1 940e 0cbe 	CALL SUBOPT_0x3B
000ab3 940e 0cbe 	CALL SUBOPT_0x3B
000ab5 940e 0cbe 	CALL SUBOPT_0x3B
000ab7 940e 0a95 	CALL __long_delay_G4
000ab9 e2e0      	LDI  R30,LOW(32)
000aba 93ea      	ST   -Y,R30
000abb 940e 0a9a 	CALL __lcd_init_write_G4
000abd 940e 0a95 	CALL __long_delay_G4
000abf e2e8      	LDI  R30,LOW(40)
000ac0 940e 0cc4 	CALL SUBOPT_0x3C
000ac2 e0e4      	LDI  R30,LOW(4)
000ac3 940e 0cc4 	CALL SUBOPT_0x3C
000ac5 e8e5      	LDI  R30,LOW(133)
000ac6 940e 0cc4 	CALL SUBOPT_0x3C
000ac8 b3aa          in    r26,__lcd_direction
000ac9 70af          andi  r26,0xf                 ;set as input
000aca bbaa          out   __lcd_direction,r26
000acb 9ad9          sbi   __lcd_port,__lcd_rd     ;RD=1
000acc 940e 0a29 	CALL _lcd_read_byte0_G4
000ace 30e5      	CPI  R30,LOW(0x5)
000acf f011      	BREQ _0x1B2
000ad0 e0e0      	LDI  R30,LOW(0)
000ad1 c009      	RJMP _0x1B8
                 _0x1B2:
000ad2 940e 09f1 	CALL __lcd_ready
000ad4 e0e6      	LDI  R30,LOW(6)
000ad5 93ea      	ST   -Y,R30
000ad6 940e 0a10 	CALL __lcd_write_data
000ad8 940e 0a44 	CALL _lcd_clear
000ada e0e1      	LDI  R30,LOW(1)
                 _0x1B8:
000adb 9621      	ADIW R28,1
000adc 9508      	RET
                 _strlen:
000add 91a9          ld   r26,y+
000ade 91b9          ld   r27,y+
000adf 27ee          clr  r30
000ae0 27ff          clr  r31
                 strlen0:
000ae1 916d          ld   r22,x+
000ae2 2366          tst  r22
000ae3 f011          breq strlen1
000ae4 9631          adiw r30,1
000ae5 cffb          rjmp strlen0
                 strlen1:
000ae6 9508          ret
                 _strlenf:
000ae7 27aa          clr  r26
000ae8 27bb          clr  r27
000ae9 91e9          ld   r30,y+
000aea 91f9          ld   r31,y+
                 strlenf0:
000aeb 9005          lpm  r0,z+
000aec 2000          tst  r0
000aed f011          breq strlenf1
000aee 9611          adiw r26,1
000aef cffb          rjmp strlenf0
                 strlenf1:
000af0 01fd          movw r30,r26
000af1 9508          ret
                 
                 	.DSEG
                 _p_S6A:
00029f           	.BYTE 0x2
                 
                 	.CSEG
                 
                 ;OPTIMIZER ADDED SUBROUTINE, CALLED 4 TIMES, CODE SIZE REDUCTION:3 WORDS
                 SUBOPT_0x0:
000af2 e0a1      	LDI  R26,LOW(1)
000af3 940e 0d19 	CALL __LSLB12
000af5 21e1      	AND  R30,R1
000af6 9508      	RET
                 
                 ;OPTIMIZER ADDED SUBROUTINE, CALLED 5 TIMES, CODE SIZE REDUCTION:13 WORDS
                 SUBOPT_0x1:
000af7 01fe
000af8 5ae5
000af9 4fff
000afa 9001
000afb 81f0
000afc 2de0      	__GETW1SX 91
000afd 9508      	RET
                 
                 ;OPTIMIZER ADDED SUBROUTINE, CALLED 3 TIMES, CODE SIZE REDUCTION:5 WORDS
                 SUBOPT_0x2:
000afe e0e0      	LDI  R30,LOW(0)
000aff 93ea      	ST   -Y,R30
000b00 93ea      	ST   -Y,R30
000b01 940c 0a34 	JMP  _lcd_gotoxy
                 
                 ;OPTIMIZER ADDED SUBROUTINE, CALLED 2 TIMES, CODE SIZE REDUCTION:1 WORDS
                 SUBOPT_0x3:
000b03 0fea      	ADD  R30,R26
000b04 1ffb      	ADC  R31,R27
000b05 93fa      	ST   -Y,R31
000b06 93ea      	ST   -Y,R30
000b07 940c 0a74 	JMP  _lcd_puts
                 
                 ;OPTIMIZER ADDED SUBROUTINE, CALLED 8 TIMES, CODE SIZE REDUCTION:11 WORDS
                 SUBOPT_0x4:
000b09 93fa      	ST   -Y,R31
000b0a 93ea      	ST   -Y,R30
000b0b 940c 0a83 	JMP  _lcd_putsf
                 
                 ;OPTIMIZER ADDED SUBROUTINE, CALLED 2 TIMES, CODE SIZE REDUCTION:6 WORDS
                 SUBOPT_0x5:
000b0d e3e2      	LDI  R30,LOW(50)
000b0e e0f0      	LDI  R31,HIGH(50)
000b0f 93fa      	ST   -Y,R31
000b10 93ea      	ST   -Y,R30
000b11 940e 0cc9 	CALL _delay_ms
000b13 e0e4      	LDI  R30,LOW(4)
000b14 93ea      	ST   -Y,R30
000b15 940e 0169 	CALL _get_key_status
000b17 30e0      	CPI  R30,0
000b18 9508      	RET
                 
                 ;OPTIMIZER ADDED SUBROUTINE, CALLED 7 TIMES, CODE SIZE REDUCTION:9 WORDS
                 SUBOPT_0x6:
000b19 93ea      	ST   -Y,R30
000b1a 940e 0170 	CALL _get_prev_key_status
000b1c 30e0      	CPI  R30,0
000b1d 9508      	RET
                 
                 ;OPTIMIZER ADDED SUBROUTINE, CALLED 5 TIMES, CODE SIZE REDUCTION:5 WORDS
                 SUBOPT_0x7:
000b1e 93ea      	ST   -Y,R30
000b1f 940e 0169 	CALL _get_key_status
000b21 30e0      	CPI  R30,0
000b22 9508      	RET
                 
                 ;OPTIMIZER ADDED SUBROUTINE, CALLED 3 TIMES, CODE SIZE REDUCTION:1 WORDS
                 SUBOPT_0x8:
000b23 dfd3      	RCALL SUBOPT_0x1
000b24 57e7      	SUBI R30,LOW(-_temp)
000b25 4ffd      	SBCI R31,HIGH(-_temp)
000b26 9508      	RET
                 
                 ;OPTIMIZER ADDED SUBROUTINE, CALLED 3 TIMES, CODE SIZE REDUCTION:3 WORDS
                 SUBOPT_0x9:
000b27 91ed      	LD   R30,X+
000b28 91fd      	LD   R31,X+
000b29 9631      	ADIW R30,1
000b2a 93fe      	ST   -X,R31
000b2b 93ee      	ST   -X,R30
000b2c 9508      	RET
                 
                 ;OPTIMIZER ADDED SUBROUTINE, CALLED 5 TIMES, CODE SIZE REDUCTION:9 WORDS
                 SUBOPT_0xA:
000b2d 93ea      	ST   -Y,R30
000b2e e0e0      	LDI  R30,LOW(0)
000b2f 93ea      	ST   -Y,R30
000b30 940c 0a34 	JMP  _lcd_gotoxy
                 
                 ;OPTIMIZER ADDED SUBROUTINE, CALLED 3 TIMES, CODE SIZE REDUCTION:7 WORDS
                 SUBOPT_0xB:
000b32 b3e2      	IN   R30,0x12
000b33 7eed      	ANDI R30,LOW(0xED)
000b34 bbe2      	OUT  0x12,R30
000b35 b3e2      	IN   R30,0x12
000b36 7fe6      	ANDI R30,LOW(0xF6)
000b37 bbe2      	OUT  0x12,R30
000b38 94e8      	CLT
000b39 9508      	RET
                 
                 ;OPTIMIZER ADDED SUBROUTINE, CALLED 5 TIMES, CODE SIZE REDUCTION:5 WORDS
                 SUBOPT_0xC:
000b3a b3e2      	IN   R30,0x12
000b3b 7fe6      	ANDI R30,LOW(0xF6)
000b3c bbe2      	OUT  0x12,R30
000b3d 94e8      	CLT
000b3e 9508      	RET
                 
                 ;OPTIMIZER ADDED SUBROUTINE, CALLED 11 TIMES, CODE SIZE REDUCTION:17 WORDS
                 SUBOPT_0xD:
000b3f e6e0      	LDI  R30,LOW(_buffer)
000b40 e0f2      	LDI  R31,HIGH(_buffer)
000b41 93fa      	ST   -Y,R31
000b42 93ea      	ST   -Y,R30
000b43 9508      	RET
                 
                 ;OPTIMIZER ADDED SUBROUTINE, CALLED 2 TIMES, CODE SIZE REDUCTION:33 WORDS
                 SUBOPT_0xE:
000b44 93fa      	ST   -Y,R31
000b45 93ea      	ST   -Y,R30
000b46 91e0 0281 	LDS  R30,_tinf
000b48 91f0 0282 	LDS  R31,_tinf+1
000b4a 9160 0283 	LDS  R22,_tinf+2
000b4c 9170 0284 	LDS  R23,_tinf+3
000b4e 940e 0db9 	CALL __PUTPARD1
000b50 edef
000b51 e0f0
000b52 e060
000b53 e070      	__GETD1N 0xDF
000b54 940e 0db9 	CALL __PUTPARD1
000b56 91e0 0285 	LDS  R30,_toutf
000b58 91f0 0286 	LDS  R31,_toutf+1
000b5a 9160 0287 	LDS  R22,_toutf+2
000b5c 9170 0288 	LDS  R23,_toutf+3
000b5e 940e 0db9 	CALL __PUTPARD1
000b60 edef
000b61 e0f0
000b62 e060
000b63 e070      	__GETD1N 0xDF
000b64 940e 0db9 	CALL __PUTPARD1
000b66 e180      	LDI  R24,16
000b67 940e 09bf 	CALL _sprintf
000b69 9664      	ADIW R28,20
000b6a 9508      	RET
                 
                 ;OPTIMIZER ADDED SUBROUTINE, CALLED 9 TIMES, CODE SIZE REDUCTION:21 WORDS
                 SUBOPT_0xF:
000b6b 27ff      	CLR  R31
000b6c 2766      	CLR  R22
000b6d 2777      	CLR  R23
000b6e 940e 0db9 	CALL __PUTPARD1
000b70 9508      	RET
                 
                 ;OPTIMIZER ADDED SUBROUTINE, CALLED 3 TIMES, CODE SIZE REDUCTION:1 WORDS
                 SUBOPT_0x10:
000b71 e0e0      	LDI  R30,LOW(0)
000b72 bded      	OUT  0x2D,R30
000b73 bdec      	OUT  0x2C,R30
000b74 9508      	RET
                 
                 ;OPTIMIZER ADDED SUBROUTINE, CALLED 4 TIMES, CODE SIZE REDUCTION:3 WORDS
                 SUBOPT_0x11:
000b75 93fa      	ST   -Y,R31
000b76 93ea      	ST   -Y,R30
000b77 940c 0cc9 	JMP  _delay_ms
                 
                 ;OPTIMIZER ADDED SUBROUTINE, CALLED 2 TIMES, CODE SIZE REDUCTION:10 WORDS
                 SUBOPT_0x12:
000b79 b218      	IN   R1,24
000b7a b3e6      	IN   R30,0x16
000b7b e0a1      	LDI  R26,LOW(1)
000b7c 940e 0d19 	CALL __LSLB12
000b7e 29e1      	OR   R30,R1
000b7f bbe8      	OUT  0x18,R30
000b80 b217      	IN   R1,23
000b81 b3e6      	IN   R30,0x16
000b82 940e 0d19 	CALL __LSLB12
000b84 95e0      	COM  R30
000b85 21e1      	AND  R30,R1
000b86 bbe7      	OUT  0x17,R30
000b87 9508      	RET
                 
                 ;OPTIMIZER ADDED SUBROUTINE, CALLED 2 TIMES, CODE SIZE REDUCTION:3 WORDS
                 SUBOPT_0x13:
000b88 93fa      	ST   -Y,R31
000b89 93ea      	ST   -Y,R30
000b8a 940e 0a74 	CALL _lcd_puts
000b8c eee8      	LDI  R30,LOW(1000)
000b8d e0f3      	LDI  R31,HIGH(1000)
000b8e cfe6      	RJMP SUBOPT_0x11
                 
                 ;OPTIMIZER ADDED SUBROUTINE, CALLED 2 TIMES, CODE SIZE REDUCTION:5 WORDS
                 SUBOPT_0x14:
000b8f 93ea      	ST   -Y,R30
000b90 ece9      	LDI  R30,LOW(201)
000b91 93ea      	ST   -Y,R30
000b92 e7ed      	LDI  R30,LOW(125)
000b93 93ea      	ST   -Y,R30
000b94 e0e0      	LDI  R30,LOW(0)
000b95 93ea      	ST   -Y,R30
000b96 940e 055b 	CALL _therm_init
000b98 30e0      	CPI  R30,0
000b99 9508      	RET
                 
                 ;OPTIMIZER ADDED SUBROUTINE, CALLED 2 TIMES, CODE SIZE REDUCTION:4 WORDS
                 SUBOPT_0x15:
000b9a f820      	BLD  R2,0
000b9b b3e2      	IN   R30,0x12
000b9c 7eed      	ANDI R30,LOW(0xED)
000b9d bbe2      	OUT  0x12,R30
000b9e 9895      	CBI  0x12,5
000b9f 9a92      	SBI  0x12,2
000ba0 b3e5      	IN   R30,0x15
000ba1 73ef      	ANDI R30,LOW(0x3F)
000ba2 bbe5      	OUT  0x15,R30
000ba3 9508      	RET
                 
                 ;OPTIMIZER ADDED SUBROUTINE, CALLED 2 TIMES, CODE SIZE REDUCTION:3 WORDS
                 SUBOPT_0x16:
000ba4 91e0 0285 	LDS  R30,_toutf
000ba6 91f0 0286 	LDS  R31,_toutf+1
000ba8 9160 0287 	LDS  R22,_toutf+2
000baa 9170 0288 	LDS  R23,_toutf+3
000bac 9508      	RET
                 
                 ;OPTIMIZER ADDED SUBROUTINE, CALLED 2 TIMES, CODE SIZE REDUCTION:3 WORDS
                 SUBOPT_0x17:
000bad 91e0 0281 	LDS  R30,_tinf
000baf 91f0 0282 	LDS  R31,_tinf+1
000bb1 9160 0283 	LDS  R22,_tinf+2
000bb3 9170 0284 	LDS  R23,_tinf+3
000bb5 9508      	RET
                 
                 ;OPTIMIZER ADDED SUBROUTINE, CALLED 2 TIMES, CODE SIZE REDUCTION:11 WORDS
                 SUBOPT_0x18:
000bb6 27ff      	CLR  R31
000bb7 2766      	CLR  R22
000bb8 2777      	CLR  R23
000bb9 940e 0e3c 	CALL __CDF1
000bbb 940e 0dc3 	CALL __SWAPD12
000bbd 940e 0e6f 	CALL __SUBF12
000bbf 30e0
000bc0 e0a0
000bc1 07fa
000bc2 e0a0
000bc3 076a
000bc4 e3af
000bc5 077a      	__CPD1N 0x3F000000
000bc6 9508      	RET
                 
                 ;OPTIMIZER ADDED SUBROUTINE, CALLED 2 TIMES, CODE SIZE REDUCTION:2 WORDS
                 SUBOPT_0x19:
000bc7 30e0
000bc8 e0a0
000bc9 07fa
000bca e0a0
000bcb 076a
000bcc ebaf
000bcd 077a      	__CPD1N 0xBF000000
000bce 9508      	RET
                 
                 ;OPTIMIZER ADDED SUBROUTINE, CALLED 3 TIMES, CODE SIZE REDUCTION:1 WORDS
                 SUBOPT_0x1A:
000bcf 2de8      	MOV  R30,R8
000bd0 e0a1      	LDI  R26,LOW(1)
000bd1 940e 0d19 	CALL __LSLB12
000bd3 9508      	RET
                 
                 ;OPTIMIZER ADDED SUBROUTINE, CALLED 3 TIMES, CODE SIZE REDUCTION:1 WORDS
                 SUBOPT_0x1B:
000bd4 940e 04c7 	CALL _therm_low
000bd6 940c 04c1 	JMP  _therm_output_mode
                 
                 ;OPTIMIZER ADDED SUBROUTINE, CALLED 3 TIMES, CODE SIZE REDUCTION:1 WORDS
                 SUBOPT_0x1C:
000bd8 b213      	IN   R1,19
000bd9 2de8      	MOV  R30,R8
000bda cf17      	RJMP SUBOPT_0x0
                 
                 ;OPTIMIZER ADDED SUBROUTINE, CALLED 4 TIMES, CODE SIZE REDUCTION:3 WORDS
                 SUBOPT_0x1D:
000bdb ecec      	LDI  R30,LOW(204)
000bdc 93ea      	ST   -Y,R30
000bdd 940c 0524 	JMP  _therm_write_byte
                 
                 ;OPTIMIZER ADDED SUBROUTINE, CALLED 2 TIMES, CODE SIZE REDUCTION:1 WORDS
                 SUBOPT_0x1E:
000bdf 2fe0      	MOV  R30,R16
000be0 27ff      	CLR  R31
000be1 2766      	CLR  R22
000be2 2777      	CLR  R23
000be3 940e 0e3c 	CALL __CDF1
000be5 9508      	RET
                 
                 ;OPTIMIZER ADDED SUBROUTINE, CALLED 6 TIMES, CODE SIZE REDUCTION:7 WORDS
                 SUBOPT_0x1F:
000be6 85a9
000be7 85ba
000be8 858b
000be9 859c      	__GETD2S 9
000bea 9508      	RET
                 
                 ;OPTIMIZER ADDED SUBROUTINE, CALLED 4 TIMES, CODE SIZE REDUCTION:3 WORDS
                 SUBOPT_0x20:
000beb 87e9
000bec 87fa
000bed 876b
000bee 877c      	__PUTD1S 9
000bef 9508      	RET
                 
                 ;OPTIMIZER ADDED SUBROUTINE, CALLED 3 TIMES, CODE SIZE REDUCTION:1 WORDS
                 SUBOPT_0x21:
000bf0 83ea
000bf1 83fb
000bf2 836c
000bf3 837d      	__PUTD1S 2
000bf4 9508      	RET
                 
                 ;OPTIMIZER ADDED SUBROUTINE, CALLED 2 TIMES, CODE SIZE REDUCTION:1 WORDS
                 SUBOPT_0x22:
000bf5 81ea
000bf6 81fb
000bf7 816c
000bf8 817d      	__GETD1S 2
000bf9 cfec      	RJMP SUBOPT_0x1F
                 
                 ;OPTIMIZER ADDED SUBROUTINE, CALLED 2 TIMES, CODE SIZE REDUCTION:3 WORDS
                 SUBOPT_0x23:
000bfa 81aa
000bfb 81bb
000bfc 818c
000bfd 819d      	__GETD2S 2
000bfe e0e0
000bff e0f0
000c00 e260
000c01 e471      	__GETD1N 0x41200000
000c02 9508      	RET
                 
                 ;OPTIMIZER ADDED SUBROUTINE, CALLED 4 TIMES, CODE SIZE REDUCTION:9 WORDS
                 SUBOPT_0x24:
000c03 81ae      	LDD  R26,Y+6
000c04 81bf      	LDD  R27,Y+6+1
000c05 9611      	ADIW R26,1
000c06 83ae      	STD  Y+6,R26
000c07 83bf      	STD  Y+6+1,R27
000c08 9711      	SBIW R26,1
000c09 9508      	RET
                 
                 ;OPTIMIZER ADDED SUBROUTINE, CALLED 2 TIMES, CODE SIZE REDUCTION:7 WORDS
                 SUBOPT_0x25:
000c0a 940e 0f12 	CALL __DIVF21
000c0c e0a0
000c0d e0b0
000c0e e080
000c0f e39f      	__GETD2N 0x3F000000
000c10 940e 0e76 	CALL __ADDF12
000c12 940e 0db9 	CALL __PUTPARD1
000c14 940c 0d04 	JMP  _floor
                 
                 ;OPTIMIZER ADDED SUBROUTINE, CALLED 2 TIMES, CODE SIZE REDUCTION:1 WORDS
                 SUBOPT_0x26:
000c16 940e 0dc3 	CALL __SWAPD12
000c18 940e 0e6f 	CALL __SUBF12
000c1a cfd0      	RJMP SUBOPT_0x20
                 
                 ;OPTIMIZER ADDED SUBROUTINE, CALLED 6 TIMES, CODE SIZE REDUCTION:17 WORDS
                 SUBOPT_0x27:
000c1b e0e0
000c1c e0f0
000c1d e260
000c1e e471      	__GETD1N 0x41200000
000c1f 940e 0ec4 	CALL __MULF12
000c21 9508      	RET
                 
                 ;OPTIMIZER ADDED SUBROUTINE, CALLED 6 TIMES, CODE SIZE REDUCTION:7 WORDS
                 SUBOPT_0x28:
000c22 83ec
000c23 83fd
000c24 836e
000c25 837f      	__PUTD1S 4
000c26 9508      	RET
                 
                 ;OPTIMIZER ADDED SUBROUTINE, CALLED 4 TIMES, CODE SIZE REDUCTION:9 WORDS
                 SUBOPT_0x29:
000c27 81ac
000c28 81bd
000c29 818e
000c2a 819f      	__GETD2S 4
000c2b cfef      	RJMP SUBOPT_0x27
                 
                 ;OPTIMIZER ADDED SUBROUTINE, CALLED 5 TIMES, CODE SIZE REDUCTION:5 WORDS
                 SUBOPT_0x2A:
000c2c 85ec
000c2d 85fd
000c2e 856e
000c2f 857f      	__GETD1S 12
000c30 9508      	RET
                 
                 ;OPTIMIZER ADDED SUBROUTINE, CALLED 4 TIMES, CODE SIZE REDUCTION:21 WORDS
                 SUBOPT_0x2B:
000c31 81ec
000c32 81fd
000c33 816e
000c34 817f      	__GETD1S 4
000c35 85ac
000c36 85bd
000c37 858e
000c38 859f      	__GETD2S 12
000c39 940e 0f57 	CALL __CMPF12
000c3b 9508      	RET
                 
                 ;OPTIMIZER ADDED SUBROUTINE, CALLED 7 TIMES, CODE SIZE REDUCTION:9 WORDS
                 SUBOPT_0x2C:
000c3c 85ac
000c3d 85bd
000c3e 858e
000c3f 859f      	__GETD2S 12
000c40 9508      	RET
                 
                 ;OPTIMIZER ADDED SUBROUTINE, CALLED 2 TIMES, CODE SIZE REDUCTION:6 WORDS
                 SUBOPT_0x2D:
000c41 e0e0
000c42 e0f0
000c43 e260
000c44 e471      	__GETD1N 0x41200000
000c45 940e 0f12 	CALL __DIVF21
000c47 87ec
000c48 87fd
000c49 876e
000c4a 877f      	__PUTD1S 12
000c4b 5f3f      	SUBI R19,-LOW(1)
000c4c 9508      	RET
                 
                 ;OPTIMIZER ADDED SUBROUTINE, CALLED 8 TIMES, CODE SIZE REDUCTION:11 WORDS
                 SUBOPT_0x2E:
000c4d 87ec
000c4e 87fd
000c4f 876e
000c50 877f      	__PUTD1S 12
000c51 9508      	RET
                 
                 ;OPTIMIZER ADDED SUBROUTINE, CALLED 3 TIMES, CODE SIZE REDUCTION:5 WORDS
                 SUBOPT_0x2F:
000c52 85a8      	LDD  R26,Y+8
000c53 85b9      	LDD  R27,Y+8+1
000c54 9611      	ADIW R26,1
000c55 87a8      	STD  Y+8,R26
000c56 87b9      	STD  Y+8+1,R27
000c57 9711      	SBIW R26,1
000c58 9508      	RET
                 
                 ;OPTIMIZER ADDED SUBROUTINE, CALLED 3 TIMES, CODE SIZE REDUCTION:5 WORDS
                 SUBOPT_0x30:
000c59 85e8      	LDD  R30,Y+8
000c5a 85f9      	LDD  R31,Y+8+1
000c5b 9631      	ADIW R30,1
000c5c 87e8      	STD  Y+8,R30
000c5d 87f9      	STD  Y+8+1,R31
000c5e 9731      	SBIW R30,1
000c5f 9508      	RET
                 
                 ;OPTIMIZER ADDED SUBROUTINE, CALLED 4 TIMES, CODE SIZE REDUCTION:36 WORDS
                 SUBOPT_0x31:
000c60 932a      	ST   -Y,R18
000c61 01fe
000c62 5ae9
000c63 4fff
000c64 9001
000c65 81f0
000c66 2de0      	__GETW1SX 87
000c67 93fa      	ST   -Y,R31
000c68 93ea      	ST   -Y,R30
000c69 01fe      	MOVW R30,R28
000c6a 9673      	ADIW R30,19
000c6b 93fa      	ST   -Y,R31
000c6c 93ea      	ST   -Y,R30
000c6d 940c 063d 	JMP  __put_G3
                 
                 ;OPTIMIZER ADDED SUBROUTINE, CALLED 7 TIMES, CODE SIZE REDUCTION:33 WORDS
                 SUBOPT_0x32:
000c6f 01de      	MOVW R26,R28
000c70 5aa8      	SUBI R26,LOW(-(88))
000c71 4fbf      	SBCI R27,HIGH(-(88))
000c72 91ed      	LD   R30,X+
000c73 91fd      	LD   R31,X+
000c74 9734      	SBIW R30,4
000c75 93fe      	ST   -X,R31
000c76 93ee      	ST   -X,R30
000c77 9508      	RET
                 
                 ;OPTIMIZER ADDED SUBROUTINE, CALLED 4 TIMES, CODE SIZE REDUCTION:36 WORDS
                 SUBOPT_0x33:
000c78 93ea      	ST   -Y,R30
000c79 01fe
000c7a 5ae9
000c7b 4fff
000c7c 9001
000c7d 81f0
000c7e 2de0      	__GETW1SX 87
000c7f 93fa      	ST   -Y,R31
000c80 93ea      	ST   -Y,R30
000c81 01fe      	MOVW R30,R28
000c82 9673      	ADIW R30,19
000c83 93fa      	ST   -Y,R31
000c84 93ea      	ST   -Y,R30
000c85 940c 063d 	JMP  __put_G3
                 
                 ;OPTIMIZER ADDED SUBROUTINE, CALLED 4 TIMES, CODE SIZE REDUCTION:3 WORDS
                 SUBOPT_0x34:
000c87 83ee
000c88 83ff
000c89 8768
000c8a 8779      	__PUTD1S 6
000c8b 9508      	RET
                 
                 ;OPTIMIZER ADDED SUBROUTINE, CALLED 4 TIMES, CODE SIZE REDUCTION:3 WORDS
                 SUBOPT_0x35:
000c8c 81ee
000c8d 81ff
000c8e 8568
000c8f 8579      	__GETD1S 6
000c90 9508      	RET
                 
                 ;OPTIMIZER ADDED SUBROUTINE, CALLED 2 TIMES, CODE SIZE REDUCTION:1 WORDS
                 SUBOPT_0x36:
000c91 85ea      	LDD  R30,Y+10
000c92 85fb      	LDD  R31,Y+10+1
000c93 9631      	ADIW R30,1
000c94 87ea      	STD  Y+10,R30
000c95 87fb      	STD  Y+10+1,R31
000c96 9731      	SBIW R30,1
000c97 9508      	RET
                 
                 ;OPTIMIZER ADDED SUBROUTINE, CALLED 2 TIMES, CODE SIZE REDUCTION:4 WORDS
                 SUBOPT_0x37:
000c98 87ea      	STD  Y+10,R30
000c99 87fb      	STD  Y+10+1,R31
000c9a 93fa      	ST   -Y,R31
000c9b 93ea      	ST   -Y,R30
000c9c 940e 0add 	CALL _strlen
000c9e 2f1e      	MOV  R17,R30
000c9f 9508      	RET
                 
                 ;OPTIMIZER ADDED SUBROUTINE, CALLED 4 TIMES, CODE SIZE REDUCTION:3 WORDS
                 SUBOPT_0x38:
000ca0 9634      	ADIW R30,4
000ca1 01df      	MOVW R26,R30
000ca2 940e 0da4 	CALL __GETW1P
000ca4 9508      	RET
                 
                 ;OPTIMIZER ADDED SUBROUTINE, CALLED 3 TIMES, CODE SIZE REDUCTION:1 WORDS
                 SUBOPT_0x39:
000ca5 81ae
000ca6 81bf
000ca7 8588
000ca8 8599      	__GETD2S 6
000ca9 9508      	RET
                 
                 ;OPTIMIZER ADDED SUBROUTINE, CALLED 2 TIMES, CODE SIZE REDUCTION:14 WORDS
                 SUBOPT_0x3A:
000caa 7f0b      	ANDI R16,LOW(251)
000cab 89eb      	LDD  R30,Y+19
000cac 93ea      	ST   -Y,R30
000cad 01fe
000cae 5ae9
000caf 4fff
000cb0 9001
000cb1 81f0
000cb2 2de0      	__GETW1SX 87
000cb3 93fa      	ST   -Y,R31
000cb4 93ea      	ST   -Y,R30
000cb5 01fe      	MOVW R30,R28
000cb6 5ae9      	SUBI R30,LOW(-(87))
000cb7 4fff      	SBCI R31,HIGH(-(87))
000cb8 93fa      	ST   -Y,R31
000cb9 93ea      	ST   -Y,R30
000cba 940e 063d 	CALL __put_G3
000cbc 3050      	CPI  R21,0
000cbd 9508      	RET
                 
                 ;OPTIMIZER ADDED SUBROUTINE, CALLED 3 TIMES, CODE SIZE REDUCTION:5 WORDS
                 SUBOPT_0x3B:
000cbe 940e 0a95 	CALL __long_delay_G4
000cc0 e3e0      	LDI  R30,LOW(48)
000cc1 93ea      	ST   -Y,R30
000cc2 940c 0a9a 	JMP  __lcd_init_write_G4
                 
                 ;OPTIMIZER ADDED SUBROUTINE, CALLED 3 TIMES, CODE SIZE REDUCTION:3 WORDS
                 SUBOPT_0x3C:
000cc4 93ea      	ST   -Y,R30
000cc5 940e 0a10 	CALL __lcd_write_data
000cc7 940c 0a95 	JMP  __long_delay_G4
                 
                 _delay_ms:
000cc9 91e9      	ld   r30,y+
000cca 91f9      	ld   r31,y+
000ccb 9630      	adiw r30,0
000ccc f039      	breq __delay_ms1
                 __delay_ms0:
000ccd ed80
000cce e097
000ccf 9701
000cd0 f7f1      	__DELAY_USW 0x7D0
000cd1 95a8      	wdr
000cd2 9731      	sbiw r30,1
000cd3 f7c9      	brne __delay_ms0
                 __delay_ms1:
000cd4 9508      	ret
                 
                 __ftrunc:
000cd5 817b      	ldd  r23,y+3
000cd6 816a      	ldd  r22,y+2
000cd7 81f9      	ldd  r31,y+1
000cd8 81e8      	ld   r30,y
000cd9 fb77      	bst  r23,7
000cda 0f77      	lsl  r23
000cdb fd67      	sbrc r22,7
000cdc 6071      	sbr  r23,1
000cdd 2f97      	mov  r25,r23
000cde 579e      	subi r25,0x7e
000cdf f081      	breq __ftrunc0
000ce0 f078      	brcs __ftrunc0
000ce1 3198      	cpi  r25,24
000ce2 f490      	brsh __ftrunc1
000ce3 27aa      	clr  r26
000ce4 27bb      	clr  r27
000ce5 2788      	clr  r24
                 __ftrunc2:
000ce6 9408      	sec
000ce7 9587      	ror  r24
000ce8 95b7      	ror  r27
000ce9 95a7      	ror  r26
000cea 959a      	dec  r25
000ceb f7d1      	brne __ftrunc2
000cec 23ea      	and  r30,r26
000ced 23fb      	and  r31,r27
000cee 2368      	and  r22,r24
000cef c005      	rjmp __ftrunc1
                 __ftrunc0:
000cf0 94e8      	clt
000cf1 2777      	clr  r23
000cf2 27ee      	clr  r30
000cf3 27ff      	clr  r31
000cf4 2766      	clr  r22
                 __ftrunc1:
000cf5 776f      	cbr  r22,0x80
000cf6 9576      	lsr  r23
000cf7 f408      	brcc __ftrunc3
000cf8 6860      	sbr  r22,0x80
                 __ftrunc3:
000cf9 f977      	bld  r23,7
000cfa 91a9      	ld   r26,y+
000cfb 91b9      	ld   r27,y+
000cfc 9189      	ld   r24,y+
000cfd 9199      	ld   r25,y+
000cfe 17ea      	cp   r30,r26
000cff 07fb      	cpc  r31,r27
000d00 0768      	cpc  r22,r24
000d01 0779      	cpc  r23,r25
000d02 fb97      	bst  r25,7
000d03 9508      	ret
                 
                 _floor:
000d04 dfd0      	rcall __ftrunc
000d05 f409      	brne __floor1
                 __floor0:
000d06 9508      	ret
                 __floor1:
000d07 f7f6      	brtc __floor0
000d08 eb9f      	ldi  r25,0xbf
                 
                 __addfc:
000d09 27aa      	clr  r26
000d0a 27bb      	clr  r27
000d0b e880      	ldi  r24,0x80
000d0c c169      	rjmp __addf12
                 
                 __ADDW2R15:
000d0d 2400      	CLR  R0
000d0e 0daf      	ADD  R26,R15
000d0f 1db0      	ADC  R27,R0
000d10 9508      	RET
                 
                 __ANEGD1:
000d11 95f0      	COM  R31
000d12 9560      	COM  R22
000d13 9570      	COM  R23
000d14 95e1      	NEG  R30
000d15 4fff      	SBCI R31,-1
000d16 4f6f      	SBCI R22,-1
000d17 4f7f      	SBCI R23,-1
000d18 9508      	RET
                 
                 __LSLB12:
000d19 23ee      	TST  R30
000d1a 2e0e      	MOV  R0,R30
000d1b 2fea      	MOV  R30,R26
000d1c f019      	BREQ __LSLB12R
                 __LSLB12L:
000d1d 0fee      	LSL  R30
000d1e 940a      	DEC  R0
000d1f f7e9      	BRNE __LSLB12L
                 __LSLB12R:
000d20 9508      	RET
                 
                 __LSLW2:
000d21 0fee      	LSL  R30
000d22 1fff      	ROL  R31
000d23 0fee      	LSL  R30
000d24 1fff      	ROL  R31
000d25 9508      	RET
                 
                 __LSRW4:
000d26 95f6      	LSR  R31
000d27 95e7      	ROR  R30
                 __LSRW3:
000d28 95f6      	LSR  R31
000d29 95e7      	ROR  R30
                 __LSRW2:
000d2a 95f6      	LSR  R31
000d2b 95e7      	ROR  R30
000d2c 95f6      	LSR  R31
000d2d 95e7      	ROR  R30
000d2e 9508      	RET
                 
                 __CBD1:
000d2f 2ffe      	MOV  R31,R30
000d30 0fff      	ADD  R31,R31
000d31 0bff      	SBC  R31,R31
000d32 2f6f      	MOV  R22,R31
000d33 2f7f      	MOV  R23,R31
000d34 9508      	RET
                 
                 __CWD1:
000d35 2f6f      	MOV  R22,R31
000d36 0f66      	ADD  R22,R22
000d37 0b66      	SBC  R22,R22
000d38 2f76      	MOV  R23,R22
000d39 9508      	RET
                 
                 __CBD2:
000d3a 2fba      	MOV  R27,R26
000d3b 0fbb      	ADD  R27,R27
000d3c 0bbb      	SBC  R27,R27
000d3d 2f8b      	MOV  R24,R27
000d3e 2f9b      	MOV  R25,R27
000d3f 9508      	RET
                 
                 __LNEGB1:
000d40 23ee      	TST  R30
000d41 e0e1      	LDI  R30,1
000d42 f009      	BREQ __LNEGB1F
000d43 27ee      	CLR  R30
                 __LNEGB1F:
000d44 9508      	RET
                 
                 __MULW12U:
000d45 9ffa      	MUL  R31,R26
000d46 2df0      	MOV  R31,R0
000d47 9feb      	MUL  R30,R27
000d48 0df0      	ADD  R31,R0
000d49 9fea      	MUL  R30,R26
000d4a 2de0      	MOV  R30,R0
000d4b 0df1      	ADD  R31,R1
000d4c 9508      	RET
                 
                 __DIVB21U:
000d4d 2400      	CLR  R0
000d4e e098      	LDI  R25,8
                 __DIVB21U1:
000d4f 0faa      	LSL  R26
000d50 1c00      	ROL  R0
000d51 1a0e      	SUB  R0,R30
000d52 f410      	BRCC __DIVB21U2
000d53 0e0e      	ADD  R0,R30
000d54 c001      	RJMP __DIVB21U3
                 __DIVB21U2:
000d55 60a1      	SBR  R26,1
                 __DIVB21U3:
000d56 959a      	DEC  R25
000d57 f7b9      	BRNE __DIVB21U1
000d58 2fea      	MOV  R30,R26
000d59 2da0      	MOV  R26,R0
000d5a 9508      	RET
                 
                 __DIVB21:
000d5b d03c      	RCALL __CHKSIGNB
000d5c dff0      	RCALL __DIVB21U
000d5d f40e      	BRTC __DIVB211
000d5e 95e1      	NEG  R30
                 __DIVB211:
000d5f 9508      	RET
                 
                 __DIVD21U:
000d60 933f      	PUSH R19
000d61 934f      	PUSH R20
000d62 935f      	PUSH R21
000d63 2400      	CLR  R0
000d64 2411      	CLR  R1
000d65 2744      	CLR  R20
000d66 2755      	CLR  R21
000d67 e230      	LDI  R19,32
                 __DIVD21U1:
000d68 0faa      	LSL  R26
000d69 1fbb      	ROL  R27
000d6a 1f88      	ROL  R24
000d6b 1f99      	ROL  R25
000d6c 1c00      	ROL  R0
000d6d 1c11      	ROL  R1
000d6e 1f44      	ROL  R20
000d6f 1f55      	ROL  R21
000d70 1a0e      	SUB  R0,R30
000d71 0a1f      	SBC  R1,R31
000d72 0b46      	SBC  R20,R22
000d73 0b57      	SBC  R21,R23
000d74 f428      	BRCC __DIVD21U2
000d75 0e0e      	ADD  R0,R30
000d76 1e1f      	ADC  R1,R31
000d77 1f46      	ADC  R20,R22
000d78 1f57      	ADC  R21,R23
000d79 c001      	RJMP __DIVD21U3
                 __DIVD21U2:
000d7a 60a1      	SBR  R26,1
                 __DIVD21U3:
000d7b 953a      	DEC  R19
000d7c f759      	BRNE __DIVD21U1
000d7d 01fd      	MOVW R30,R26
000d7e 01bc      	MOVW R22,R24
000d7f 01d0      	MOVW R26,R0
000d80 01ca      	MOVW R24,R20
000d81 915f      	POP  R21
000d82 914f      	POP  R20
000d83 913f      	POP  R19
000d84 9508      	RET
                 
                 __MODB21:
000d85 94e8      	CLT
000d86 ffa7      	SBRS R26,7
000d87 c002      	RJMP __MODB211
000d88 95a1      	NEG  R26
000d89 9468      	SET
                 __MODB211:
000d8a fde7      	SBRC R30,7
000d8b 95e1      	NEG  R30
000d8c dfc0      	RCALL __DIVB21U
000d8d 2fea      	MOV  R30,R26
000d8e f40e      	BRTC __MODB212
000d8f 95e1      	NEG  R30
                 __MODB212:
000d90 9508      	RET
                 
                 __MODB21U:
000d91 dfbb      	RCALL __DIVB21U
000d92 2fea      	MOV  R30,R26
000d93 9508      	RET
                 
                 __MODD21U:
000d94 dfcb      	RCALL __DIVD21U
000d95 01fd      	MOVW R30,R26
000d96 01bc      	MOVW R22,R24
000d97 9508      	RET
                 
                 __CHKSIGNB:
000d98 94e8      	CLT
000d99 ffe7      	SBRS R30,7
000d9a c002      	RJMP __CHKSB1
000d9b 95e1      	NEG  R30
000d9c 9468      	SET
                 __CHKSB1:
000d9d ffa7      	SBRS R26,7
000d9e c004      	RJMP __CHKSB2
000d9f 95a1      	NEG  R26
000da0 f800      	BLD  R0,0
000da1 9403      	INC  R0
000da2 fa00      	BST  R0,0
                 __CHKSB2:
000da3 9508      	RET
                 
                 __GETW1P:
000da4 91ed      	LD   R30,X+
000da5 91fc      	LD   R31,X
000da6 9711      	SBIW R26,1
000da7 9508      	RET
                 
                 __GETD1P:
000da8 91ed      	LD   R30,X+
000da9 91fd      	LD   R31,X+
000daa 916d      	LD   R22,X+
000dab 917c      	LD   R23,X
000dac 9713      	SBIW R26,3
000dad 9508      	RET
                 
                 __PUTDP1:
000dae 93ed      	ST   X+,R30
000daf 93fd      	ST   X+,R31
000db0 936d      	ST   X+,R22
000db1 937c      	ST   X,R23
000db2 9508      	RET
                 
                 __GETD1PF:
000db3 9005      	LPM  R0,Z+
000db4 9015      	LPM  R1,Z+
000db5 9165      	LPM  R22,Z+
000db6 9174      	LPM  R23,Z
000db7 01f0      	MOVW R30,R0
000db8 9508      	RET
                 
                 __PUTPARD1:
000db9 937a      	ST   -Y,R23
000dba 936a      	ST   -Y,R22
000dbb 93fa      	ST   -Y,R31
000dbc 93ea      	ST   -Y,R30
000dbd 9508      	RET
                 
                 __CDF2U:
000dbe 9468      	SET
000dbf c001      	RJMP __CDF2U0
                 __CDF2:
000dc0 94e8      	CLT
                 __CDF2U0:
000dc1 d001      	RCALL __SWAPD12
000dc2 d07a      	RCALL __CDF1U0
                 
                 __SWAPD12:
000dc3 2e18      	MOV  R1,R24
000dc4 2f86      	MOV  R24,R22
000dc5 2d61      	MOV  R22,R1
000dc6 2e19      	MOV  R1,R25
000dc7 2f97      	MOV  R25,R23
000dc8 2d71      	MOV  R23,R1
                 
                 __SWAPW12:
000dc9 2e1b      	MOV  R1,R27
000dca 2fbf      	MOV  R27,R31
000dcb 2df1      	MOV  R31,R1
                 
                 __SWAPB12:
000dcc 2e1a      	MOV  R1,R26
000dcd 2fae      	MOV  R26,R30
000dce 2de1      	MOV  R30,R1
000dcf 9508      	RET
                 
                 __ANEGF1:
000dd0 9730      	SBIW R30,0
000dd1 4060      	SBCI R22,0
000dd2 4070      	SBCI R23,0
000dd3 f009      	BREQ __ANEGF10
000dd4 5870      	SUBI R23,0x80
                 __ANEGF10:
000dd5 9508      	RET
                 
                 __ROUND_REPACK:
000dd6 2355      	TST  R21
000dd7 f442      	BRPL __REPACK
000dd8 3850      	CPI  R21,0x80
000dd9 f411      	BRNE __ROUND_REPACK0
000dda ffe0      	SBRS R30,0
000ddb c004      	RJMP __REPACK
                 __ROUND_REPACK0:
000ddc 9631      	ADIW R30,1
000ddd 1f69      	ADC  R22,R25
000dde 1f79      	ADC  R23,R25
000ddf f06b      	BRVS __REPACK1
                 
                 __REPACK:
000de0 e850      	LDI  R21,0x80
000de1 2757      	EOR  R21,R23
000de2 f411      	BRNE __REPACK0
000de3 935f      	PUSH R21
000de4 c0cd      	RJMP __ZERORES
                 __REPACK0:
000de5 3f5f      	CPI  R21,0xFF
000de6 f031      	BREQ __REPACK1
000de7 0f66      	LSL  R22
000de8 0c00      	LSL  R0
000de9 9557      	ROR  R21
000dea 9567      	ROR  R22
000deb 2f75      	MOV  R23,R21
000dec 9508      	RET
                 __REPACK1:
000ded 935f      	PUSH R21
000dee 2000      	TST  R0
000def f00a      	BRMI __REPACK2
000df0 c0cd      	RJMP __MAXRES
                 __REPACK2:
000df1 c0c6      	RJMP __MINRES
                 
                 __UNPACK:
000df2 e850      	LDI  R21,0x80
000df3 2e19      	MOV  R1,R25
000df4 2215      	AND  R1,R21
000df5 0f88      	LSL  R24
000df6 1f99      	ROL  R25
000df7 2795      	EOR  R25,R21
000df8 0f55      	LSL  R21
000df9 9587      	ROR  R24
                 
                 __UNPACK1:
000dfa e850      	LDI  R21,0x80
000dfb 2e07      	MOV  R0,R23
000dfc 2205      	AND  R0,R21
000dfd 0f66      	LSL  R22
000dfe 1f77      	ROL  R23
000dff 2775      	EOR  R23,R21
000e00 0f55      	LSL  R21
000e01 9567      	ROR  R22
000e02 9508      	RET
                 
                 __CFD1U:
000e03 9468      	SET
000e04 c001      	RJMP __CFD1U0
                 __CFD1:
000e05 94e8      	CLT
                 __CFD1U0:
000e06 935f      	PUSH R21
000e07 dff2      	RCALL __UNPACK1
000e08 3870      	CPI  R23,0x80
000e09 f018      	BRLO __CFD10
000e0a 3f7f      	CPI  R23,0xFF
000e0b f408      	BRCC __CFD10
000e0c c0a5      	RJMP __ZERORES
                 __CFD10:
000e0d e156      	LDI  R21,22
000e0e 1b57      	SUB  R21,R23
000e0f f4aa      	BRPL __CFD11
000e10 9551      	NEG  R21
000e11 3058      	CPI  R21,8
000e12 f40e      	BRTC __CFD19
000e13 3059      	CPI  R21,9
                 __CFD19:
000e14 f030      	BRLO __CFD17
000e15 efef      	SER  R30
000e16 efff      	SER  R31
000e17 ef6f      	SER  R22
000e18 e77f      	LDI  R23,0x7F
000e19 f977      	BLD  R23,7
000e1a c01a      	RJMP __CFD15
                 __CFD17:
000e1b 2777      	CLR  R23
000e1c 2355      	TST  R21
000e1d f0b9      	BREQ __CFD15
                 __CFD18:
000e1e 0fee      	LSL  R30
000e1f 1fff      	ROL  R31
000e20 1f66      	ROL  R22
000e21 1f77      	ROL  R23
000e22 955a      	DEC  R21
000e23 f7d1      	BRNE __CFD18
000e24 c010      	RJMP __CFD15
                 __CFD11:
000e25 2777      	CLR  R23
                 __CFD12:
000e26 3058      	CPI  R21,8
000e27 f028      	BRLO __CFD13
000e28 2fef      	MOV  R30,R31
000e29 2ff6      	MOV  R31,R22
000e2a 2f67      	MOV  R22,R23
000e2b 5058      	SUBI R21,8
000e2c cff9      	RJMP __CFD12
                 __CFD13:
000e2d 2355      	TST  R21
000e2e f031      	BREQ __CFD15
                 __CFD14:
000e2f 9576      	LSR  R23
000e30 9567      	ROR  R22
000e31 95f7      	ROR  R31
000e32 95e7      	ROR  R30
000e33 955a      	DEC  R21
000e34 f7d1      	BRNE __CFD14
                 __CFD15:
000e35 2000      	TST  R0
000e36 f40a      	BRPL __CFD16
000e37 ded9      	RCALL __ANEGD1
                 __CFD16:
000e38 915f      	POP  R21
000e39 9508      	RET
                 
                 __CDF1U:
000e3a 9468      	SET
000e3b c001      	RJMP __CDF1U0
                 __CDF1:
000e3c 94e8      	CLT
                 __CDF1U0:
000e3d 9730      	SBIW R30,0
000e3e 4060      	SBCI R22,0
000e3f 4070      	SBCI R23,0
000e40 f0b1      	BREQ __CDF10
000e41 2400      	CLR  R0
000e42 f026      	BRTS __CDF11
000e43 2377      	TST  R23
000e44 f412      	BRPL __CDF11
000e45 9400      	COM  R0
000e46 deca      	RCALL __ANEGD1
                 __CDF11:
000e47 2e17      	MOV  R1,R23
000e48 e17e      	LDI  R23,30
000e49 2011      	TST  R1
                 __CDF12:
000e4a f032      	BRMI __CDF13
000e4b 957a      	DEC  R23
000e4c 0fee      	LSL  R30
000e4d 1fff      	ROL  R31
000e4e 1f66      	ROL  R22
000e4f 1c11      	ROL  R1
000e50 cff9      	RJMP __CDF12
                 __CDF13:
000e51 2fef      	MOV  R30,R31
000e52 2ff6      	MOV  R31,R22
000e53 2d61      	MOV  R22,R1
000e54 935f      	PUSH R21
000e55 df8a      	RCALL __REPACK
000e56 915f      	POP  R21
                 __CDF10:
000e57 9508      	RET
                 
                 __SWAPACC:
000e58 934f      	PUSH R20
000e59 01af      	MOVW R20,R30
000e5a 01fd      	MOVW R30,R26
000e5b 01da      	MOVW R26,R20
000e5c 01ab      	MOVW R20,R22
000e5d 01bc      	MOVW R22,R24
000e5e 01ca      	MOVW R24,R20
000e5f 2d40      	MOV  R20,R0
000e60 2c01      	MOV  R0,R1
000e61 2e14      	MOV  R1,R20
000e62 914f      	POP  R20
000e63 9508      	RET
                 
                 __UADD12:
000e64 0fea      	ADD  R30,R26
000e65 1ffb      	ADC  R31,R27
000e66 1f68      	ADC  R22,R24
000e67 9508      	RET
                 
                 __NEGMAN1:
000e68 95e0      	COM  R30
000e69 95f0      	COM  R31
000e6a 9560      	COM  R22
000e6b 5fef      	SUBI R30,-1
000e6c 4fff      	SBCI R31,-1
000e6d 4f6f      	SBCI R22,-1
000e6e 9508      	RET
                 
                 __SUBF12:
000e6f 935f      	PUSH R21
000e70 df81      	RCALL __UNPACK
000e71 3890      	CPI  R25,0x80
000e72 f171      	BREQ __ADDF129
000e73 e850      	LDI  R21,0x80
000e74 2615      	EOR  R1,R21
                 
000e75 c004      	RJMP __ADDF120
                 
                 __ADDF12:
000e76 935f      	PUSH R21
000e77 df7a      	RCALL __UNPACK
000e78 3890      	CPI  R25,0x80
000e79 f139      	BREQ __ADDF129
                 
                 __ADDF120:
000e7a 3870      	CPI  R23,0x80
000e7b f121      	BREQ __ADDF128
                 __ADDF121:
000e7c 2f57      	MOV  R21,R23
000e7d 1b59      	SUB  R21,R25
000e7e f113      	BRVS __ADDF129
000e7f f412      	BRPL __ADDF122
000e80 dfd7      	RCALL __SWAPACC
000e81 cffa      	RJMP __ADDF121
                 __ADDF122:
000e82 3158      	CPI  R21,24
000e83 f018      	BRLO __ADDF123
000e84 27aa      	CLR  R26
000e85 27bb      	CLR  R27
000e86 2788      	CLR  R24
                 __ADDF123:
000e87 3058      	CPI  R21,8
000e88 f028      	BRLO __ADDF124
000e89 2fab      	MOV  R26,R27
000e8a 2fb8      	MOV  R27,R24
000e8b 2788      	CLR  R24
000e8c 5058      	SUBI R21,8
000e8d cff9      	RJMP __ADDF123
                 __ADDF124:
000e8e 2355      	TST  R21
000e8f f029      	BREQ __ADDF126
                 __ADDF125:
000e90 9586      	LSR  R24
000e91 95b7      	ROR  R27
000e92 95a7      	ROR  R26
000e93 955a      	DEC  R21
000e94 f7d9      	BRNE __ADDF125
                 __ADDF126:
000e95 2d50      	MOV  R21,R0
000e96 2551      	EOR  R21,R1
000e97 f062      	BRMI __ADDF127
000e98 dfcb      	RCALL __UADD12
000e99 f438      	BRCC __ADDF129
000e9a 9567      	ROR  R22
000e9b 95f7      	ROR  R31
000e9c 95e7      	ROR  R30
000e9d 9573      	INC  R23
000e9e f413      	BRVC __ADDF129
000e9f c01e      	RJMP __MAXRES
                 __ADDF128:
000ea0 dfb7      	RCALL __SWAPACC
                 __ADDF129:
000ea1 df3e      	RCALL __REPACK
000ea2 915f      	POP  R21
000ea3 9508      	RET
                 __ADDF127:
000ea4 1bea      	SUB  R30,R26
000ea5 0bfb      	SBC  R31,R27
000ea6 0b68      	SBC  R22,R24
000ea7 f051      	BREQ __ZERORES
000ea8 f410      	BRCC __ADDF1210
000ea9 9400      	COM  R0
000eaa dfbd      	RCALL __NEGMAN1
                 __ADDF1210:
000eab 2366      	TST  R22
000eac f3a2      	BRMI __ADDF129
000ead 0fee      	LSL  R30
000eae 1fff      	ROL  R31
000eaf 1f66      	ROL  R22
000eb0 957a      	DEC  R23
000eb1 f7cb      	BRVC __ADDF1210
                 
                 __ZERORES:
000eb2 27ee      	CLR  R30
000eb3 27ff      	CLR  R31
000eb4 2766      	CLR  R22
000eb5 2777      	CLR  R23
000eb6 915f      	POP  R21
000eb7 9508      	RET
                 
                 __MINRES:
000eb8 efef      	SER  R30
000eb9 efff      	SER  R31
000eba e76f      	LDI  R22,0x7F
000ebb ef7f      	SER  R23
000ebc 915f      	POP  R21
000ebd 9508      	RET
                 
                 __MAXRES:
000ebe efef      	SER  R30
000ebf efff      	SER  R31
000ec0 e76f      	LDI  R22,0x7F
000ec1 e77f      	LDI  R23,0x7F
000ec2 915f      	POP  R21
000ec3 9508      	RET
                 
                 __MULF12:
000ec4 935f      	PUSH R21
000ec5 df2c      	RCALL __UNPACK
000ec6 3870      	CPI  R23,0x80
000ec7 f351      	BREQ __ZERORES
000ec8 3890      	CPI  R25,0x80
000ec9 f341      	BREQ __ZERORES
000eca 2401      	EOR  R0,R1
000ecb 9408      	SEC
000ecc 1f79      	ADC  R23,R25
000ecd f423      	BRVC __MULF124
000ece f31c      	BRLT __ZERORES
                 __MULF125:
000ecf 2000      	TST  R0
000ed0 f33a      	BRMI __MINRES
000ed1 cfec      	RJMP __MAXRES
                 __MULF124:
000ed2 920f      	PUSH R0
000ed3 931f      	PUSH R17
000ed4 932f      	PUSH R18
000ed5 933f      	PUSH R19
000ed6 934f      	PUSH R20
000ed7 2711      	CLR  R17
000ed8 2722      	CLR  R18
000ed9 2799      	CLR  R25
000eda 9f68      	MUL  R22,R24
000edb 01a0      	MOVW R20,R0
000edc 9f8f      	MUL  R24,R31
000edd 2d30      	MOV  R19,R0
000ede 0d41      	ADD  R20,R1
000edf 1f59      	ADC  R21,R25
000ee0 9f6b      	MUL  R22,R27
000ee1 0d30      	ADD  R19,R0
000ee2 1d41      	ADC  R20,R1
000ee3 1f59      	ADC  R21,R25
000ee4 9f8e      	MUL  R24,R30
000ee5 d027      	RCALL __MULF126
000ee6 9fbf      	MUL  R27,R31
000ee7 d025      	RCALL __MULF126
000ee8 9f6a      	MUL  R22,R26
000ee9 d023      	RCALL __MULF126
000eea 9fbe      	MUL  R27,R30
000eeb d01d      	RCALL __MULF127
000eec 9faf      	MUL  R26,R31
000eed d01b      	RCALL __MULF127
000eee 9fae      	MUL  R26,R30
000eef 0d11      	ADD  R17,R1
000ef0 1f29      	ADC  R18,R25
000ef1 1f39      	ADC  R19,R25
000ef2 1f49      	ADC  R20,R25
000ef3 1f59      	ADC  R21,R25
000ef4 2fe3      	MOV  R30,R19
000ef5 2ff4      	MOV  R31,R20
000ef6 2f65      	MOV  R22,R21
000ef7 2f52      	MOV  R21,R18
000ef8 914f      	POP  R20
000ef9 913f      	POP  R19
000efa 912f      	POP  R18
000efb 911f      	POP  R17
000efc 900f      	POP  R0
000efd 2366      	TST  R22
000efe f02a      	BRMI __MULF122
000eff 0f55      	LSL  R21
000f00 1fee      	ROL  R30
000f01 1fff      	ROL  R31
000f02 1f66      	ROL  R22
000f03 c002      	RJMP __MULF123
                 __MULF122:
000f04 9573      	INC  R23
000f05 f24b      	BRVS __MULF125
                 __MULF123:
000f06 decf      	RCALL __ROUND_REPACK
000f07 915f      	POP  R21
000f08 9508      	RET
                 
                 __MULF127:
000f09 0d10      	ADD  R17,R0
000f0a 1d21      	ADC  R18,R1
000f0b 1f39      	ADC  R19,R25
000f0c c002      	RJMP __MULF128
                 __MULF126:
000f0d 0d20      	ADD  R18,R0
000f0e 1d31      	ADC  R19,R1
                 __MULF128:
000f0f 1f49      	ADC  R20,R25
000f10 1f59      	ADC  R21,R25
000f11 9508      	RET
                 
                 __DIVF21:
000f12 935f      	PUSH R21
000f13 dede      	RCALL __UNPACK
000f14 3870      	CPI  R23,0x80
000f15 f421      	BRNE __DIVF210
000f16 2011      	TST  R1
                 __DIVF211:
000f17 f40a      	BRPL __DIVF219
000f18 cf9f      	RJMP __MINRES
                 __DIVF219:
000f19 cfa4      	RJMP __MAXRES
                 __DIVF210:
000f1a 3890      	CPI  R25,0x80
000f1b f409      	BRNE __DIVF218
                 __DIVF217:
000f1c cf95      	RJMP __ZERORES
                 __DIVF218:
000f1d 2401      	EOR  R0,R1
000f1e 9408      	SEC
000f1f 0b97      	SBC  R25,R23
000f20 f41b      	BRVC __DIVF216
000f21 f3d4      	BRLT __DIVF217
000f22 2000      	TST  R0
000f23 cff3      	RJMP __DIVF211
                 __DIVF216:
000f24 2f79      	MOV  R23,R25
000f25 931f      	PUSH R17
000f26 932f      	PUSH R18
000f27 933f      	PUSH R19
000f28 934f      	PUSH R20
000f29 2411      	CLR  R1
000f2a 2711      	CLR  R17
000f2b 2722      	CLR  R18
000f2c 2733      	CLR  R19
000f2d 2744      	CLR  R20
000f2e 2755      	CLR  R21
000f2f e290      	LDI  R25,32
                 __DIVF212:
000f30 17ae      	CP   R26,R30
000f31 07bf      	CPC  R27,R31
000f32 0786      	CPC  R24,R22
000f33 0741      	CPC  R20,R17
000f34 f030      	BRLO __DIVF213
000f35 1bae      	SUB  R26,R30
000f36 0bbf      	SBC  R27,R31
000f37 0b86      	SBC  R24,R22
000f38 0b41      	SBC  R20,R17
000f39 9408      	SEC
000f3a c001      	RJMP __DIVF214
                 __DIVF213:
000f3b 9488      	CLC
                 __DIVF214:
000f3c 1f55      	ROL  R21
000f3d 1f22      	ROL  R18
000f3e 1f33      	ROL  R19
000f3f 1c11      	ROL  R1
000f40 1faa      	ROL  R26
000f41 1fbb      	ROL  R27
000f42 1f88      	ROL  R24
000f43 1f44      	ROL  R20
000f44 959a      	DEC  R25
000f45 f751      	BRNE __DIVF212
000f46 01f9      	MOVW R30,R18
000f47 2d61      	MOV  R22,R1
000f48 914f      	POP  R20
000f49 913f      	POP  R19
000f4a 912f      	POP  R18
000f4b 911f      	POP  R17
000f4c 2366      	TST  R22
000f4d f032      	BRMI __DIVF215
000f4e 0f55      	LSL  R21
000f4f 1fee      	ROL  R30
000f50 1fff      	ROL  R31
000f51 1f66      	ROL  R22
000f52 957a      	DEC  R23
000f53 f243      	BRVS __DIVF217
                 __DIVF215:
000f54 de81      	RCALL __ROUND_REPACK
000f55 915f      	POP  R21
000f56 9508      	RET
                 
                 __CMPF12:
000f57 2399      	TST  R25
000f58 f09a      	BRMI __CMPF120
000f59 2377      	TST  R23
000f5a f042      	BRMI __CMPF121
000f5b 1797      	CP   R25,R23
000f5c f048      	BRLO __CMPF122
000f5d f429      	BRNE __CMPF121
000f5e 17ae      	CP   R26,R30
000f5f 07bf      	CPC  R27,R31
000f60 0786      	CPC  R24,R22
000f61 f020      	BRLO __CMPF122
000f62 f031      	BREQ __CMPF123
                 __CMPF121:
000f63 9498      	CLZ
000f64 9488      	CLC
000f65 9508      	RET
                 __CMPF122:
000f66 9498      	CLZ
000f67 9408      	SEC
000f68 9508      	RET
                 __CMPF123:
000f69 9418      	SEZ
000f6a 9488      	CLC
000f6b 9508      	RET
                 __CMPF120:
000f6c 2377      	TST  R23
000f6d f7c2      	BRPL __CMPF122
000f6e 1797      	CP   R25,R23
000f6f f398      	BRLO __CMPF121
000f70 f7a9      	BRNE __CMPF122
000f71 17ea      	CP   R30,R26
000f72 07fb      	CPC  R31,R27
000f73 0768      	CPC  R22,R24
000f74 f388      	BRLO __CMPF122
000f75 f399      	BREQ __CMPF123
000f76 cfec      	RJMP __CMPF121
                 
                 __CPD10:
000f77 9730      	SBIW R30,0
000f78 4060      	SBCI R22,0
000f79 4070      	SBCI R23,0
000f7a 9508      	RET
                 
                 __CPD20:
000f7b 9710      	SBIW R26,0
000f7c 4080      	SBCI R24,0
000f7d 4090      	SBCI R25,0
000f7e 9508      	RET
                 
                 __SAVELOCR6:
000f7f 935a      	ST   -Y,R21
                 __SAVELOCR5:
000f80 934a      	ST   -Y,R20
                 __SAVELOCR4:
000f81 933a      	ST   -Y,R19
                 __SAVELOCR3:
000f82 932a      	ST   -Y,R18
                 __SAVELOCR2:
000f83 931a      	ST   -Y,R17
000f84 930a      	ST   -Y,R16
000f85 9508      	RET
                 
                 __LOADLOCR6:
000f86 815d      	LDD  R21,Y+5
                 __LOADLOCR5:
000f87 814c      	LDD  R20,Y+4
                 __LOADLOCR4:
000f88 813b      	LDD  R19,Y+3
                 __LOADLOCR3:
000f89 812a      	LDD  R18,Y+2
                 __LOADLOCR2:
000f8a 8119      	LDD  R17,Y+1
000f8b 8108      	LD   R16,Y
000f8c 9508      	RET
                 
                 __INITLOCB:
                 __INITLOCW:
000f8d 0fac      	ADD R26,R28
000f8e 1fbd      	ADC R27,R29
                 __INITLOC0:
000f8f 9005      	LPM  R0,Z+
000f90 920d      	ST   X+,R0
000f91 958a      	DEC  R24
000f92 f7e1      	BRNE __INITLOC0
000f93 9508      	RET
                 
                 ;END OF CODE MARKER
                 __END_OF_CODE:


RESOURCE USE INFORMATION
------------------------

Notice:
The register and instruction counts are symbol table hit counts,
and hence implicitly used resources are not counted, eg, the
'lpm' instruction without operands implicitly uses r0 and z,
none of which are counted.

x,y,z are separate entities in the symbol table and are
counted separately from r26..r31 here.

.dseg memory usage only counts static data declared with .byte

ATmega32 register use summary:
r0 :  77 r1 :  51 r2 :  23 r3 :   0 r4 :   3 r5 :   5 r6 :  10 r7 :  10 
r8 :   6 r9 :   3 r10:   4 r11:   4 r12:   0 r13:   2 r14:   0 r15:   6 
r16:  79 r17: 114 r18:  56 r19:  44 r20:  56 r21:  96 r22: 117 r23: 104 
r24:  88 r25:  66 r26: 207 r27:  95 r28:  67 r29:   2 r30: 809 r31: 224 
x  :  44 y  : 409 z  :  39 
Registers used: 32 out of 35 (91.4%)

ATmega32 instruction use summary:
adc   :  26 add   :  23 adiw  :  54 and   :  12 andi  :  26 asr   :   0 
bclr  :   0 bld   :  15 brbc  :   0 brbs  :   0 brcc  :   7 brcs  :   1 
break :   0 breq  :  78 brge  :   2 brhc  :   0 brhs  :   0 brid  :   0 
brie  :   0 brlo  :  33 brlt  :   4 brmi  :   9 brne  :  78 brpl  :   7 
brsh  :  22 brtc  :   4 brts  :   2 brvc  :   4 brvs  :   4 bset  :   0 
bst   :   3 call  : 407 cbi   :  19 cbr   :   1 clc   :   3 clh   :   0 
cli   :   1 cln   :   0 clr   :  75 cls   :   0 clt   :  13 clv   :   0 
clz   :   2 com   :  11 cp    :  36 cpc   :  21 cpi   : 108 cpse  :   0 
dec   :  20 eor   :  11 fmul  :   0 fmuls :   0 fmulsu:   0 icall :   0 
ijmp  :   0 in    :  42 inc   :   7 jmp   :  39 ld    :  73 ldd   : 149 
ldi   : 357 lds   :  53 lpm   :  16 lsl   :  19 lsr   :  13 mov   : 125 
movw  :  62 mul   :  16 muls  :   0 mulsu :   0 neg   :   9 nop   :   0 
or    :   8 ori   :  23 out   :  60 pop   :  26 push  :  26 rcall :  33 
ret   : 132 reti  :   1 rjmp  : 196 rol   :  35 ror   :  21 sbc   :  12 
sbci  :  32 sbi   :  17 sbic  :   4 sbis  :   4 sbiw  :  36 sbr   :   4 
sbrc  :  10 sbrs  :  27 sec   :   5 seh   :   0 sei   :   1 sen   :   0 
ser   :   8 ses   :   0 set   :  13 sev   :   0 sez   :   1 sleep :   0 
spm   :   0 st    : 187 std   :  67 sts   :   2 sub   :   7 subi  :  70 
swap  :   4 tst   :  21 wdr   :   1 
Instructions used: 82 out of 111 (73.9%)

ATmega32 memory use summary [bytes]:
Segment   Begin    End      Code   Data   Used    Size   Use%
---------------------------------------------------------------
[.cseg] 0x000000 0x001f28   7434    542   7976   32768  24.3%
[.dseg] 0x000060 0x0002a1      0     65     65    2048   3.2%
[.eseg] 0x000000 0x000000      0      0      0    1024   0.0%

Assembly complete, 0 errors, 14 warnings
