   1               		.file	"therm_ds18b20.c"
   2               	__SREG__ = 0x3f
   3               	__SP_H__ = 0x3e
   4               	__SP_L__ = 0x3d
   5               	__CCP__  = 0x34
   6               	__tmp_reg__ = 0
   7               	__zero_reg__ = 1
  15               	.Ltext0:
  16               	.global	therm_input_mode
  18               	therm_input_mode:
  19               	.LFB3:
  20               	.LM1:
  21               	/* prologue: function */
  22               	/* frame size = 0 */
  23               	.LM2:
  24 0000 24B3      		in r18,52-32
  25 0002 81E0      		ldi r24,lo8(1)
  26 0004 90E0      		ldi r25,hi8(1)
  27 0006 0090 0000 		lds r0,therm_dq
  28 000a 00C0      		rjmp 2f
  29 000c 880F      	1:	lsl r24
  30 000e 991F      		rol r25
  31 0010 0A94      	2:	dec r0
  32 0012 02F4      		brpl 1b
  33 0014 8095      		com r24
  34 0016 8223      		and r24,r18
  35 0018 84BB      		out 52-32,r24
  36               	/* epilogue start */
  37               	.LM3:
  38 001a 0895      		ret
  39               	.LFE3:
  41               	.global	therm_output_mode
  43               	therm_output_mode:
  44               	.LFB4:
  45               	.LM4:
  46               	/* prologue: function */
  47               	/* frame size = 0 */
  48               	.LM5:
  49 001c 24B3      		in r18,52-32
  50 001e 81E0      		ldi r24,lo8(1)
  51 0020 90E0      		ldi r25,hi8(1)
  52 0022 0090 0000 		lds r0,therm_dq
  53 0026 00C0      		rjmp 2f
  54 0028 880F      	1:	lsl r24
  55 002a 991F      		rol r25
  56 002c 0A94      	2:	dec r0
  57 002e 02F4      		brpl 1b
  58 0030 282B      		or r18,r24
  59 0032 24BB      		out 52-32,r18
  60               	/* epilogue start */
  61               	.LM6:
  62 0034 0895      		ret
  63               	.LFE4:
  65               	.global	therm_low
  67               	therm_low:
  68               	.LFB5:
  69               	.LM7:
  70               	/* prologue: function */
  71               	/* frame size = 0 */
  72               	.LM8:
  73 0036 25B3      		in r18,53-32
  74 0038 81E0      		ldi r24,lo8(1)
  75 003a 90E0      		ldi r25,hi8(1)
  76 003c 0090 0000 		lds r0,therm_dq
  77 0040 00C0      		rjmp 2f
  78 0042 880F      	1:	lsl r24
  79 0044 991F      		rol r25
  80 0046 0A94      	2:	dec r0
  81 0048 02F4      		brpl 1b
  82 004a 8095      		com r24
  83 004c 8223      		and r24,r18
  84 004e 85BB      		out 53-32,r24
  85               	/* epilogue start */
  86               	.LM9:
  87 0050 0895      		ret
  88               	.LFE5:
  90               	.global	therm_high
  92               	therm_high:
  93               	.LFB6:
  94               	.LM10:
  95               	/* prologue: function */
  96               	/* frame size = 0 */
  97               	.LM11:
  98 0052 25B3      		in r18,53-32
  99 0054 81E0      		ldi r24,lo8(1)
 100 0056 90E0      		ldi r25,hi8(1)
 101 0058 0090 0000 		lds r0,therm_dq
 102 005c 00C0      		rjmp 2f
 103 005e 880F      	1:	lsl r24
 104 0060 991F      		rol r25
 105 0062 0A94      	2:	dec r0
 106 0064 02F4      		brpl 1b
 107 0066 282B      		or r18,r24
 108 0068 25BB      		out 53-32,r18
 109               	/* epilogue start */
 110               	.LM12:
 111 006a 0895      		ret
 112               	.LFE6:
 114               	.global	therm_delay
 116               	therm_delay:
 117               	.LFB7:
 118               	.LM13:
 119               	.LVL0:
 120               	/* prologue: function */
 121               	/* frame size = 0 */
 122 006c 00C0      		rjmp .L10
 123               	.L11:
 124               	.LM14:
 125               	/* #APP */
 126               	 ;  23 "therm_ds18b20.c" 1
 127 006e 0000      		nop
 128               	 ;  0 "" 2
 129               	/* #NOAPP */
 130 0070 0197      		sbiw r24,1
 131               	.LVL1:
 132               	.L10:
 133 0072 0097      		sbiw r24,0
 134 0074 01F4      		brne .L11
 135               	/* epilogue start */
 136               	.LM15:
 137 0076 0895      		ret
 138               	.LFE7:
 140               	.global	therm_reset
 142               	therm_reset:
 143               	.LFB8:
 144               	.LM16:
 145               	/* prologue: function */
 146               	/* frame size = 0 */
 147               	.LBB40:
 148               	.LBB41:
 149               	.LM17:
 150 0078 85B3      		in r24,53-32
 151 007a 21E0      		ldi r18,lo8(1)
 152 007c 30E0      		ldi r19,hi8(1)
 153 007e 0090 0000 		lds r0,therm_dq
 154 0082 00C0      		rjmp 2f
 155 0084 220F      	1:	lsl r18
 156 0086 331F      		rol r19
 157 0088 0A94      	2:	dec r0
 158 008a 02F4      		brpl 1b
 159 008c 522F      		mov r21,r18
 160 008e 422F      		mov r20,r18
 161 0090 4095      		com r20
 162 0092 8423      		and r24,r20
 163 0094 85BB      		out 53-32,r24
 164               	.LBE41:
 165               	.LBE40:
 166               	.LBB42:
 167               	.LBB43:
 168               	.LM18:
 169 0096 84B3      		in r24,52-32
 170 0098 822B      		or r24,r18
 171 009a 84BB      		out 52-32,r24
 172 009c 80EE      		ldi r24,lo8(480)
 173 009e 91E0      		ldi r25,hi8(480)
 174               	.LVL2:
 175 00a0 00C0      		rjmp .L14
 176               	.L15:
 177               	.LBE43:
 178               	.LBE42:
 179               	.LBB44:
 180               	.LBB45:
 181               	.LM19:
 182               	/* #APP */
 183               	 ;  23 "therm_ds18b20.c" 1
 184 00a2 0000      		nop
 185               	 ;  0 "" 2
 186               	/* #NOAPP */
 187               	.L14:
 188 00a4 0197      		sbiw r24,1
 189 00a6 6FEF      		ldi r22,hi8(-1)
 190 00a8 8F3F      		cpi r24,lo8(-1)
 191 00aa 9607      		cpc r25,r22
 192 00ac 01F4      		brne .L15
 193               	.LBE45:
 194               	.LBE44:
 195               	.LBB46:
 196               	.LBB47:
 197               	.LM20:
 198 00ae 84B3      		in r24,52-32
 199               	.LVL3:
 200 00b0 4823      		and r20,r24
 201 00b2 44BB      		out 52-32,r20
 202 00b4 8CE3      		ldi r24,lo8(60)
 203 00b6 90E0      		ldi r25,hi8(60)
 204               	.LVL4:
 205 00b8 00C0      		rjmp .L16
 206               	.L17:
 207               	.LBE47:
 208               	.LBE46:
 209               	.LBB48:
 210               	.LBB49:
 211               	.LM21:
 212               	/* #APP */
 213               	 ;  23 "therm_ds18b20.c" 1
 214 00ba 0000      		nop
 215               	 ;  0 "" 2
 216               	/* #NOAPP */
 217               	.L16:
 218 00bc 0197      		sbiw r24,1
 219 00be 4FEF      		ldi r20,hi8(-1)
 220 00c0 8F3F      		cpi r24,lo8(-1)
 221 00c2 9407      		cpc r25,r20
 222 00c4 01F4      		brne .L17
 223               	.LBE49:
 224               	.LBE48:
 225               	.LM22:
 226 00c6 63B3      		in r22,51-32
 227 00c8 84EA      		ldi r24,lo8(420)
 228 00ca 91E0      		ldi r25,hi8(420)
 229               	.LVL5:
 230 00cc 00C0      		rjmp .L18
 231               	.L19:
 232               	.LBB50:
 233               	.LBB51:
 234               	.LM23:
 235               	/* #APP */
 236               	 ;  23 "therm_ds18b20.c" 1
 237 00ce 0000      		nop
 238               	 ;  0 "" 2
 239               	/* #NOAPP */
 240               	.L18:
 241 00d0 0197      		sbiw r24,1
 242 00d2 4FEF      		ldi r20,hi8(-1)
 243 00d4 8F3F      		cpi r24,lo8(-1)
 244 00d6 9407      		cpc r25,r20
 245 00d8 01F4      		brne .L19
 246               	.LBE51:
 247               	.LBE50:
 248               	.LM24:
 249 00da 83B3      		in r24,51-32
 250               	.LVL6:
 251 00dc 40E0      		ldi r20,lo8(0)
 252 00de 90E0      		ldi r25,lo8(0)
 253 00e0 2823      		and r18,r24
 254 00e2 3923      		and r19,r25
 255 00e4 5623      		and r21,r22
 256 00e6 852F      		mov r24,r21
 257 00e8 90E0      		ldi r25,lo8(0)
 258 00ea 2817      		cp r18,r24
 259 00ec 3907      		cpc r19,r25
 260 00ee 01F4      		brne .L20
 261 00f0 41E0      		ldi r20,lo8(1)
 262               	.L20:
 263               	.LM25:
 264 00f2 842F      		mov r24,r20
 265               	/* epilogue start */
 266 00f4 0895      		ret
 267               	.LFE8:
 269               	.global	therm_write_bit
 271               	therm_write_bit:
 272               	.LFB9:
 273               	.LM26:
 274               	.LVL7:
 275               	/* prologue: function */
 276               	/* frame size = 0 */
 277               	.LBB52:
 278               	.LBB53:
 279               	.LM27:
 280 00f6 95B3      		in r25,53-32
 281 00f8 21E0      		ldi r18,lo8(1)
 282 00fa 30E0      		ldi r19,hi8(1)
 283 00fc 0090 0000 		lds r0,therm_dq
 284 0100 00C0      		rjmp 2f
 285 0102 220F      	1:	lsl r18
 286 0104 331F      		rol r19
 287 0106 0A94      	2:	dec r0
 288 0108 02F4      		brpl 1b
 289 010a 322F      		mov r19,r18
 290 010c 3095      		com r19
 291 010e 9323      		and r25,r19
 292 0110 95BB      		out 53-32,r25
 293               	.LBE53:
 294               	.LBE52:
 295               	.LBB54:
 296               	.LBB55:
 297               	.LM28:
 298 0112 94B3      		in r25,52-32
 299 0114 292B      		or r18,r25
 300 0116 24BB      		out 52-32,r18
 301               	.LBE55:
 302               	.LBE54:
 303               	.LBB56:
 304               	.LBB57:
 305               	.LM29:
 306               	/* #APP */
 307               	 ;  23 "therm_ds18b20.c" 1
 308 0118 0000      		nop
 309               	 ;  0 "" 2
 310               	/* #NOAPP */
 311               	.LBE57:
 312               	.LBE56:
 313               	.LM30:
 314 011a 8823      		tst r24
 315 011c 01F0      		breq .L28
 316               	.L23:
 317               	.LBB58:
 318               	.LBB59:
 319               	.LM31:
 320 011e 84B3      		in r24,52-32
 321               	.LVL8:
 322 0120 8323      		and r24,r19
 323 0122 84BB      		out 52-32,r24
 324               	.LVL9:
 325               	.L28:
 326 0124 8CE3      		ldi r24,lo8(60)
 327 0126 90E0      		ldi r25,hi8(60)
 328               	.LVL10:
 329 0128 00C0      		rjmp .L27
 330               	.L25:
 331               	.LBE59:
 332               	.LBE58:
 333               	.LBB60:
 334               	.LBB61:
 335               	.LM32:
 336               	/* #APP */
 337               	 ;  23 "therm_ds18b20.c" 1
 338 012a 0000      		nop
 339               	 ;  0 "" 2
 340               	/* #NOAPP */
 341               	.L27:
 342 012c 0197      		sbiw r24,1
 343 012e 2FEF      		ldi r18,hi8(-1)
 344 0130 8F3F      		cpi r24,lo8(-1)
 345 0132 9207      		cpc r25,r18
 346 0134 01F4      		brne .L25
 347               	.LBE61:
 348               	.LBE60:
 349               	.LBB62:
 350               	.LBB63:
 351               	.LM33:
 352 0136 84B3      		in r24,52-32
 353               	.LVL11:
 354 0138 3823      		and r19,r24
 355 013a 34BB      		out 52-32,r19
 356               	/* epilogue start */
 357               	.LBE63:
 358               	.LBE62:
 359               	.LM34:
 360 013c 0895      		ret
 361               	.LFE9:
 363               	.global	therm_read_bit
 365               	therm_read_bit:
 366               	.LFB10:
 367               	.LM35:
 368               	/* prologue: function */
 369               	/* frame size = 0 */
 370               	.LBB64:
 371               	.LBB65:
 372               	.LM36:
 373 013e 25B3      		in r18,53-32
 374 0140 4091 0000 		lds r20,therm_dq
 375 0144 81E0      		ldi r24,lo8(1)
 376 0146 90E0      		ldi r25,hi8(1)
 377 0148 042E      		mov r0,r20
 378 014a 00C0      		rjmp 2f
 379 014c 880F      	1:	lsl r24
 380 014e 991F      		rol r25
 381 0150 0A94      	2:	dec r0
 382 0152 02F4      		brpl 1b
 383 0154 382F      		mov r19,r24
 384 0156 3095      		com r19
 385 0158 2323      		and r18,r19
 386 015a 25BB      		out 53-32,r18
 387               	.LBE65:
 388               	.LBE64:
 389               	.LBB66:
 390               	.LBB67:
 391               	.LM37:
 392 015c 24B3      		in r18,52-32
 393 015e 822B      		or r24,r18
 394 0160 84BB      		out 52-32,r24
 395               	.LBE67:
 396               	.LBE66:
 397               	.LBB68:
 398               	.LBB69:
 399               	.LM38:
 400               	/* #APP */
 401               	 ;  23 "therm_ds18b20.c" 1
 402 0162 0000      		nop
 403               	 ;  0 "" 2
 404               	/* #NOAPP */
 405               	.LBE69:
 406               	.LBE68:
 407               	.LBB70:
 408               	.LBB71:
 409               	.LM39:
 410 0164 84B3      		in r24,52-32
 411 0166 3823      		and r19,r24
 412 0168 34BB      		out 52-32,r19
 413 016a 8EE0      		ldi r24,lo8(14)
 414 016c 90E0      		ldi r25,hi8(14)
 415               	.LVL12:
 416 016e 00C0      		rjmp .L30
 417               	.L31:
 418               	.LBE71:
 419               	.LBE70:
 420               	.LBB72:
 421               	.LBB73:
 422               	.LM40:
 423               	/* #APP */
 424               	 ;  23 "therm_ds18b20.c" 1
 425 0170 0000      		nop
 426               	 ;  0 "" 2
 427               	/* #NOAPP */
 428               	.L30:
 429 0172 0197      		sbiw r24,1
 430 0174 2FEF      		ldi r18,hi8(-1)
 431 0176 8F3F      		cpi r24,lo8(-1)
 432 0178 9207      		cpc r25,r18
 433 017a 01F4      		brne .L31
 434               	.LBE73:
 435               	.LBE72:
 436               	.LM41:
 437 017c 83B3      		in r24,51-32
 438               	.LVL13:
 439 017e 2DE2      		ldi r18,lo8(45)
 440 0180 30E0      		ldi r19,hi8(45)
 441               	.LVL14:
 442 0182 00C0      		rjmp .L32
 443               	.L33:
 444               	.LBB74:
 445               	.LBB75:
 446               	.LM42:
 447               	/* #APP */
 448               	 ;  23 "therm_ds18b20.c" 1
 449 0184 0000      		nop
 450               	 ;  0 "" 2
 451               	/* #NOAPP */
 452               	.L32:
 453 0186 2150      		subi r18,lo8(-(-1))
 454 0188 3040      		sbci r19,hi8(-(-1))
 455 018a 9FEF      		ldi r25,hi8(-1)
 456 018c 2F3F      		cpi r18,lo8(-1)
 457 018e 3907      		cpc r19,r25
 458 0190 01F4      		brne .L33
 459 0192 90E0      		ldi r25,lo8(0)
 460 0194 00C0      		rjmp 2f
 461 0196 9595      	1:	asr r25
 462 0198 8795      		ror r24
 463 019a 4A95      	2:	dec r20
 464 019c 02F4      		brpl 1b
 465               	.LBE75:
 466               	.LBE74:
 467               	.LM43:
 468 019e 8170      		andi r24,lo8(1)
 469               	/* epilogue start */
 470 01a0 0895      		ret
 471               	.LFE10:
 473               	.global	therm_read_byte
 475               	therm_read_byte:
 476               	.LFB11:
 477               	.LM44:
 478 01a2 0F93      		push r16
 479 01a4 1F93      		push r17
 480               	/* prologue: function */
 481               	/* frame size = 0 */
 482               	.LM45:
 483 01a6 08E0      		ldi r16,lo8(8)
 484               	.LVL15:
 485 01a8 10E0      		ldi r17,lo8(0)
 486               	.LVL16:
 487 01aa 00C0      		rjmp .L36
 488               	.L37:
 489               	.LM46:
 490 01ac 0E94 0000 		call therm_read_bit
 491 01b0 912F      		mov r25,r17
 492 01b2 9695      		lsr r25
 493 01b4 182F      		mov r17,r24
 494 01b6 1795      		ror r17
 495 01b8 1127      		clr r17
 496 01ba 1795      		ror r17
 497 01bc 192B      		or r17,r25
 498               	.L36:
 499               	.LM47:
 500 01be 0150      		subi r16,1
 501 01c0 00F4      		brcc .L37
 502               	.LM48:
 503 01c2 812F      		mov r24,r17
 504               	/* epilogue start */
 505 01c4 1F91      		pop r17
 506               	.LVL17:
 507 01c6 0F91      		pop r16
 508               	.LVL18:
 509 01c8 0895      		ret
 510               	.LFE11:
 512               	.global	therm_write_byte
 514               	therm_write_byte:
 515               	.LFB12:
 516               	.LM49:
 517               	.LVL19:
 518 01ca 0F93      		push r16
 519 01cc 1F93      		push r17
 520               	/* prologue: function */
 521               	/* frame size = 0 */
 522 01ce 082F      		mov r16,r24
 523               	.LM50:
 524 01d0 18E0      		ldi r17,lo8(8)
 525               	.LVL20:
 526 01d2 00C0      		rjmp .L40
 527               	.LVL21:
 528               	.L41:
 529               	.LM51:
 530 01d4 802F      		mov r24,r16
 531 01d6 8170      		andi r24,lo8(1)
 532 01d8 0E94 0000 		call therm_write_bit
 533               	.LM52:
 534 01dc 0695      		lsr r16
 535               	.LVL22:
 536               	.L40:
 537               	.LM53:
 538 01de 1150      		subi r17,1
 539 01e0 00F4      		brcc .L41
 540               	/* epilogue start */
 541               	.LM54:
 542 01e2 1F91      		pop r17
 543               	.LVL23:
 544 01e4 0F91      		pop r16
 545               	.LVL24:
 546 01e6 0895      		ret
 547               	.LFE12:
 549               	.global	therm_crc8
 551               	therm_crc8:
 552               	.LFB13:
 553               	.LM55:
 554               	.LVL25:
 555               	/* prologue: function */
 556               	/* frame size = 0 */
 557               	.LM56:
 558 01e8 FC01      		movw r30,r24
 559               	.LVL26:
 560 01ea 40E0      		ldi r20,lo8(0)
 561               	.LVL27:
 562 01ec 90E0      		ldi r25,lo8(0)
 563               	.LVL28:
 564               	.LM57:
 565 01ee 58E1      		ldi r21,lo8(24)
 566 01f0 00C0      		rjmp .L44
 567               	.LVL29:
 568               	.L49:
 569               	.LM58:
 570 01f2 3081      		ld r19,Z
 571 01f4 20E0      		ldi r18,lo8(0)
 572               	.L48:
 573               	.LM59:
 574 01f6 892F      		mov r24,r25
 575 01f8 8327      		eor r24,r19
 576 01fa 80FF      		sbrs r24,0
 577 01fc 00C0      		rjmp .L45
 578 01fe 9527      		eor r25,r21
 579 0200 9695      		lsr r25
 580 0202 9068      		ori r25,lo8(-128)
 581 0204 00C0      		rjmp .L46
 582               	.L45:
 583               	.LM60:
 584 0206 9695      		lsr r25
 585               	.L46:
 586               	.LM61:
 587 0208 2F5F      		subi r18,lo8(-(1))
 588 020a 2830      		cpi r18,lo8(8)
 589 020c 01F0      		breq .L47
 590 020e 3695      		lsr r19
 591 0210 00C0      		rjmp .L48
 592               	.L47:
 593               	.LM62:
 594 0212 4F5F      		subi r20,lo8(-(1))
 595 0214 3196      		adiw r30,1
 596               	.L44:
 597 0216 4617      		cp r20,r22
 598 0218 00F0      		brlo .L49
 599               	.LM63:
 600 021a 892F      		mov r24,r25
 601               	/* epilogue start */
 602 021c 0895      		ret
 603               	.LFE13:
 605               	.global	therm_init
 607               	therm_init:
 608               	.LFB14:
 609               	.LM64:
 610               	.LVL30:
 611 021e FF92      		push r15
 612 0220 0F93      		push r16
 613 0222 1F93      		push r17
 614               	/* prologue: function */
 615               	/* frame size = 0 */
 616 0224 F62E      		mov r15,r22
 617 0226 042F      		mov r16,r20
 618 0228 122F      		mov r17,r18
 619               	.LM65:
 620 022a 8823      		tst r24
 621 022c 01F0      		breq .L52
 622               	.LVL31:
 623 022e 1092 0000 		sts therm_dq,__zero_reg__
 624 0232 00C0      		rjmp .L53
 625               	.L52:
 626               	.LM66:
 627 0234 81E0      		ldi r24,lo8(1)
 628               	.LVL32:
 629 0236 8093 0000 		sts therm_dq,r24
 630               	.LVL33:
 631               	.L53:
 632               	.LM67:
 633 023a 0E94 0000 		call therm_reset
 634               	.LVL34:
 635 023e 8823      		tst r24
 636 0240 01F0      		breq .L54
 637 0242 81E0      		ldi r24,lo8(1)
 638 0244 00C0      		rjmp .L55
 639               	.L54:
 640               	.LM68:
 641 0246 8CEC      		ldi r24,lo8(-52)
 642 0248 0E94 0000 		call therm_write_byte
 643               	.LM69:
 644 024c 8EE4      		ldi r24,lo8(78)
 645 024e 0E94 0000 		call therm_write_byte
 646               	.LM70:
 647 0252 802F      		mov r24,r16
 648 0254 0E94 0000 		call therm_write_byte
 649               	.LM71:
 650 0258 8F2D      		mov r24,r15
 651 025a 0E94 0000 		call therm_write_byte
 652               	.LM72:
 653 025e 1295      		swap r17
 654 0260 110F      		lsl r17
 655 0262 107E      		andi r17,lo8(-32)
 656               	.LM73:
 657 0264 812F      		mov r24,r17
 658 0266 8F61      		ori r24,lo8(31)
 659 0268 0E94 0000 		call therm_write_byte
 660               	.LM74:
 661 026c 0E94 0000 		call therm_reset
 662               	.LM75:
 663 0270 8CEC      		ldi r24,lo8(-52)
 664 0272 0E94 0000 		call therm_write_byte
 665               	.LM76:
 666 0276 88E4      		ldi r24,lo8(72)
 667 0278 0E94 0000 		call therm_write_byte
 668 027c 87E9      		ldi r24,lo8(14999)
 669 027e 9AE3      		ldi r25,hi8(14999)
 670               	.LVL35:
 671 0280 00C0      		rjmp .L56
 672               	.L57:
 673               	.LBB76:
 674               	.LBB77:
 675               	.LM77:
 676               	/* #APP */
 677               	 ;  23 "therm_ds18b20.c" 1
 678 0282 0000      		nop
 679               	 ;  0 "" 2
 680               	/* #NOAPP */
 681               	.L56:
 682 0284 0197      		sbiw r24,1
 683 0286 2FEF      		ldi r18,hi8(-1)
 684 0288 8F3F      		cpi r24,lo8(-1)
 685 028a 9207      		cpc r25,r18
 686 028c 01F4      		brne .L57
 687 028e 80E0      		ldi r24,lo8(0)
 688               	.LVL36:
 689               	.L55:
 690               	/* epilogue start */
 691               	.LBE77:
 692               	.LBE76:
 693               	.LM78:
 694 0290 1F91      		pop r17
 695               	.LVL37:
 696 0292 0F91      		pop r16
 697               	.LVL38:
 698 0294 FF90      		pop r15
 699               	.LVL39:
 700 0296 0895      		ret
 701               	.LFE14:
 703               	.global	therm_read_spd
 705               	therm_read_spd:
 706               	.LFB15:
 707               	.LM79:
 708 0298 CF93      		push r28
 709 029a DF93      		push r29
 710               	/* prologue: function */
 711               	/* frame size = 0 */
 712               	.LM80:
 713 029c C0E0      		ldi r28,lo8(__ds18b20_scratch_pad)
 714 029e D0E0      		ldi r29,hi8(__ds18b20_scratch_pad)
 715               	.LVL40:
 716               	.L60:
 717               	.LM81:
 718 02a0 0E94 0000 		call therm_read_byte
 719 02a4 8993      		st Y+,r24
 720               	.LM82:
 721 02a6 80E0      		ldi r24,hi8(__ds18b20_scratch_pad+9)
 722 02a8 C030      		cpi r28,lo8(__ds18b20_scratch_pad+9)
 723 02aa D807      		cpc r29,r24
 724 02ac 01F4      		brne .L60
 725               	.LM83:
 726 02ae CE01      		movw r24,r28
 727 02b0 0997      		sbiw r24,9
 728 02b2 68E0      		ldi r22,lo8(8)
 729 02b4 0E94 0000 		call therm_crc8
 730 02b8 20E0      		ldi r18,lo8(0)
 731 02ba 9091 0000 		lds r25,__ds18b20_scratch_pad+8
 732 02be 8913      		cpse r24,r25
 733 02c0 21E0      		ldi r18,lo8(1)
 734               	.L61:
 735               	.LM84:
 736 02c2 822F      		mov r24,r18
 737               	/* epilogue start */
 738 02c4 DF91      		pop r29
 739 02c6 CF91      		pop r28
 740               	.LVL41:
 741 02c8 0895      		ret
 742               	.LFE15:
 744               	.global	therm_read_temperature
 746               	therm_read_temperature:
 747               	.LFB16:
 748               	.LM85:
 749               	.LVL42:
 750 02ca 8F92      		push r8
 751 02cc 9F92      		push r9
 752 02ce BF92      		push r11
 753 02d0 CF92      		push r12
 754 02d2 DF92      		push r13
 755 02d4 0F93      		push r16
 756 02d6 DF93      		push r29
 757 02d8 CF93      		push r28
 758 02da CDB7      		in r28,__SP_L__
 759 02dc DEB7      		in r29,__SP_H__
 760 02de 2C97      		sbiw r28,12
 761 02e0 0FB6      		in __tmp_reg__,__SREG__
 762 02e2 F894      		cli
 763 02e4 DEBF      		out __SP_H__,r29
 764 02e6 0FBE      		out __SREG__,__tmp_reg__
 765 02e8 CDBF      		out __SP_L__,r28
 766               	/* prologue: function */
 767               	/* frame size = 12 */
 768 02ea 4B01      		movw r8,r22
 769               	.LM86:
 770 02ec DE01      		movw r26,r28
 771 02ee 1196      		adiw r26,1
 772 02f0 E0E0      		ldi r30,lo8(C.9.1579)
 773 02f2 F0E0      		ldi r31,hi8(C.9.1579)
 774 02f4 98E0      		ldi r25,lo8(8)
 775               	.LVL43:
 776               	.L65:
 777 02f6 0190      		ld r0,Z+
 778 02f8 0D92      		st X+,r0
 779 02fa 9150      		subi r25,lo8(-(-1))
 780 02fc 01F4      		brne .L65
 781               	.LM87:
 782 02fe 8823      		tst r24
 783 0300 01F0      		breq .L66
 784 0302 1092 0000 		sts therm_dq,__zero_reg__
 785 0306 00C0      		rjmp .L67
 786               	.L66:
 787               	.LM88:
 788 0308 81E0      		ldi r24,lo8(1)
 789               	.LVL44:
 790 030a 8093 0000 		sts therm_dq,r24
 791               	.LVL45:
 792               	.L67:
 793               	.LM89:
 794 030e 0E94 0000 		call therm_reset
 795               	.LVL46:
 796 0312 8823      		tst r24
 797 0314 01F0      		breq .+2
 798 0316 00C0      		rjmp .L68
 799               	.LM90:
 800 0318 8CEC      		ldi r24,lo8(-52)
 801 031a 0E94 0000 		call therm_write_byte
 802               	.LM91:
 803 031e 84E4      		ldi r24,lo8(68)
 804 0320 0E94 0000 		call therm_write_byte
 805               	.L69:
 806               	.LM92:
 807 0324 0E94 0000 		call therm_read_bit
 808 0328 8823      		tst r24
 809 032a 01F0      		breq .L69
 810               	.LM93:
 811 032c 0E94 0000 		call therm_reset
 812               	.LM94:
 813 0330 8CEC      		ldi r24,lo8(-52)
 814 0332 0E94 0000 		call therm_write_byte
 815               	.LM95:
 816 0336 8EEB      		ldi r24,lo8(-66)
 817 0338 0E94 0000 		call therm_write_byte
 818               	.LM96:
 819 033c 0E94 0000 		call therm_read_spd
 820 0340 8823      		tst r24
 821 0342 01F0      		breq .+2
 822 0344 00C0      		rjmp .L68
 823               	.LM97:
 824 0346 0E94 0000 		call therm_reset
 825               	.LM98:
 826 034a B090 0000 		lds r11,__ds18b20_scratch_pad+4
 827               	.LM99:
 828 034e 8091 0000 		lds r24,__ds18b20_scratch_pad
 829 0352 C82E      		mov r12,r24
 830               	.LVL47:
 831 0354 DD24      		clr r13
 832               	.LVL48:
 833               	.LM100:
 834 0356 9091 0000 		lds r25,__ds18b20_scratch_pad+1
 835 035a 80E0      		ldi r24,lo8(0)
 836 035c C82A      		or r12,r24
 837 035e D92A      		or r13,r25
 838               	.LVL49:
 839               	.LM101:
 840 0360 D7FC      		sbrc r13,7
 841 0362 00C0      		rjmp .L70
 842 0364 00E0      		ldi r16,lo8(0)
 843               	.LVL50:
 844 0366 00C0      		rjmp .L71
 845               	.LVL51:
 846               	.L70:
 847               	.LM102:
 848 0368 D094      		com r13
 849 036a C194      		neg r12
 850 036c D108      		sbc r13,__zero_reg__
 851 036e D394      		inc r13
 852 0370 01E0      		ldi r16,lo8(1)
 853               	.LVL52:
 854               	.L71:
 855               	.LM103:
 856 0372 B601      		movw r22,r12
 857 0374 24E0      		ldi r18,4
 858 0376 7695      	1:	lsr r23
 859 0378 6795      		ror r22
 860 037a 2A95      		dec r18
 861 037c 01F4      		brne 1b
 862 037e 70E0      		ldi r23,lo8(0)
 863 0380 8827      		clr r24
 864 0382 77FD      		sbrc r23,7
 865 0384 8095      		com r24
 866 0386 982F      		mov r25,r24
 867 0388 0E94 0000 		call __floatsisf
 868 038c 6987      		std Y+9,r22
 869 038e 7A87      		std Y+10,r23
 870 0390 8B87      		std Y+11,r24
 871 0392 9C87      		std Y+12,r25
 872 0394 B294      		swap r11
 873 0396 B694      		lsr r11
 874 0398 97E0      		ldi r25,lo8(7)
 875 039a B922      		and r11,r25
 876 039c EB2D      		mov r30,r11
 877 039e F0E0      		ldi r31,lo8(0)
 878 03a0 E370      		andi r30,lo8(3)
 879 03a2 F070      		andi r31,hi8(3)
 880 03a4 EE0F      		lsl r30
 881 03a6 FF1F      		rol r31
 882 03a8 EC0F      		add r30,r28
 883 03aa FD1F      		adc r31,r29
 884 03ac 6181      		ldd r22,Z+1
 885 03ae 6C21      		and r22,r12
 886 03b0 70E0      		ldi r23,lo8(0)
 887 03b2 8827      		clr r24
 888 03b4 77FD      		sbrc r23,7
 889 03b6 8095      		com r24
 890 03b8 982F      		mov r25,r24
 891 03ba 0E94 0000 		call __floatsisf
 892 03be 20E0      		ldi r18,lo8(0x3d800000)
 893 03c0 30E0      		ldi r19,hi8(0x3d800000)
 894 03c2 40E8      		ldi r20,hlo8(0x3d800000)
 895 03c4 5DE3      		ldi r21,hhi8(0x3d800000)
 896 03c6 0E94 0000 		call __mulsf3
 897 03ca 9B01      		movw r18,r22
 898 03cc AC01      		movw r20,r24
 899 03ce 6985      		ldd r22,Y+9
 900 03d0 7A85      		ldd r23,Y+10
 901 03d2 8B85      		ldd r24,Y+11
 902 03d4 9C85      		ldd r25,Y+12
 903 03d6 0E94 0000 		call __addsf3
 904 03da F401      		movw r30,r8
 905 03dc 6083      		st Z,r22
 906 03de 7183      		std Z+1,r23
 907 03e0 8283      		std Z+2,r24
 908 03e2 9383      		std Z+3,r25
 909               	.LM104:
 910 03e4 0023      		tst r16
 911 03e6 01F0      		breq .L77
 912               	.L72:
 913 03e8 DC01      		movw r26,r24
 914 03ea CB01      		movw r24,r22
 915 03ec B058      		subi r27,0x80
 916 03ee F401      		movw r30,r8
 917 03f0 8083      		st Z,r24
 918 03f2 9183      		std Z+1,r25
 919 03f4 A283      		std Z+2,r26
 920 03f6 B383      		std Z+3,r27
 921               	.L77:
 922 03f8 80E0      		ldi r24,lo8(0)
 923 03fa 00C0      		rjmp .L73
 924               	.LVL53:
 925               	.L68:
 926 03fc 81E0      		ldi r24,lo8(1)
 927               	.LVL54:
 928               	.L73:
 929               	/* epilogue start */
 930               	.LM105:
 931 03fe 2C96      		adiw r28,12
 932 0400 0FB6      		in __tmp_reg__,__SREG__
 933 0402 F894      		cli
 934 0404 DEBF      		out __SP_H__,r29
 935 0406 0FBE      		out __SREG__,__tmp_reg__
 936 0408 CDBF      		out __SP_L__,r28
 937 040a CF91      		pop r28
 938 040c DF91      		pop r29
 939 040e 0F91      		pop r16
 940               	.LVL55:
 941 0410 DF90      		pop r13
 942               	.LVL56:
 943 0412 CF90      		pop r12
 944               	.LVL57:
 945 0414 BF90      		pop r11
 946 0416 9F90      		pop r9
 947 0418 8F90      		pop r8
 948               	.LVL58:
 949 041a 0895      		ret
 950               	.LFE16:
 952               		.data
 955               	C.9.1579:
 956 0000 0800      		.word	8
 957 0002 0C00      		.word	12
 958 0004 0E00      		.word	14
 959 0006 0F00      		.word	15
 960               		.comm __ds18b20_scratch_pad,9,1
 961               		.comm therm_dq,1,1
 1090               	.Letext0:
DEFINED SYMBOLS
                            *ABS*:00000000 therm_ds18b20.c
C:\DOCUME~1\ADMINI~1\LOCALS~1\Temp/ccbzWVtO.s:2      *ABS*:0000003f __SREG__
C:\DOCUME~1\ADMINI~1\LOCALS~1\Temp/ccbzWVtO.s:3      *ABS*:0000003e __SP_H__
C:\DOCUME~1\ADMINI~1\LOCALS~1\Temp/ccbzWVtO.s:4      *ABS*:0000003d __SP_L__
C:\DOCUME~1\ADMINI~1\LOCALS~1\Temp/ccbzWVtO.s:5      *ABS*:00000034 __CCP__
C:\DOCUME~1\ADMINI~1\LOCALS~1\Temp/ccbzWVtO.s:6      *ABS*:00000000 __tmp_reg__
C:\DOCUME~1\ADMINI~1\LOCALS~1\Temp/ccbzWVtO.s:7      *ABS*:00000001 __zero_reg__
C:\DOCUME~1\ADMINI~1\LOCALS~1\Temp/ccbzWVtO.s:18     .text:00000000 therm_input_mode
                            *COM*:00000001 therm_dq
C:\DOCUME~1\ADMINI~1\LOCALS~1\Temp/ccbzWVtO.s:43     .text:0000001c therm_output_mode
C:\DOCUME~1\ADMINI~1\LOCALS~1\Temp/ccbzWVtO.s:67     .text:00000036 therm_low
C:\DOCUME~1\ADMINI~1\LOCALS~1\Temp/ccbzWVtO.s:92     .text:00000052 therm_high
C:\DOCUME~1\ADMINI~1\LOCALS~1\Temp/ccbzWVtO.s:116    .text:0000006c therm_delay
C:\DOCUME~1\ADMINI~1\LOCALS~1\Temp/ccbzWVtO.s:142    .text:00000078 therm_reset
C:\DOCUME~1\ADMINI~1\LOCALS~1\Temp/ccbzWVtO.s:271    .text:000000f6 therm_write_bit
C:\DOCUME~1\ADMINI~1\LOCALS~1\Temp/ccbzWVtO.s:365    .text:0000013e therm_read_bit
C:\DOCUME~1\ADMINI~1\LOCALS~1\Temp/ccbzWVtO.s:475    .text:000001a2 therm_read_byte
C:\DOCUME~1\ADMINI~1\LOCALS~1\Temp/ccbzWVtO.s:514    .text:000001ca therm_write_byte
C:\DOCUME~1\ADMINI~1\LOCALS~1\Temp/ccbzWVtO.s:551    .text:000001e8 therm_crc8
C:\DOCUME~1\ADMINI~1\LOCALS~1\Temp/ccbzWVtO.s:607    .text:0000021e therm_init
C:\DOCUME~1\ADMINI~1\LOCALS~1\Temp/ccbzWVtO.s:705    .text:00000298 therm_read_spd
                            *COM*:00000009 __ds18b20_scratch_pad
C:\DOCUME~1\ADMINI~1\LOCALS~1\Temp/ccbzWVtO.s:746    .text:000002ca therm_read_temperature
C:\DOCUME~1\ADMINI~1\LOCALS~1\Temp/ccbzWVtO.s:955    .data:00000000 C.9.1579

UNDEFINED SYMBOLS
__floatsisf
__mulsf3
__addsf3
__do_copy_data
__do_clear_bss
