
AVRASM ver. 2.1.9  ovf.asm Fri May 03 19:23:52 2019

ovf.asm(991): Including file 'ovf.vec'
ovf.asm(992): Including file 'ovf.inc'
ovf.inc(2): warning: Register r5 already defined by the .DEF directive
ovf.asm(992): 'ovf.inc' included form here
ovf.inc(3): warning: Register r4 already defined by the .DEF directive
ovf.asm(992): 'ovf.inc' included form here
ovf.inc(6): warning: Register r6 already defined by the .DEF directive
ovf.asm(992): 'ovf.inc' included form here
ovf.inc(7): warning: Register r8 already defined by the .DEF directive
ovf.asm(992): 'ovf.inc' included form here
ovf.inc(8): warning: Register r11 already defined by the .DEF directive
ovf.asm(992): 'ovf.inc' included form here
ovf.inc(15): warning: Register r12 already defined by the .DEF directive
ovf.asm(992): 'ovf.inc' included form here
ovf.inc(16): warning: Register r10 already defined by the .DEF directive
ovf.asm(992): 'ovf.inc' included form here
                 
                 
                 ;CodeVisionAVR C Compiler V1.25.8 Professional
                 ;(C) Copyright 1998-2007 Pavel Haiduc, HP InfoTech s.r.l.
                 ;http://www.hpinfotech.com
                 
                 ;Chip type              : ATmega128
                 ;Program type           : Application
                 ;Clock frequency        : 3,680000 MHz
                 ;Memory model           : Small
                 ;Optimize for           : Size
                 ;(s)printf features     : float, width, precision
                 ;(s)scanf features      : long, width
                 ;External SRAM size     : 0
                 ;Data Stack size        : 1024 byte(s)
                 ;Heap size              : 0 byte(s)
                 ;Promote char to int    : No
                 ;char is unsigned       : Yes
                 ;8 bit enums            : Yes
                 ;Word align FLASH struct: No
                 ;Enhanced core instructions    : On
                 ;Smart register allocation : On
                 ;Automatic register allocation : On
                 
                 	#pragma AVRPART ADMIN PART_NAME ATmega128
                 	#pragma AVRPART MEMORY PROG_FLASH 131072
                 	#pragma AVRPART MEMORY EEPROM 4096
                 	#pragma AVRPART MEMORY INT_SRAM SIZE 4096
                 	#pragma AVRPART MEMORY INT_SRAM START_ADDR 0x100
                 
                 	.EQU UDRE=0x5
                 	.EQU RXC=0x7
                 	.EQU USR=0xB
                 	.EQU UDR=0xC
                 	.EQU SPSR=0xE
                 	.EQU SPDR=0xF
                 	.EQU EERE=0x0
                 	.EQU EEWE=0x1
                 	.EQU EEMWE=0x2
                 	.EQU EECR=0x1C
                 	.EQU EEDR=0x1D
                 	.EQU EEARL=0x1E
                 	.EQU EEARH=0x1F
                 	.EQU WDTCR=0x21
                 	.EQU MCUCR=0x35
                 	.EQU RAMPZ=0x3B
                 	.EQU SPL=0x3D
                 	.EQU SPH=0x3E
                 	.EQU SREG=0x3F
                 	.EQU XMCRA=0x6D
                 	.EQU XMCRB=0x6C
                 
                 	.DEF R0X0=R0
                 	.DEF R0X1=R1
                 	.DEF R0X2=R2
                 	.DEF R0X3=R3
                 	.DEF R0X4=R4
                 	.DEF R0X5=R5
                 	.DEF R0X6=R6
                 	.DEF R0X7=R7
                 	.DEF R0X8=R8
                 	.DEF R0X9=R9
                 	.DEF R0XA=R10
                 	.DEF R0XB=R11
                 	.DEF R0XC=R12
                 	.DEF R0XD=R13
                 	.DEF R0XE=R14
                 	.DEF R0XF=R15
                 	.DEF R0X10=R16
                 	.DEF R0X11=R17
                 	.DEF R0X12=R18
                 	.DEF R0X13=R19
                 	.DEF R0X14=R20
                 	.DEF R0X15=R21
                 	.DEF R0X16=R22
                 	.DEF R0X17=R23
                 	.DEF R0X18=R24
                 	.DEF R0X19=R25
                 	.DEF R0X1A=R26
                 	.DEF R0X1B=R27
                 	.DEF R0X1C=R28
                 	.DEF R0X1D=R29
                 	.DEF R0X1E=R30
                 	.DEF R0X1F=R31
                 
                 	.MACRO __CPD1N
                 	CPI  R30,LOW(@0)
                 	LDI  R26,HIGH(@0)
                 	CPC  R31,R26
                 	LDI  R26,BYTE3(@0)
                 	CPC  R22,R26
                 	LDI  R26,BYTE4(@0)
                 	CPC  R23,R26
                 	.ENDM
                 
                 	.MACRO __CPD2N
                 	CPI  R26,LOW(@0)
                 	LDI  R30,HIGH(@0)
                 	CPC  R27,R30
                 	LDI  R30,BYTE3(@0)
                 	CPC  R24,R30
                 	LDI  R30,BYTE4(@0)
                 	CPC  R25,R30
                 	.ENDM
                 
                 	.MACRO __CPWRR
                 	CP   R@0,R@2
                 	CPC  R@1,R@3
                 	.ENDM
                 
                 	.MACRO __CPWRN
                 	CPI  R@0,LOW(@2)
                 	LDI  R30,HIGH(@2)
                 	CPC  R@1,R30
                 	.ENDM
                 
                 	.MACRO __ADDB1MN
                 	SUBI R30,LOW(-@0-(@1))
                 	.ENDM
                 	.MACRO __ADDB2MN
                 	SUBI R26,LOW(-@0-(@1))
                 	.ENDM
                 	.MACRO __ADDW1MN
                 	SUBI R30,LOW(-@0-(@1))
                 	SBCI R31,HIGH(-@0-(@1))
                 	.ENDM
                 	.MACRO __ADDW2MN
                 	SUBI R26,LOW(-@0-(@1))
                 	SBCI R27,HIGH(-@0-(@1))
                 	.ENDM
                 	.MACRO __ADDW1FN
                 	SUBI R30,LOW(-2*@0-(@1))
                 	SBCI R31,HIGH(-2*@0-(@1))
                 	.ENDM
                 	.MACRO __ADDD1FN
                 	SUBI R30,LOW(-2*@0-(@1))
                 	SBCI R31,HIGH(-2*@0-(@1))
                 	SBCI R22,BYTE3(-2*@0-(@1))
                 	.ENDM
                 	.MACRO __ADDD1N
                 	SUBI R30,LOW(-@0)
                 	SBCI R31,HIGH(-@0)
                 	SBCI R22,BYTE3(-@0)
                 	SBCI R23,BYTE4(-@0)
                 	.ENDM
                 
                 	.MACRO __ADDD2N
                 	SUBI R26,LOW(-@0)
                 	SBCI R27,HIGH(-@0)
                 	SBCI R24,BYTE3(-@0)
                 	SBCI R25,BYTE4(-@0)
                 	.ENDM
                 
                 	.MACRO __SUBD1N
                 	SUBI R30,LOW(@0)
                 	SBCI R31,HIGH(@0)
                 	SBCI R22,BYTE3(@0)
                 	SBCI R23,BYTE4(@0)
                 	.ENDM
                 
                 	.MACRO __SUBD2N
                 	SUBI R26,LOW(@0)
                 	SBCI R27,HIGH(@0)
                 	SBCI R24,BYTE3(@0)
                 	SBCI R25,BYTE4(@0)
                 	.ENDM
                 
                 	.MACRO __ANDBMNN
                 	LDS  R30,@0+@1
                 	ANDI R30,LOW(@2)
                 	STS  @0+@1,R30
                 	.ENDM
                 
                 	.MACRO __ANDWMNN
                 	LDS  R30,@0+@1
                 	ANDI R30,LOW(@2)
                 	STS  @0+@1,R30
                 	LDS  R30,@0+@1+1
                 	ANDI R30,HIGH(@2)
                 	STS  @0+@1+1,R30
                 	.ENDM
                 
                 	.MACRO __ANDD1N
                 	ANDI R30,LOW(@0)
                 	ANDI R31,HIGH(@0)
                 	ANDI R22,BYTE3(@0)
                 	ANDI R23,BYTE4(@0)
                 	.ENDM
                 
                 	.MACRO __ORBMNN
                 	LDS  R30,@0+@1
                 	ORI  R30,LOW(@2)
                 	STS  @0+@1,R30
                 	.ENDM
                 
                 	.MACRO __ORWMNN
                 	LDS  R30,@0+@1
                 	ORI  R30,LOW(@2)
                 	STS  @0+@1,R30
                 	LDS  R30,@0+@1+1
                 	ORI  R30,HIGH(@2)
                 	STS  @0+@1+1,R30
                 	.ENDM
                 
                 	.MACRO __ORD1N
                 	ORI  R30,LOW(@0)
                 	ORI  R31,HIGH(@0)
                 	ORI  R22,BYTE3(@0)
                 	ORI  R23,BYTE4(@0)
                 	.ENDM
                 
                 	.MACRO __DELAY_USB
                 	LDI  R24,LOW(@0)
                 __DELAY_USB_LOOP:
                 	DEC  R24
                 	BRNE __DELAY_USB_LOOP
                 	.ENDM
                 
                 	.MACRO __DELAY_USW
                 	LDI  R24,LOW(@0)
                 	LDI  R25,HIGH(@0)
                 __DELAY_USW_LOOP:
                 	SBIW R24,1
                 	BRNE __DELAY_USW_LOOP
                 	.ENDM
                 
                 	.MACRO __CLRD1S
                 	LDI  R30,0
                 	STD  Y+@0,R30
                 	STD  Y+@0+1,R30
                 	STD  Y+@0+2,R30
                 	STD  Y+@0+3,R30
                 	.ENDM
                 
                 	.MACRO __GETD1S
                 	LDD  R30,Y+@0
                 	LDD  R31,Y+@0+1
                 	LDD  R22,Y+@0+2
                 	LDD  R23,Y+@0+3
                 	.ENDM
                 
                 	.MACRO __PUTD1S
                 	STD  Y+@0,R30
                 	STD  Y+@0+1,R31
                 	STD  Y+@0+2,R22
                 	STD  Y+@0+3,R23
                 	.ENDM
                 
                 	.MACRO __PUTD2S
                 	STD  Y+@0,R26
                 	STD  Y+@0+1,R27
                 	STD  Y+@0+2,R24
                 	STD  Y+@0+3,R25
                 	.ENDM
                 
                 	.MACRO __POINTB1MN
                 	LDI  R30,LOW(@0+@1)
                 	.ENDM
                 
                 	.MACRO __POINTW1MN
                 	LDI  R30,LOW(@0+@1)
                 	LDI  R31,HIGH(@0+@1)
                 	.ENDM
                 
                 	.MACRO __POINTD1M
                 	LDI  R30,LOW(@0)
                 	LDI  R31,HIGH(@0)
                 	LDI  R22,BYTE3(@0)
                 	LDI  R23,BYTE4(@0)
                 	.ENDM
                 
                 	.MACRO __POINTW1FN
                 	LDI  R30,LOW(2*@0+@1)
                 	LDI  R31,HIGH(2*@0+@1)
                 	.ENDM
                 
                 	.MACRO __POINTD1FN
                 	LDI  R30,LOW(2*@0+@1)
                 	LDI  R31,HIGH(2*@0+@1)
                 	LDI  R22,BYTE3(2*@0+@1)
                 	LDI  R23,BYTE4(2*@0+@1)
                 	.ENDM
                 
                 	.MACRO __POINTB2MN
                 	LDI  R26,LOW(@0+@1)
                 	.ENDM
                 
                 	.MACRO __POINTW2MN
                 	LDI  R26,LOW(@0+@1)
                 	LDI  R27,HIGH(@0+@1)
                 	.ENDM
                 
                 	.MACRO __POINTBRM
                 	LDI  R@0,LOW(@1)
                 	.ENDM
                 
                 	.MACRO __POINTWRM
                 	LDI  R@0,LOW(@2)
                 	LDI  R@1,HIGH(@2)
                 	.ENDM
                 
                 	.MACRO __POINTBRMN
                 	LDI  R@0,LOW(@1+@2)
                 	.ENDM
                 
                 	.MACRO __POINTWRMN
                 	LDI  R@0,LOW(@2+@3)
                 	LDI  R@1,HIGH(@2+@3)
                 	.ENDM
                 
                 	.MACRO __POINTWRFN
                 	LDI  R@0,LOW(@2*2+@3)
                 	LDI  R@1,HIGH(@2*2+@3)
                 	.ENDM
                 
                 	.MACRO __GETD1N
                 	LDI  R30,LOW(@0)
                 	LDI  R31,HIGH(@0)
                 	LDI  R22,BYTE3(@0)
                 	LDI  R23,BYTE4(@0)
                 	.ENDM
                 
                 	.MACRO __GETD2N
                 	LDI  R26,LOW(@0)
                 	LDI  R27,HIGH(@0)
                 	LDI  R24,BYTE3(@0)
                 	LDI  R25,BYTE4(@0)
                 	.ENDM
                 
                 	.MACRO __GETD2S
                 	LDD  R26,Y+@0
                 	LDD  R27,Y+@0+1
                 	LDD  R24,Y+@0+2
                 	LDD  R25,Y+@0+3
                 	.ENDM
                 
                 	.MACRO __GETB1MN
                 	LDS  R30,@0+@1
                 	.ENDM
                 
                 	.MACRO __GETB1HMN
                 	LDS  R31,@0+@1
                 	.ENDM
                 
                 	.MACRO __GETW1MN
                 	LDS  R30,@0+@1
                 	LDS  R31,@0+@1+1
                 	.ENDM
                 
                 	.MACRO __GETD1MN
                 	LDS  R30,@0+@1
                 	LDS  R31,@0+@1+1
                 	LDS  R22,@0+@1+2
                 	LDS  R23,@0+@1+3
                 	.ENDM
                 
                 	.MACRO __GETBRMN
                 	LDS  R@0,@1+@2
                 	.ENDM
                 
                 	.MACRO __GETWRMN
                 	LDS  R@0,@2+@3
                 	LDS  R@1,@2+@3+1
                 	.ENDM
                 
                 	.MACRO __GETWRZ
                 	LDD  R@0,Z+@2
                 	LDD  R@1,Z+@2+1
                 	.ENDM
                 
                 	.MACRO __GETD2Z
                 	LDD  R26,Z+@0
                 	LDD  R27,Z+@0+1
                 	LDD  R24,Z+@0+2
                 	LDD  R25,Z+@0+3
                 	.ENDM
                 
                 	.MACRO __GETB2MN
                 	LDS  R26,@0+@1
                 	.ENDM
                 
                 	.MACRO __GETW2MN
                 	LDS  R26,@0+@1
                 	LDS  R27,@0+@1+1
                 	.ENDM
                 
                 	.MACRO __GETD2MN
                 	LDS  R26,@0+@1
                 	LDS  R27,@0+@1+1
                 	LDS  R24,@0+@1+2
                 	LDS  R25,@0+@1+3
                 	.ENDM
                 
                 	.MACRO __PUTB1MN
                 	STS  @0+@1,R30
                 	.ENDM
                 
                 	.MACRO __PUTW1MN
                 	STS  @0+@1,R30
                 	STS  @0+@1+1,R31
                 	.ENDM
                 
                 	.MACRO __PUTD1MN
                 	STS  @0+@1,R30
                 	STS  @0+@1+1,R31
                 	STS  @0+@1+2,R22
                 	STS  @0+@1+3,R23
                 	.ENDM
                 
                 	.MACRO __PUTBR0MN
                 	STS  @0+@1,R0
                 	.ENDM
                 
                 	.MACRO __PUTDZ2
                 	STD  Z+@0,R26
                 	STD  Z+@0+1,R27
                 	STD  Z+@0+2,R24
                 	STD  Z+@0+3,R25
                 	.ENDM
                 
                 	.MACRO __PUTBMRN
                 	STS  @0+@1,R@2
                 	.ENDM
                 
                 	.MACRO __PUTWMRN
                 	STS  @0+@1,R@2
                 	STS  @0+@1+1,R@3
                 	.ENDM
                 
                 	.MACRO __PUTBZR
                 	STD  Z+@1,R@0
                 	.ENDM
                 
                 	.MACRO __PUTWZR
                 	STD  Z+@2,R@0
                 	STD  Z+@2+1,R@1
                 	.ENDM
                 
                 	.MACRO __GETW1R
                 	MOV  R30,R@0
                 	MOV  R31,R@1
                 	.ENDM
                 
                 	.MACRO __GETW2R
                 	MOV  R26,R@0
                 	MOV  R27,R@1
                 	.ENDM
                 
                 	.MACRO __GETWRN
                 	LDI  R@0,LOW(@2)
                 	LDI  R@1,HIGH(@2)
                 	.ENDM
                 
                 	.MACRO __PUTW1R
                 	MOV  R@0,R30
                 	MOV  R@1,R31
                 	.ENDM
                 
                 	.MACRO __PUTW2R
                 	MOV  R@0,R26
                 	MOV  R@1,R27
                 	.ENDM
                 
                 	.MACRO __ADDWRN
                 	SUBI R@0,LOW(-@2)
                 	SBCI R@1,HIGH(-@2)
                 	.ENDM
                 
                 	.MACRO __ADDWRR
                 	ADD  R@0,R@2
                 	ADC  R@1,R@3
                 	.ENDM
                 
                 	.MACRO __SUBWRN
                 	SUBI R@0,LOW(@2)
                 	SBCI R@1,HIGH(@2)
                 	.ENDM
                 
                 	.MACRO __SUBWRR
                 	SUB  R@0,R@2
                 	SBC  R@1,R@3
                 	.ENDM
                 
                 	.MACRO __ANDWRN
                 	ANDI R@0,LOW(@2)
                 	ANDI R@1,HIGH(@2)
                 	.ENDM
                 
                 	.MACRO __ANDWRR
                 	AND  R@0,R@2
                 	AND  R@1,R@3
                 	.ENDM
                 
                 	.MACRO __ORWRN
                 	ORI  R@0,LOW(@2)
                 	ORI  R@1,HIGH(@2)
                 	.ENDM
                 
                 	.MACRO __ORWRR
                 	OR   R@0,R@2
                 	OR   R@1,R@3
                 	.ENDM
                 
                 	.MACRO __EORWRR
                 	EOR  R@0,R@2
                 	EOR  R@1,R@3
                 	.ENDM
                 
                 	.MACRO __GETWRS
                 	LDD  R@0,Y+@2
                 	LDD  R@1,Y+@2+1
                 	.ENDM
                 
                 	.MACRO __PUTWSR
                 	STD  Y+@2,R@0
                 	STD  Y+@2+1,R@1
                 	.ENDM
                 
                 	.MACRO __MOVEWRR
                 	MOV  R@0,R@2
                 	MOV  R@1,R@3
                 	.ENDM
                 
                 	.MACRO __INWR
                 	IN   R@0,@2
                 	IN   R@1,@2+1
                 	.ENDM
                 
                 	.MACRO __OUTWR
                 	OUT  @2+1,R@1
                 	OUT  @2,R@0
                 	.ENDM
                 
                 	.MACRO __CALL1MN
                 	LDS  R30,@0+@1
                 	LDS  R31,@0+@1+1
                 	ICALL
                 	.ENDM
                 
                 	.MACRO __CALL1FN
                 	LDI  R30,LOW(2*@0+@1)
                 	LDI  R31,HIGH(2*@0+@1)
                 	CALL __GETW1PF
                 	ICALL
                 	.ENDM
                 
                 	.MACRO __CALL2EN
                 	LDI  R26,LOW(@0+@1)
                 	LDI  R27,HIGH(@0+@1)
                 	CALL __EEPROMRDW
                 	ICALL
                 	.ENDM
                 
                 	.MACRO __GETW1STACK
                 	IN   R26,SPL
                 	IN   R27,SPH
                 	ADIW R26,@0+1
                 	LD   R30,X+
                 	LD   R31,X
                 	.ENDM
                 
                 	.MACRO __NBST
                 	BST  R@0,@1
                 	IN   R30,SREG
                 	LDI  R31,0x40
                 	EOR  R30,R31
                 	OUT  SREG,R30
                 	.ENDM
                 
                 
                 	.MACRO __PUTB1SN
                 	LDD  R26,Y+@0
                 	LDD  R27,Y+@0+1
                 	SUBI R26,LOW(-@1)
                 	SBCI R27,HIGH(-@1)
                 	ST   X,R30
                 	.ENDM
                 
                 	.MACRO __PUTW1SN
                 	LDD  R26,Y+@0
                 	LDD  R27,Y+@0+1
                 	SUBI R26,LOW(-@1)
                 	SBCI R27,HIGH(-@1)
                 	ST   X+,R30
                 	ST   X,R31
                 	.ENDM
                 
                 	.MACRO __PUTD1SN
                 	LDD  R26,Y+@0
                 	LDD  R27,Y+@0+1
                 	SUBI R26,LOW(-@1)
                 	SBCI R27,HIGH(-@1)
                 	CALL __PUTDP1
                 	.ENDM
                 
                 	.MACRO __PUTB1SNS
                 	LDD  R26,Y+@0
                 	LDD  R27,Y+@0+1
                 	ADIW R26,@1
                 	ST   X,R30
                 	.ENDM
                 
                 	.MACRO __PUTW1SNS
                 	LDD  R26,Y+@0
                 	LDD  R27,Y+@0+1
                 	ADIW R26,@1
                 	ST   X+,R30
                 	ST   X,R31
                 	.ENDM
                 
                 	.MACRO __PUTD1SNS
                 	LDD  R26,Y+@0
                 	LDD  R27,Y+@0+1
                 	ADIW R26,@1
                 	CALL __PUTDP1
                 	.ENDM
                 
                 	.MACRO __PUTB1PMN
                 	LDS  R26,@0
                 	LDS  R27,@0+1
                 	SUBI R26,LOW(-@1)
                 	SBCI R27,HIGH(-@1)
                 	ST   X,R30
                 	.ENDM
                 
                 	.MACRO __PUTW1PMN
                 	LDS  R26,@0
                 	LDS  R27,@0+1
                 	SUBI R26,LOW(-@1)
                 	SBCI R27,HIGH(-@1)
                 	ST   X+,R30
                 	ST   X,R31
                 	.ENDM
                 
                 	.MACRO __PUTD1PMN
                 	LDS  R26,@0
                 	LDS  R27,@0+1
                 	SUBI R26,LOW(-@1)
                 	SBCI R27,HIGH(-@1)
                 	CALL __PUTDP1
                 	.ENDM
                 
                 	.MACRO __PUTB1PMNS
                 	LDS  R26,@0
                 	LDS  R27,@0+1
                 	ADIW R26,@1
                 	ST   X,R30
                 	.ENDM
                 
                 	.MACRO __PUTW1PMNS
                 	LDS  R26,@0
                 	LDS  R27,@0+1
                 	ADIW R26,@1
                 	ST   X+,R30
                 	ST   X,R31
                 	.ENDM
                 
                 	.MACRO __PUTD1PMNS
                 	LDS  R26,@0
                 	LDS  R27,@0+1
                 	ADIW R26,@1
                 	CALL __PUTDP1
                 	.ENDM
                 
                 	.MACRO __PUTB1RN
                 	MOVW R26,R@0
                 	SUBI R26,LOW(-@1)
                 	SBCI R27,HIGH(-@1)
                 	ST   X,R30
                 	.ENDM
                 
                 	.MACRO __PUTW1RN
                 	MOVW R26,R@0
                 	SUBI R26,LOW(-@1)
                 	SBCI R27,HIGH(-@1)
                 	ST   X+,R30
                 	ST   X,R31
                 	.ENDM
                 
                 	.MACRO __PUTD1RN
                 	MOVW R26,R@0
                 	SUBI R26,LOW(-@1)
                 	SBCI R27,HIGH(-@1)
                 	CALL __PUTDP1
                 	.ENDM
                 
                 	.MACRO __PUTB1RNS
                 	MOVW R26,R@0
                 	ADIW R26,@1
                 	ST   X,R30
                 	.ENDM
                 
                 	.MACRO __PUTW1RNS
                 	MOVW R26,R@0
                 	ADIW R26,@1
                 	ST   X+,R30
                 	ST   X,R31
                 	.ENDM
                 
                 	.MACRO __PUTD1RNS
                 	MOVW R26,R@0
                 	ADIW R26,@1
                 	CALL __PUTDP1
                 	.ENDM
                 
                 	.MACRO __PUTB1RON
                 	MOV  R26,R@0
                 	MOV  R27,R@1
                 	SUBI R26,LOW(-@2)
                 	SBCI R27,HIGH(-@2)
                 	ST   X,R30
                 	.ENDM
                 
                 	.MACRO __PUTW1RON
                 	MOV  R26,R@0
                 	MOV  R27,R@1
                 	SUBI R26,LOW(-@2)
                 	SBCI R27,HIGH(-@2)
                 	ST   X+,R30
                 	ST   X,R31
                 	.ENDM
                 
                 	.MACRO __PUTD1RON
                 	MOV  R26,R@0
                 	MOV  R27,R@1
                 	SUBI R26,LOW(-@2)
                 	SBCI R27,HIGH(-@2)
                 	CALL __PUTDP1
                 	.ENDM
                 
                 	.MACRO __PUTB1RONS
                 	MOV  R26,R@0
                 	MOV  R27,R@1
                 	ADIW R26,@2
                 	ST   X,R30
                 	.ENDM
                 
                 	.MACRO __PUTW1RONS
                 	MOV  R26,R@0
                 	MOV  R27,R@1
                 	ADIW R26,@2
                 	ST   X+,R30
                 	ST   X,R31
                 	.ENDM
                 
                 	.MACRO __PUTD1RONS
                 	MOV  R26,R@0
                 	MOV  R27,R@1
                 	ADIW R26,@2
                 	CALL __PUTDP1
                 	.ENDM
                 
                 
                 	.MACRO __GETB1SX
                 	MOVW R30,R28
                 	SUBI R30,LOW(-@0)
                 	SBCI R31,HIGH(-@0)
                 	LD   R30,Z
                 	.ENDM
                 
                 	.MACRO __GETB1HSX
                 	MOVW R30,R28
                 	SUBI R30,LOW(-@0)
                 	SBCI R31,HIGH(-@0)
                 	LD   R31,Z
                 	.ENDM
                 
                 	.MACRO __GETW1SX
                 	MOVW R30,R28
                 	SUBI R30,LOW(-@0)
                 	SBCI R31,HIGH(-@0)
                 	LD   R0,Z+
                 	LD   R31,Z
                 	MOV  R30,R0
                 	.ENDM
                 
                 	.MACRO __GETD1SX
                 	MOVW R30,R28
                 	SUBI R30,LOW(-@0)
                 	SBCI R31,HIGH(-@0)
                 	LD   R0,Z+
                 	LD   R1,Z+
                 	LD   R22,Z+
                 	LD   R23,Z
                 	MOVW R30,R0
                 	.ENDM
                 
                 	.MACRO __GETB2SX
                 	MOVW R26,R28
                 	SUBI R26,LOW(-@0)
                 	SBCI R27,HIGH(-@0)
                 	LD   R26,X
                 	.ENDM
                 
                 	.MACRO __GETW2SX
                 	MOVW R26,R28
                 	SUBI R26,LOW(-@0)
                 	SBCI R27,HIGH(-@0)
                 	LD   R0,X+
                 	LD   R27,X
                 	MOV  R26,R0
                 	.ENDM
                 
                 	.MACRO __GETD2SX
                 	MOVW R26,R28
                 	SUBI R26,LOW(-@0)
                 	SBCI R27,HIGH(-@0)
                 	LD   R0,X+
                 	LD   R1,X+
                 	LD   R24,X+
                 	LD   R25,X
                 	MOVW R26,R0
                 	.ENDM
                 
                 	.MACRO __GETBRSX
                 	MOVW R30,R28
                 	SUBI R30,LOW(-@1)
                 	SBCI R31,HIGH(-@1)
                 	LD   R@0,Z
                 	.ENDM
                 
                 	.MACRO __GETWRSX
                 	MOVW R30,R28
                 	SUBI R30,LOW(-@2)
                 	SBCI R31,HIGH(-@2)
                 	LD   R@0,Z+
                 	LD   R@1,Z
                 	.ENDM
                 
                 	.MACRO __LSLW8SX
                 	MOVW R30,R28
                 	SUBI R30,LOW(-@0)
                 	SBCI R31,HIGH(-@0)
                 	LD   R31,Z
                 	CLR  R30
                 	.ENDM
                 
                 	.MACRO __PUTB1SX
                 	MOVW R26,R28
                 	SUBI R26,LOW(-@0)
                 	SBCI R27,HIGH(-@0)
                 	ST   X,R30
                 	.ENDM
                 
                 	.MACRO __PUTW1SX
                 	MOVW R26,R28
                 	SUBI R26,LOW(-@0)
                 	SBCI R27,HIGH(-@0)
                 	ST   X+,R30
                 	ST   X,R31
                 	.ENDM
                 
                 	.MACRO __PUTD1SX
                 	MOVW R26,R28
                 	SUBI R26,LOW(-@0)
                 	SBCI R27,HIGH(-@0)
                 	ST   X+,R30
                 	ST   X+,R31
                 	ST   X+,R22
                 	ST   X,R23
                 	.ENDM
                 
                 	.MACRO __CLRW1SX
                 	MOVW R30,R28
                 	SUBI R30,LOW(-@0)
                 	SBCI R31,HIGH(-@0)
                 	CLR  R0
                 	ST   Z+,R0
                 	ST   Z,R0
                 	.ENDM
                 
                 	.MACRO __CLRD1SX
                 	MOVW R30,R28
                 	SUBI R30,LOW(-@0)
                 	SBCI R31,HIGH(-@0)
                 	CLR  R0
                 	ST   Z+,R0
                 	ST   Z+,R0
                 	ST   Z+,R0
                 	ST   Z,R0
                 	.ENDM
                 
                 	.MACRO __PUTB2SX
                 	MOVW R30,R28
                 	SUBI R30,LOW(-@0)
                 	SBCI R31,HIGH(-@0)
                 	ST   Z,R26
                 	.ENDM
                 
                 	.MACRO __PUTW2SX
                 	MOVW R30,R28
                 	SUBI R30,LOW(-@0)
                 	SBCI R31,HIGH(-@0)
                 	ST   Z+,R26
                 	ST   Z,R27
                 	.ENDM
                 
                 	.MACRO __PUTD2SX
                 	MOVW R30,R28
                 	SUBI R30,LOW(-@0)
                 	SBCI R31,HIGH(-@0)
                 	ST   Z+,R26
                 	ST   Z+,R27
                 	ST   Z+,R24
                 	ST   Z,R25
                 	.ENDM
                 
                 	.MACRO __PUTBSRX
                 	MOVW R30,R28
                 	SUBI R30,LOW(-@0)
                 	SBCI R31,HIGH(-@0)
                 	ST   Z,R@1
                 	.ENDM
                 
                 	.MACRO __PUTWSRX
                 	MOVW R30,R28
                 	SUBI R30,LOW(-@2)
                 	SBCI R31,HIGH(-@2)
                 	ST   Z+,R@0
                 	ST   Z,R@1
                 	.ENDM
                 
                 	.MACRO __PUTB1SNX
                 	MOVW R26,R28
                 	SUBI R26,LOW(-@0)
                 	SBCI R27,HIGH(-@0)
                 	LD   R0,X+
                 	LD   R27,X
                 	MOV  R26,R0
                 	SUBI R26,LOW(-@1)
                 	SBCI R27,HIGH(-@1)
                 	ST   X,R30
                 	.ENDM
                 
                 	.MACRO __PUTW1SNX
                 	MOVW R26,R28
                 	SUBI R26,LOW(-@0)
                 	SBCI R27,HIGH(-@0)
                 	LD   R0,X+
                 	LD   R27,X
                 	MOV  R26,R0
                 	SUBI R26,LOW(-@1)
                 	SBCI R27,HIGH(-@1)
                 	ST   X+,R30
                 	ST   X,R31
                 	.ENDM
                 
                 	.MACRO __PUTD1SNX
                 	MOVW R26,R28
                 	SUBI R26,LOW(-@0)
                 	SBCI R27,HIGH(-@0)
                 	LD   R0,X+
                 	LD   R27,X
                 	MOV  R26,R0
                 	SUBI R26,LOW(-@1)
                 	SBCI R27,HIGH(-@1)
                 	ST   X+,R30
                 	ST   X+,R31
                 	ST   X+,R22
                 	ST   X,R23
                 	.ENDM
                 
                 	.MACRO __MULBRR
                 	MULS R@0,R@1
                 	MOVW R30,R0
                 	.ENDM
                 
                 	.MACRO __MULBRRU
                 	MUL  R@0,R@1
                 	MOVW R30,R0
                 	.ENDM
                 
                 	.MACRO __MULBRR0
                 	MULS R@0,R@1
                 	.ENDM
                 
                 	.MACRO __MULBRRU0
                 	MUL  R@0,R@1
                 	.ENDM
                 
                 	.MACRO __MULBNWRU
                 	LDI  R26,@2
                 	MUL  R26,R@0
                 	MOVW R30,R0
                 	MUL  R26,R@1
                 	ADD  R31,R0
                 	.ENDM
                 
                 	.CSEG
                 	.ORG 0
                 
                 	.INCLUDE "ovf.vec"
                 
                 ;INTERRUPT VECTORS
000000 940c 0124 	JMP  __RESET
000002 940c 0000 	JMP  0x00
000004 940c 0000 	JMP  0x00
000006 940c 0000 	JMP  0x00
000008 940c 0000 	JMP  0x00
00000a 940c 0000 	JMP  0x00
00000c 940c 0000 	JMP  0x00
00000e 940c 0000 	JMP  0x00
000010 940c 0000 	JMP  0x00
000012 940c 0000 	JMP  0x00
000014 940c 0200 	JMP  _timer2_ovf_isr
000016 940c 0000 	JMP  0x00
000018 940c 0000 	JMP  0x00
00001a 940c 0000 	JMP  0x00
00001c 940c 0000 	JMP  0x00
00001e 940c 0000 	JMP  0x00
000020 940c 0000 	JMP  0x00
000022 940c 0000 	JMP  0x00
000024 940c 0000 	JMP  0x00
000026 940c 0000 	JMP  0x00
000028 940c 0000 	JMP  0x00
00002a 940c 0000 	JMP  0x00
00002c 940c 0000 	JMP  0x00
00002e 940c 0000 	JMP  0x00
000030 940c 0000 	JMP  0x00
000032 940c 0000 	JMP  0x00
000034 940c 0000 	JMP  0x00
000036 940c 0000 	JMP  0x00
000038 940c 0000 	JMP  0x00
00003a 940c 0237 	JMP  _timer3_ovf_isr
00003c 940c 0000 	JMP  0x00
00003e 940c 0000 	JMP  0x00
000040 940c 0000 	JMP  0x00
000042 940c 0000 	JMP  0x00
000044 940c 0000 	JMP  0x00
                 
                 	.INCLUDE "ovf.inc"
                 
                 	.DEF _k=R5
                 	.DEF _PREV_PINF=R4
                 _98:
ovf.inc(5): warning: .cseg .db misalignment - padding zero byte
ovf.asm(992): 'ovf.inc' included form here
000046 00ff      	.DB  0xFF
                 	.DEF _gSelectPlusCounter=R6
                 	.DEF _gSelectMinusCounter=R8
                 	.DEF _N=R11
                 _99:
ovf.inc(10): warning: .cseg .db misalignment - padding zero byte
ovf.asm(992): 'ovf.inc' included form here
000047 0001      	.DB  0x1
                 _100:
000048 999a
000049 41b1      	.DB  0x9A,0x99,0xB1,0x41
                 _101:
00004a 000a      	.DB  0xA,0x0
                 	.DEF _ICR3=R12
                 	.DEF _ADC_INPUT=R10
                 _102:
ovf.inc(18): warning: .cseg .db misalignment - padding zero byte
ovf.asm(992): 'ovf.inc' included form here
00004b 0005      	.DB  0x5
                 _103:
ovf.inc(20): warning: .cseg .db misalignment - padding zero byte
ovf.asm(992): 'ovf.inc' included form here
00004c 0005      	.DB  0x5
                 _104:
ovf.inc(22): warning: .cseg .db misalignment - padding zero byte
ovf.asm(992): 'ovf.inc' included form here
00004d 006d      	.DB  0x6D
                 _0x76:
00004e 005e      	.DB  0x5E,0x0
00004f 005e      	.DB  0x5E,0x0
000050 005e      	.DB  0x5E,0x0
000051 005e      	.DB  0x5E,0x0
000052 0807      	.DB  0x7,0x8
000053 0b09      	.DB  0x9,0xB
                 _0xA8:
000054 005e      	.DB  0x5E,0x0
000055 005e      	.DB  0x5E,0x0
000056 005e      	.DB  0x5E,0x0
000057 005e      	.DB  0x5E,0x0
000058 005e      	.DB  0x5E,0x0
000059 0807      	.DB  0x7,0x8
00005a 0a09      	.DB  0x9,0xA
ovf.inc(38): warning: .cseg .db misalignment - padding zero byte
ovf.asm(992): 'ovf.inc' included form here
00005b 000b      	.DB  0xB
                 _0xDF:
00005c 005e      	.DB  0x5E,0x0
00005d 005e      	.DB  0x5E,0x0
00005e 005e      	.DB  0x5E,0x0
00005f 0807      	.DB  0x7,0x8
ovf.inc(44): warning: .cseg .db misalignment - padding zero byte
ovf.asm(992): 'ovf.inc' included form here
000060 0009      	.DB  0x9
                 _0x137:
000061 0000      	.DB  0x0,0x0
000062 0303      	.DB  0x3,0x3
000063 0401      	.DB  0x1,0x4
000064 056e      	.DB  LOW(_310+0x00),HIGH(_310+0x00)
000065 057f      	.DB  LOW(_310+0x11),HIGH(_310+0x11)
000066 0590      	.DB  LOW(_310+0x22),HIGH(_310+0x22)
000067 059b      	.DB  LOW(_310+0x2D),HIGH(_310+0x2D)
000068 05a6      	.DB  LOW(_310+0x38),HIGH(_310+0x38)
000069 05b5      	.DB  LOW(_310+0x47),HIGH(_310+0x47)
00006a 0000      	.DB  0x0,0x0
                 __fround_G2:
00006b 0000
00006c 3f00
00006d cccd
00006e 3d4c      	.DB  0x0,0x0,0x0,0x3F,0xCD,0xCC,0x4C,0x3D
00006f d70a
000070 3ba3
000071 126f
000072 3a03      	.DB  0xA,0xD7,0xA3,0x3B,0x6F,0x12,0x3,0x3A
000073 b717
000074 3851
000075 c5ac
000076 36a7      	.DB  0x17,0xB7,0x51,0x38,0xAC,0xC5,0xA7,0x36
000077 37bd
000078 3506      	.DB  0xBD,0x37,0x6,0x35
                 _633:
000079 0000      	.DW  0x00
                 _0:
00007a 7525
00007b 7525
00007c 7525
00007d 252e      	.DB  0x25,0x75,0x25,0x75,0x25,0x75,0x2E,0x25
00007e 0075
00007f 7525
000080 7525
000081 7525      	.DB  0x75,0x0,0x25,0x75,0x25,0x75,0x25,0x75
000082 7525
000083 7525
000084 2000
000085 4553      	.DB  0x25,0x75,0x25,0x75,0x0,0x20,0x53,0x45
000086 2054
000087 7846
000088 3c20
000089 3320      	.DB  0x54,0x20,0x46,0x78,0x20,0x3C,0x20,0x33
00008a 3030
00008b 7a48
00008c 0020
00008d 5320      	.DB  0x30,0x30,0x48,0x7A,0x20,0x0,0x20,0x53
00008e 5445
00008f 4620
000090 2078
000091 203e      	.DB  0x45,0x54,0x20,0x46,0x78,0x20,0x3E,0x20
000092 3033
000093 4830
000094 207a
000095 5300      	.DB  0x33,0x30,0x30,0x48,0x7A,0x20,0x0,0x53
000096 5641
000097 2045
000098 4553
000099 5554      	.DB  0x41,0x56,0x45,0x20,0x53,0x45,0x54,0x55
00009a 0050
00009b 4153
00009c 4556
00009d 5320      	.DB  0x50,0x0,0x53,0x41,0x56,0x45,0x20,0x53
00009e 4550
00009f 4445
0000a0 5300
0000a1 5445      	.DB  0x50,0x45,0x45,0x44,0x0,0x53,0x45,0x54
0000a2 5420
0000a3 5345
0000a4 2054
0000a5 5053      	.DB  0x20,0x54,0x45,0x53,0x54,0x20,0x53,0x50
0000a6 4545
0000a7 0044
0000a8 4554
0000a9 5453      	.DB  0x45,0x45,0x44,0x0,0x54,0x45,0x53,0x54
0000aa 5220
0000ab 4247
0000ac 2a00
0000ad 2a2a      	.DB  0x20,0x52,0x47,0x42,0x0,0x2A,0x2A,0x2A
0000ae 2a2a
0000af 4d20
0000b0 4e45
0000b1 2055      	.DB  0x2A,0x2A,0x20,0x4D,0x45,0x4E,0x55,0x20
0000b2 2a2a
0000b3 2a2a
0000b4 002a
0000b5 4620      	.DB  0x2A,0x2A,0x2A,0x2A,0x2A,0x0,0x20,0x46
0000b6 7770
0000b7 3d6d
0000b8 5300
0000b9 7661      	.DB  0x70,0x77,0x6D,0x3D,0x0,0x53,0x61,0x76
0000ba 2065
0000bb 4b4f
0000bc 0021
0000bd 6153      	.DB  0x65,0x20,0x4F,0x4B,0x21,0x0,0x53,0x61
0000be 6576
0000bf 7320
0000c0 6570
0000c1 6465      	.DB  0x76,0x65,0x20,0x73,0x70,0x65,0x65,0x64
0000c2 4f20
0000c3 214b
0000c4 2000
0000c5 4544      	.DB  0x20,0x4F,0x4B,0x21,0x0,0x20,0x44,0x45
0000c6 414c
0000c7 3d59
0000c8 5400
0000c9 7365      	.DB  0x4C,0x41,0x59,0x3D,0x0,0x54,0x65,0x73
0000ca 6974
0000cb 676e
0000cc 2e2e
0000cd 2e2e      	.DB  0x74,0x69,0x6E,0x67,0x2E,0x2E,0x2E,0x2E
0000ce 6177
0000cf 7469
0000d0 0021
0000d1 4752      	.DB  0x77,0x61,0x69,0x74,0x21,0x0,0x52,0x47
0000d2 2042
0000d3 5453
0000d4 4952
0000d5 2050      	.DB  0x42,0x20,0x53,0x54,0x52,0x49,0x50,0x20
0000d6 4554
0000d7 5453
0000d8 5245
0000d9 2000      	.DB  0x54,0x45,0x53,0x54,0x45,0x52,0x0,0x20
0000da 2020
0000db 2020
0000dc 2020
0000dd 2020      	.DB  0x20,0x20,0x20,0x20,0x20,0x20,0x20,0x20
0000de 2020
0000df 2020
0000e0 2020
0000e1 0020      	.DB  0x20,0x20,0x20,0x20,0x20,0x20,0x20,0x0
0000e2 2e25
0000e3 6631
0000e4 7a48
0000e5 0020      	.DB  0x25,0x2E,0x31,0x66,0x48,0x7A,0x20,0x0
0000e6 2e25
0000e7 6630
0000e8 7a48
0000e9 0020      	.DB  0x25,0x2E,0x30,0x66,0x48,0x7A,0x20,0x0
0000ea 0054
0000eb 6c25
0000ec 2564
0000ed 5363      	.DB  0x54,0x0,0x25,0x6C,0x64,0x25,0x63,0x53
0000ee 2000
0000ef 2552
0000f0 2575
0000f1 0025      	.DB  0x0,0x20,0x52,0x25,0x75,0x25,0x25,0x0
0000f2 4720
0000f3 7525
0000f4 2525
0000f5 2000      	.DB  0x20,0x47,0x25,0x75,0x25,0x25,0x0,0x20
0000f6 2542
0000f7 2575
0000f8 0025      	.DB  0x42,0x25,0x75,0x25,0x25,0x0
                 
                 __GLOBAL_INI_TBL:
0000f9 0001      	.DW  0x01
0000fa 0004      	.DW  0x04
0000fb 008c      	.DW  _98*2
                 
0000fc 0001      	.DW  0x01
0000fd 000b      	.DW  0x0B
0000fe 008e      	.DW  _99*2
                 
0000ff 0004      	.DW  0x04
000100 052d      	.DW  _fxx
000101 0090      	.DW  _100*2
                 
000102 0002      	.DW  0x02
000103 0539      	.DW  _speed
000104 0094      	.DW  _101*2
                 
000105 0001      	.DW  0x01
000106 000a      	.DW  0x0A
000107 0096      	.DW  _102*2
                 
000108 0001      	.DW  0x01
000109 0551      	.DW  _vref
00010a 0098      	.DW  _103*2
                 
00010b 0001      	.DW  0x01
00010c 0552      	.DW  _od
00010d 009a      	.DW  _104*2
                 
00010e 0011      	.DW  0x11
00010f 056e      	.DW  _310
000110 0109      	.DW  _0*2+0x15
                 
000111 0011      	.DW  0x11
000112 057f      	.DW  _310+0x11
000113 011a      	.DW  _0*2+0x26
                 
000114 000b      	.DW  0x0B
000115 0590      	.DW  _310+0x22
000116 012b      	.DW  _0*2+0x37
                 
000117 000b      	.DW  0x0B
000118 059b      	.DW  _310+0x2D
000119 0136      	.DW  _0*2+0x42
                 
00011a 000f      	.DW  0x0F
00011b 05a6      	.DW  _310+0x38
00011c 0141      	.DW  _0*2+0x4D
                 
00011d 0009      	.DW  0x09
00011e 05b5      	.DW  _310+0x47
00011f 0150      	.DW  _0*2+0x5C
                 
000120 0002      	.DW  0x02
000121 056c      	.DW  _p_S62
000122 00f2      	.DW  _633*2
                 
000123 0000      	.DW  0
                 _0x29D:
                 
                 __RESET:
000124 94f8      	CLI
000125 27ee      	CLR  R30
000126 bbec      	OUT  EECR,R30
                 
                 ;INTERRUPT VECTORS ARE PLACED
                 ;AT THE START OF FLASH
000127 e0f1      	LDI  R31,1
000128 bff5      	OUT  MCUCR,R31
000129 bfe5      	OUT  MCUCR,R30
00012a 93e0 006c 	STS  XMCRB,R30
                 
                 ;DISABLE WATCHDOG
00012c e1f8      	LDI  R31,0x18
00012d bdf1      	OUT  WDTCR,R31
00012e bde1      	OUT  WDTCR,R30
                 
                 ;CLEAR R2-R14
00012f e08d      	LDI  R24,13
000130 e0a2      	LDI  R26,2
000131 27bb      	CLR  R27
                 __CLEAR_REG:
000132 93ed      	ST   X+,R30
000133 958a      	DEC  R24
000134 f7e9      	BRNE __CLEAR_REG
                 
                 ;CLEAR SRAM
000135 e080      	LDI  R24,LOW(0x1000)
000136 e190      	LDI  R25,HIGH(0x1000)
000137 e0a0      	LDI  R26,LOW(0x100)
000138 e0b1      	LDI  R27,HIGH(0x100)
                 __CLEAR_SRAM:
000139 93ed      	ST   X+,R30
00013a 9701      	SBIW R24,1
00013b f7e9      	BRNE __CLEAR_SRAM
                 
00013c bf8b      	OUT  RAMPZ,R24
                 
                 ;GLOBAL VARIABLES INITIALIZATION
00013d efe2      	LDI  R30,LOW(__GLOBAL_INI_TBL*2)
00013e e0f1      	LDI  R31,HIGH(__GLOBAL_INI_TBL*2)
                 __GLOBAL_INI_NEXT:
00013f 9185      	LPM  R24,Z+
000140 9195      	LPM  R25,Z+
000141 9700      	SBIW R24,0
000142 f061      	BREQ __GLOBAL_INI_END
000143 91a5      	LPM  R26,Z+
000144 91b5      	LPM  R27,Z+
000145 9005      	LPM  R0,Z+
000146 9015      	LPM  R1,Z+
000147 01bf      	MOVW R22,R30
000148 01f0      	MOVW R30,R0
                 __GLOBAL_INI_LOOP:
000149 9005      	LPM  R0,Z+
00014a 920d      	ST   X+,R0
00014b 9701      	SBIW R24,1
00014c f7e1      	BRNE __GLOBAL_INI_LOOP
00014d 01fb      	MOVW R30,R22
00014e cff0      	RJMP __GLOBAL_INI_NEXT
                 __GLOBAL_INI_END:
                 
                 ;STACK POINTER INITIALIZATION
00014f efef      	LDI  R30,LOW(0x10FF)
000150 bfed      	OUT  SPL,R30
000151 e1e0      	LDI  R30,HIGH(0x10FF)
000152 bfee      	OUT  SPH,R30
                 
                 ;DATA STACK POINTER INITIALIZATION
000153 e0c0      	LDI  R28,LOW(0x500)
000154 e0d5      	LDI  R29,HIGH(0x500)
                 
000155 940c 0808 	JMP  _main
                 
                 	.ESEG
                 	.ORG 0
                 
                 	.DSEG
                 	.ORG 0x500
                 ;       1 /*****************************************************
                 ;       2 CodeWizardAVR V1.25.8 Professional
                 ;       3 
                 ;       4 Project :  PWM_LED & ADC
                 ;       5 Chip type           : ATmega128
                 ;       6 Clock frequency     : 3,680000 MHz
                 ;       7 *****************************************************/
                 ;       8 
                 ;       9 #include <mega128.h>
                 ;      10 	#ifndef __SLEEP_DEFINED__
                 	#ifndef __SLEEP_DEFINED__
                 ;      11 	#define __SLEEP_DEFINED__
                 	#define __SLEEP_DEFINED__
                 ;      12 	.EQU __se_bit=0x20
                 	.EQU __se_bit=0x20
                 ;      13 	.EQU __sm_mask=0x1C
                 	.EQU __sm_mask=0x1C
                 ;      14 	.EQU __sm_powerdown=0x10
                 	.EQU __sm_powerdown=0x10
                 ;      15 	.EQU __sm_powersave=0x18
                 	.EQU __sm_powersave=0x18
                 ;      16 	.EQU __sm_standby=0x14
                 	.EQU __sm_standby=0x14
                 ;      17 	.EQU __sm_ext_standby=0x1C
                 	.EQU __sm_ext_standby=0x1C
                 ;      18 	.EQU __sm_adc_noise_red=0x08
                 	.EQU __sm_adc_noise_red=0x08
                 ;      19 	.SET power_ctrl_reg=mcucr
                 	.SET power_ctrl_reg=mcucr
                 ;      20 	#endif
                 	#endif
                 ;      21 #include <stdio.h>
                 ;      22 #include <delay.h>
                 ;      23 #include "mylcd.c"     // моя бібліотека для LCD
                 ;      24 #pragma used+
                 ;      25 
                 ;      26  //прототипы функций
                 ;      27  //предварительное объявление
                 ;      28 
                 ;      29 
                 ;      30 #define RS PORTC.5     //  LCD
                 ;      31 #define E  PORTC.6     //  LCD
                 ;      32 
                 ;      33 #define D4 PORTA.0     //  LCD  data
                 ;      34 #define D5 PORTA.1     //  LCD  data
                 ;      35 #define D6 PORTA.2     //  LCD  data
                 ;      36 #define D7 PORTA.3     //  LCD  data
                 ;      37 
                 ;      38  void lcd_cmd (unsigned char c);
                 ;      39  void lcd_strobe (void);
                 ;      40  void lcd_write (unsigned char c);
                 ;      41  void lcd_putchar (unsigned char c);
                 ;      42  void lcd_cmd (unsigned char c);
                 ;      43  void lcd_clear (void);
                 ;      44  void lcd_putsf(unsigned char __flash *str);
                 ;      45  void lcd_puts(unsigned char *str);
                 ;      46  void lcd_gotoxy(unsigned char x, unsigned char y);
                 ;      47  void lcd_init (void);
                 ;      48  void cursor_on (void);
                 ;      49  void cursor_off (void);
                 ;      50 
                 ;      51   //реализация функций ( определение )
                 ;      52  //функции можно распологать и делать вызовы из других функций в любом порядке
                 ;      53  void lcd_strobe (void) //Функция стробирования на на выводе E
                 ;      54 {
                 
                 	.CSEG
                 _lcd_strobe:
                 ;      55 E=1;
000157 9aae      	SBI  0x15,6
                 ;      56 delay_ms(2);
000158 e0e2      	LDI  R30,LOW(2)
000159 e0f0      	LDI  R31,HIGH(2)
00015a 940e 0dd1 	CALL SUBOPT_0x0
                 ;      57 E=0;
00015c 98ae      	CBI  0x15,6
                 ;      58 }
00015d 9508      	RET
                 ;      59 
                 ;      60 //Функция посылки кода на выводы D4-D7, байт делется на две части,
                 ;      61 //сначала передается старшая тетрада, потом - младшая
                 ;      62 void lcd_write (unsigned char c){
                 _lcd_write:
                 ;      63 if(c&0x10) D4=1; else D4=0;
                 ;	c -> Y+0
00015e 81e8      	LD   R30,Y
00015f 71e0      	ANDI R30,LOW(0x10)
000160 f011      	BREQ _0x7
000161 9ad8      	SBI  0x1B,0
000162 c001      	RJMP _0xA
                 _0x7:
000163 98d8      	CBI  0x1B,0
                 ;      64 if(c&0x20) D5=1; else D5=0;
                 _0xA:
000164 81e8      	LD   R30,Y
000165 72e0      	ANDI R30,LOW(0x20)
000166 f011      	BREQ _0xD
000167 9ad9      	SBI  0x1B,1
000168 c001      	RJMP _0x10
                 _0xD:
000169 98d9      	CBI  0x1B,1
                 ;      65 if(c&0x40) D6=1; else D6=0;
                 _0x10:
00016a 81e8      	LD   R30,Y
00016b 74e0      	ANDI R30,LOW(0x40)
00016c f011      	BREQ _0x13
00016d 9ada      	SBI  0x1B,2
00016e c001      	RJMP _0x16
                 _0x13:
00016f 98da      	CBI  0x1B,2
                 ;      66 if(c&0x80) D7=1; else D7=0;
                 _0x16:
000170 81e8      	LD   R30,Y
000171 78e0      	ANDI R30,LOW(0x80)
000172 f011      	BREQ _0x19
000173 9adb      	SBI  0x1B,3
000174 c001      	RJMP _0x1C
                 _0x19:
000175 98db      	CBI  0x1B,3
                 ;      67 lcd_strobe();
                 _0x1C:
000176 940e 0dd5 	CALL SUBOPT_0x1
                 ;      68 delay_ms(5);
                 ;      69 if(c&0x1) D4=1; else D4=0;
000178 81e8      	LD   R30,Y
000179 70e1      	ANDI R30,LOW(0x1)
00017a f011      	BREQ _0x1F
00017b 9ad8      	SBI  0x1B,0
00017c c001      	RJMP _0x22
                 _0x1F:
00017d 98d8      	CBI  0x1B,0
                 ;      70 if(c&0x2) D5=1; else D5=0;
                 _0x22:
00017e 81e8      	LD   R30,Y
00017f 70e2      	ANDI R30,LOW(0x2)
000180 f011      	BREQ _0x25
000181 9ad9      	SBI  0x1B,1
000182 c001      	RJMP _0x28
                 _0x25:
000183 98d9      	CBI  0x1B,1
                 ;      71 if(c&0x4) D6=1; else D6=0;
                 _0x28:
000184 81e8      	LD   R30,Y
000185 70e4      	ANDI R30,LOW(0x4)
000186 f011      	BREQ _0x2B
000187 9ada      	SBI  0x1B,2
000188 c001      	RJMP _0x2E
                 _0x2B:
000189 98da      	CBI  0x1B,2
                 ;      72 if(c&0x8) D7=1; else D7=0;
                 _0x2E:
00018a 81e8      	LD   R30,Y
00018b 70e8      	ANDI R30,LOW(0x8)
00018c f011      	BREQ _0x31
00018d 9adb      	SBI  0x1B,3
00018e c001      	RJMP _0x34
                 _0x31:
00018f 98db      	CBI  0x1B,3
                 ;      73 lcd_strobe();
                 _0x34:
000190 940e 0dd5 	CALL SUBOPT_0x1
                 ;      74 delay_ms(5);
                 ;      75 }
000192 c0ca      	RJMP _0x284
                 ;      76 
                 ;      77 void lcd_putchar (unsigned char c){
                 _lcd_putchar:
                 ;      78 RS=1;
                 ;	c -> Y+0
000193 9aad      	SBI  0x15,5
                 ;      79 lcd_write(c);
000194 81e8      	LD   R30,Y
000195 93ea      	ST   -Y,R30
000196 940e 015e 	CALL _lcd_write
                 ;      80 }
000198 c0c4      	RJMP _0x284
                 ;      81 
                 ;      82 void lcd_cmd (unsigned char c){
                 _lcd_cmd:
                 ;      83 RS=0;
                 ;	c -> Y+0
000199 98ad      	CBI  0x15,5
                 ;      84 lcd_write(c);
00019a 81e8      	LD   R30,Y
00019b 93ea      	ST   -Y,R30
00019c 940e 015e 	CALL _lcd_write
                 ;      85 }
00019e c0be      	RJMP _0x284
                 ;      86 
                 ;      87 void lcd_clear (void){
                 _lcd_clear:
                 ;      88 RS=0;
00019f 98ad      	CBI  0x15,5
                 ;      89 lcd_write(0x01);
0001a0 e0e1      	LDI  R30,LOW(1)
0001a1 93ea      	ST   -Y,R30
0001a2 940e 015e 	CALL _lcd_write
                 ;      90 delay_ms(5);
0001a4 940e 0dda 	CALL SUBOPT_0x2
                 ;      91 }
0001a6 9508      	RET
                 ;      92 
                 ;      93 //Вивід на LCD info з FLASH-памяті
                 ;      94 void lcd_putsf(unsigned char __flash *str)
                 ;      95 {
                 _lcd_putsf:
                 ;      96 unsigned char Count=0;
                 ;      97 
                 ;      98 while (str[Count]!=0x00)
0001a7 931a      	ST   -Y,R17
                 ;	*str -> Y+1
                 ;	Count -> R17
0001a8 e010      	LDI  R17,0
                 _0x3D:
0001a9 940e 0ddd 	CALL SUBOPT_0x3
0001ab 30e0      	CPI  R30,0
0001ac f039      	BREQ _0x3F
                 ;      99   {
                 ;     100   lcd_putchar(str[Count]);
0001ad 940e 0ddd 	CALL SUBOPT_0x3
0001af 93ea      	ST   -Y,R30
0001b0 940e 0193 	CALL _lcd_putchar
                 ;     101   Count++;
0001b2 5f1f      	SUBI R17,-1
                 ;     102   }
0001b3 cff5      	RJMP _0x3D
                 _0x3F:
                 ;     103 }
0001b4 8118      	LDD  R17,Y+0
0001b5 c01b      	RJMP _0x285
                 ;     104 
                 ;     105 void lcd_puts(unsigned char *str)
                 ;     106 {
                 _lcd_puts:
                 ;     107 unsigned char Count=0;
                 ;     108 
                 ;     109 while (str[Count]!=0x00)
0001b6 931a      	ST   -Y,R17
                 ;	*str -> Y+1
                 ;	Count -> R17
0001b7 e010      	LDI  R17,0
                 _0x40:
0001b8 940e 0de5 	CALL SUBOPT_0x4
0001ba 30e0      	CPI  R30,0
0001bb f039      	BREQ _0x42
                 ;     110   {
                 ;     111   lcd_putchar(str[Count]);
0001bc 940e 0de5 	CALL SUBOPT_0x4
0001be 93ea      	ST   -Y,R30
0001bf 940e 0193 	CALL _lcd_putchar
                 ;     112   Count++;
0001c1 5f1f      	SUBI R17,-1
                 ;     113   }
0001c2 cff5      	RJMP _0x40
                 _0x42:
                 ;     114 }
0001c3 8118      	LDD  R17,Y+0
0001c4 c00c      	RJMP _0x285
                 ;     115 
                 ;     116 
                 ;     117 void lcd_gotoxy(unsigned char x, unsigned char y)
                 ;     118 {
                 _lcd_gotoxy:
                 ;     119 unsigned char Temp;
                 ;     120 
                 ;     121    Temp=0x80;
0001c5 931a      	ST   -Y,R17
                 ;	x -> Y+2
                 ;	y -> Y+1
                 ;	Temp -> R17
0001c6 e810      	LDI  R17,LOW(128)
                 ;     122    if(y==1) Temp=0xc0;
0001c7 81a9      	LDD  R26,Y+1
0001c8 30a1      	CPI  R26,LOW(0x1)
0001c9 f409      	BRNE _0x43
0001ca ec10      	LDI  R17,LOW(192)
                 ;     123    lcd_cmd (Temp+x);
                 _0x43:
0001cb 81ea      	LDD  R30,Y+2
0001cc 0fe1      	ADD  R30,R17
0001cd 93ea      	ST   -Y,R30
0001ce 940e 0199 	CALL _lcd_cmd
                 ;     124 }
0001d0 8118      	LDD  R17,Y+0
                 _0x285:
0001d1 9623      	ADIW R28,3
0001d2 9508      	RET
                 ;     125 
                 ;     126 void lcd_init (void){
                 _lcd_init:
                 ;     127 //Инициализация диспелея в 4-х битовом режимею. Три раза выводим код 0010.
                 ;     128 delay_ms(25);//Выдержуем паузу не менее 15мс
0001d3 e1e9      	LDI  R30,LOW(25)
0001d4 e0f0      	LDI  R31,HIGH(25)
0001d5 940e 0dd1 	CALL SUBOPT_0x0
                 ;     129 RS=0;//Передача команды
0001d7 98ad      	CBI  0x15,5
                 ;     130 D7=0;
0001d8 940e 0dec 	CALL SUBOPT_0x5
                 ;     131 D6=0;
                 ;     132 D5=1;
                 ;     133 D4=0;
                 ;     134 lcd_strobe();
                 ;     135 delay_ms(5);
                 ;     136 D7=0;
0001da 940e 0dec 	CALL SUBOPT_0x5
                 ;     137 D6=0;
                 ;     138 D5=1;
                 ;     139 D4=0;
                 ;     140 lcd_strobe();
                 ;     141 delay_ms(5);
                 ;     142 D7=0;
0001dc 940e 0dec 	CALL SUBOPT_0x5
                 ;     143 D6=0;
                 ;     144 D5=1;
                 ;     145 D4=0;
                 ;     146 lcd_strobe();
                 ;     147 delay_ms(5);
                 ;     148 lcd_cmd(0x28);
0001de e2e8      	LDI  R30,LOW(40)
0001df 93ea      	ST   -Y,R30
0001e0 940e 0199 	CALL _lcd_cmd
                 ;     149 delay_ms(5);
0001e2 940e 0dda 	CALL SUBOPT_0x2
                 ;     150 lcd_cmd(0x01);
0001e4 e0e1      	LDI  R30,LOW(1)
0001e5 93ea      	ST   -Y,R30
0001e6 940e 0199 	CALL _lcd_cmd
                 ;     151 delay_ms(5);
0001e8 940e 0dda 	CALL SUBOPT_0x2
                 ;     152 lcd_cmd(0x0C);
0001ea e0ec      	LDI  R30,LOW(12)
0001eb 93ea      	ST   -Y,R30
0001ec 940e 0199 	CALL _lcd_cmd
                 ;     153 }
0001ee 9508      	RET
                 ;     154 
                 ;     155 void   cursor_on (void)
                 ;     156  {
                 ;     157    RS=0;
                 ;     158    lcd_cmd(0x0E); // курсор!
                 ;     159  }
                 ;     160 
                 ;     161 void cursor_off (void)
                 ;     162  {
                 ;     163     RS=0;
                 ;     164     lcd_cmd(0x0C);
                 ;     165  }
                 ;     166 
                 ;     167 
                 ;     168 
                 ;     169  #pragma used-
                 ;     170 
                 ;     171 #define SYS_FREQ        3680000UL    // тактова частота 3.68 MHz
                 ;     172 
                 ;     173 //налаштування АЦП
                 ;     174 #define ADC_VREF_TYPE  0x00   //  Bit 5 - ADLAR=0 - 10 біт  використовуємо ADCH і ADCL
                 ;     175 #define REFS0   6             // selector Vref  - вибрати джерело опорної напруги
                 ;     176 #define REFS1   7             // selector Vref
                 ;     177 
                 ;     178 //кнопки  MENU/ENTER, SELECT+, SELECT-, ESC/EXIT
                 ;     179 #define BTNS_PORT              PORTF    //  for buttons on  PORTF
                 ;     180 #define BTNS_PORT_DDR          DDRF     //  for  buttons on PORTF
                 ;     181 #define MENU_ENTER_BTN       3          //  kn-menu
                 ;     182 #define SELECT_PLUS_BTN      4          //  kn- MAX
                 ;     183 #define SELECT_MINUS_BTN     1          //  kn - min
                 ;     184 #define ESC_BTN              2          //  kn -esc
                 ;     185 #define CNTREPEAT            300        //  утримання клавіш
                 ;     186 
                 ;     187 // Declare your global variables here
                 ;     188 unsigned char k, PREV_PINF = 0xff;                         // menu 1111 1111
                 
                 	.DSEG
                 ;     189 unsigned int gSelectPlusCounter=0, gSelectMinusCounter=0;  // menu cелектор
                 ;     190 
                 ;     191 volatile  unsigned int  hour = 0;    // частота встановлена ціле
                 _hour:
000500           	.BYTE 0x2
                 ;     192 volatile  unsigned int start_p=0;    // встановлена частота
                 _start_p:
000502           	.BYTE 0x2
                 ;     193 
                 ;     194 // eeprom float rom_fxx;      //  частота з ROM
                 ;     195 eeprom float   rom_fxx;      //  частота з ROM
                 
                 	.ESEG
                 _rom_fxx:
000000 00
000001 00
000002 00
000003 00        	.DB  LOW(0x0),HIGH(0x0),BYTE3(0x0),BYTE4(0x0)
                 ;     196 eeprom unsigned int   rom_speed;  //  delay з ROM - чим більше значення тим повільніше тестування
                 _rom_speed:
000004 00 00     	.DW  0x0
                 ;     197 
                 ;     198 
                 ;     199 
                 ;     200 char  buffer[33];               // for LCD convertion
                 
                 	.DSEG
                 _buffer:
000504           	.BYTE 0x21
                 ;     201 char N=1; // prescaler
                 ;     202 volatile unsigned long int  fx=0, tx=0;  // частота і період
                 _fx:
000525           	.BYTE 0x4
                 _tx:
000529           	.BYTE 0x4
                 ;     203 volatile float  fxx=22.2;  // опорна частота- можна встановити від 1... 29999 Гц
                 _fxx:
00052d           	.BYTE 0x4
                 ;     204 volatile unsigned char  redpwml=0,redpwmh=0, greenpwml=0,greenpwmh=0, bluepwml=0,bluepwmh=0;  // pwm , pwm_val
                 _redpwml:
000531           	.BYTE 0x1
                 _redpwmh:
000532           	.BYTE 0x1
                 _greenpwml:
000533           	.BYTE 0x1
                 _greenpwmh:
000534           	.BYTE 0x1
                 _bluepwml:
000535           	.BYTE 0x1
                 _bluepwmh:
000536           	.BYTE 0x1
                 ;     205 volatile unsigned int ICR3top=0;
                 _ICR3top:
000537           	.BYTE 0x2
                 ;     206 volatile unsigned int speed=10;   // затримка в ms - чим більше значення тим повільніше тестування
                 _speed:
000539           	.BYTE 0x2
                 ;     207 
                 ;     208 
                 ;     209 unsigned int ICR3, RedPwm, GreenPwm, BluePwm ;
                 _RedPwm:
00053b           	.BYTE 0x2
                 _GreenPwm:
00053d           	.BYTE 0x2
                 _BluePwm:
00053f           	.BYTE 0x2
                 ;     210 unsigned int Dred, Dgreen, Dblue;  // duty = red green blue
                 _Dred:
000541           	.BYTE 0x2
                 _Dgreen:
000543           	.BYTE 0x2
                 _Dblue:
000545           	.BYTE 0x2
                 ;     211 
                 ;     212 unsigned int adc_in;          // змінна для ADC - код
                 _adc_in:
000547           	.BYTE 0x2
                 ;     213 float indication=0, tinf=0;
                 _indication:
000549           	.BYTE 0x4
                 _tinf:
00054d           	.BYTE 0x4
                 ;     214 char ADC_INPUT = 0x05;       // порт з якого читаємо Analog signal = PF5(ADC5)
                 ;     215 char vref=5;                 // опорна напруга
                 _vref:
000551           	.BYTE 0x1
                 ;     216 char od='m'  ;
                 _od:
000552           	.BYTE 0x1
                 ;     217 
                 ;     218 volatile unsigned char value[5] = {0, 0, 0, 0, 0};
                 _value:
000553           	.BYTE 0x5
                 ;     219 
                 ;     220 volatile unsigned int A0,A1,A2,A3,A4;
                 _A0:
000558           	.BYTE 0x2
                 _A1:
00055a           	.BYTE 0x2
                 _A2:
00055c           	.BYTE 0x2
                 _A3:
00055e           	.BYTE 0x2
                 _A4:
000560           	.BYTE 0x2
                 ;     221 volatile unsigned int V0,V1,V2,V3,V4;
                 _V0:
000562           	.BYTE 0x2
                 _V1:
000564           	.BYTE 0x2
                 _V2:
000566           	.BYTE 0x2
                 _V3:
000568           	.BYTE 0x2
                 _V4:
00056a           	.BYTE 0x2
                 ;     222 
                 ;     223 
                 ;     224 
                 ;     225 //  key - функція  біжучий статус клавіші
                 ;     226   unsigned char get_key_status(unsigned char key)    //  key - номер клавіші  на порту
                 ;     227 {
                 
                 	.CSEG
                 _get_key_status:
                 ;     228    return (!(PINF & (1<<key)));
                 ;	key -> Y+0
0001ef b010      	IN   R1,0
0001f0 81e8      	LD   R30,Y
0001f1 e0a1      	LDI  R26,LOW(1)
0001f2 940e 11c9 	CALL __LSLB12
0001f4 21e1      	AND  R30,R1
0001f5 940e 11e1 	CALL __LNEGB1
0001f7 c065      	RJMP _0x284
                 ;     229 }
                 ;     230 
                 ;     231 
                 ;     232 // функція попередній статус клавіші
                 ;     233 unsigned char get_prev_key_status(unsigned char key)  // key - номер клавіші  на порту
                 ;     234 {
                 _get_prev_key_status:
                 ;     235   return (!(PREV_PINF & (1<<key)));
                 ;	key -> Y+0
0001f8 81e8      	LD   R30,Y
0001f9 e0a1      	LDI  R26,LOW(1)
0001fa 940e 11c9 	CALL __LSLB12
0001fc 21e4      	AND  R30,R4
0001fd 940e 11e1 	CALL __LNEGB1
0001ff c05d      	RJMP _0x284
                 ;     236 }
                 ;     237 
                 ;     238 
                 ;     239 // Timer 2 overflow interrupt service routine  використовується для меню!!!
                 ;     240 interrupt [TIM2_OVF] void timer2_ovf_isr(void)
                 ;     241 {
                 _timer2_ovf_isr:
000200 920a      	ST   -Y,R0
000201 921a      	ST   -Y,R1
000202 92fa      	ST   -Y,R15
000203 936a      	ST   -Y,R22
000204 937a      	ST   -Y,R23
000205 938a      	ST   -Y,R24
000206 939a      	ST   -Y,R25
000207 93aa      	ST   -Y,R26
000208 93ba      	ST   -Y,R27
000209 93ea      	ST   -Y,R30
00020a 93fa      	ST   -Y,R31
00020b b7ef      	IN   R30,SREG
00020c 93ea      	ST   -Y,R30
                 ;     242     if ( get_key_status(SELECT_PLUS_BTN) )  // аналіз натискання клавіші SELECT+
00020d 940e 0df1 	CALL SUBOPT_0x6
00020f f049      	BREQ _0x69
                 ;     243       {
                 ;     244          if (gSelectPlusCounter < CNTREPEAT)
000210 e2ec      	LDI  R30,LOW(300)
000211 e0f1      	LDI  R31,HIGH(300)
000212 166e      	CP   R6,R30
000213 067f      	CPC  R7,R31
000214 f418      	BRSH _0x6A
                 ;     245             gSelectPlusCounter++;
000215 01f3      	MOVW R30,R6
000216 9631      	ADIW R30,1
000217 013f      	MOVW R6,R30
                 ;     246        }
                 _0x6A:
                 ;     247     else  gSelectPlusCounter = 0;
000218 c002      	RJMP _0x6B
                 _0x69:
000219 2466      	CLR  R6
00021a 2477      	CLR  R7
                 ;     248 
                 ;     249   if ( get_key_status(SELECT_MINUS_BTN) )  // аналіз натискання клавіші SELECT-
                 _0x6B:
00021b 940e 0df7 	CALL SUBOPT_0x7
00021d f049      	BREQ _0x6C
                 ;     250   {
                 ;     251     if (gSelectMinusCounter < CNTREPEAT)
00021e e2ec      	LDI  R30,LOW(300)
00021f e0f1      	LDI  R31,HIGH(300)
000220 168e      	CP   R8,R30
000221 069f      	CPC  R9,R31
000222 f418      	BRSH _0x6D
                 ;     252         gSelectMinusCounter++;
000223 01f4      	MOVW R30,R8
000224 9631      	ADIW R30,1
000225 014f      	MOVW R8,R30
                 ;     253   }
                 _0x6D:
                 ;     254   else gSelectMinusCounter = 0;
000226 c002      	RJMP _0x6E
                 _0x6C:
000227 2488      	CLR  R8
000228 2499      	CLR  R9
                 ;     255 }
                 _0x6E:
000229 91e9      	LD   R30,Y+
00022a bfef      	OUT  SREG,R30
00022b 91f9      	LD   R31,Y+
00022c 91e9      	LD   R30,Y+
00022d 91b9      	LD   R27,Y+
00022e 91a9      	LD   R26,Y+
00022f 9199      	LD   R25,Y+
000230 9189      	LD   R24,Y+
000231 9179      	LD   R23,Y+
000232 9169      	LD   R22,Y+
000233 90f9      	LD   R15,Y+
000234 9019      	LD   R1,Y+
000235 9009      	LD   R0,Y+
000236 9518      	RETI
                 ;     256 
                 ;     257 
                 ;     258 // Timer 3 overflow interrupt service routine
                 ;     259 interrupt [TIM3_OVF] void timer3_ovf_isr(void)
                 ;     260 {
                 _timer3_ovf_isr:
000237 93ea      	ST   -Y,R30
                 ;     261    OCR3AH=redpwmh;  OCR3AL=redpwml;     // RED  0E 5F = for 1000 hz icr3 = top
000238 91e0 0532 	LDS  R30,_redpwmh
00023a 93e0 0087 	STS  135,R30
00023c 91e0 0531 	LDS  R30,_redpwml
00023e 93e0 0086 	STS  134,R30
                 ;     262    OCR3BH=greenpwmh;  OCR3BL=greenpwml;     // GREEN
000240 91e0 0534 	LDS  R30,_greenpwmh
000242 93e0 0085 	STS  133,R30
000244 91e0 0533 	LDS  R30,_greenpwml
000246 93e0 0084 	STS  132,R30
                 ;     263    OCR3CH=bluepwmh;  OCR3CL=bluepwml;     // BLUE  72F
000248 91e0 0536 	LDS  R30,_bluepwmh
00024a 93e0 0083 	STS  131,R30
00024c 91e0 0535 	LDS  R30,_bluepwml
00024e 93e0 0082 	STS  130,R30
                 ;     264  }
000250 91e9      	LD   R30,Y+
000251 9518      	RETI
                 ;     265 
                 ;     266  // Read the AD conversion result
                 ;     267 unsigned int read_adc(unsigned char adc_input)
                 ;     268 {
                 _read_adc:
                 ;     269    ADMUX=adc_input | (ADC_VREF_TYPE & 0xff);
                 ;	adc_input -> Y+0
000252 81e8      	LD   R30,Y
000253 b9e7      	OUT  0x7,R30
                 ;     270    delay_us(10);      // Delay needed for the stabilization of the ADC input voltage
000254 e08c
000255 958a
000256 f7f1      	__DELAY_USB 12
                 ;     271                       // Start the AD conversion
                 ;     272   ADCSRA|=0x40;
000257 9a36      	SBI  0x6,6
                 ;     273   // Wait for the AD conversion to complete
                 ;     274   while ((ADCSRA & 0x10)==0);
                 _0x6F:
000258 9b34      	SBIS 0x6,4
000259 cffe      	RJMP _0x6F
                 ;     275   ADCSRA|=0x10;
00025a 9a34      	SBI  0x6,4
                 ;     276    return ADCW;
00025b b1e4      	IN   R30,0x4
00025c b1f5      	IN   R31,0x4+1
                 _0x284:
00025d 9621      	ADIW R28,1
00025e 9508      	RET
                 ;     277 }
                 ;     278 
                 ;     279 
                 ;     280  void zvyk(void)
                 ;     281  {
                 _zvyk:
                 ;     282   DDRB.5=1;                  // управління звуком on/off
00025f 9abd      	SBI  0x17,5
                 ;     283   delay_ms(200);
000260 ece8      	LDI  R30,LOW(200)
000261 e0f0      	LDI  R31,HIGH(200)
000262 940e 0dd1 	CALL SUBOPT_0x0
                 ;     284   DDRB.5=0;
000264 98bd      	CBI  0x17,5
                 ;     285   delay_ms(200);
000265 ece8      	LDI  R30,LOW(200)
000266 e0f0      	LDI  R31,HIGH(200)
000267 940e 0dd1 	CALL SUBOPT_0x0
                 ;     286  }
000269 9508      	RET
                 ;     287 
                 ;     288 
                 ;     289 
                 ;     290 
                 ;     291 
                 ;     292 
                 ;     293 
                 ;     294 
                 ;     295 // функція меню -   set частоту до 300 гц
                 ;     296 unsigned int set_page(void)
                 ;     297 {
                 _set_page:
                 ;     298   unsigned char  x[4] = { 7, 8, 9, 11 }, i = 0;            // позиції символів число з 4 значень
                 ;     299   char time_chars[4][2] = {"^", "^", "^", "^"};  // нижній курсор - стрілка чотири позиції
                 ;     300 
                 ;     301   lcd_gotoxy(x[0],1);
00026a 972c      	SBIW R28,12
00026b e08c      	LDI  R24,12
00026c e0a0      	LDI  R26,LOW(0)
00026d e0b0      	LDI  R27,HIGH(0)
00026e e9ec      	LDI  R30,LOW(_0x76*2)
00026f e0f0      	LDI  R31,HIGH(_0x76*2)
000270 940e 1473 	CALL __INITLOCB
000272 931a      	ST   -Y,R17
                 ;	x -> Y+9
                 ;	i -> R17
                 ;	time_chars -> Y+1
000273 e010      	LDI  R17,0
000274 85e9      	LDD  R30,Y+9
000275 940e 0dfd 	CALL SUBOPT_0x8
                 ;     302   lcd_puts(time_chars[0]);
000277 940e 0e02 	CALL SUBOPT_0x9
                 ;     303 
                 ;     304   if (hour>3000) {hour=2999;};                              //  перше "^"  - курсор нижній
000279 940e 0e08 	CALL SUBOPT_0xA
00027b 3ba9      	CPI  R26,LOW(0xBB9)
00027c e0eb      	LDI  R30,HIGH(0xBB9)
00027d 07be      	CPC  R27,R30
00027e f010      	BRLO _0x77
00027f 940e 0e0d 	CALL SUBOPT_0xB
                 _0x77:
                 ;     305 
                 ;     306 
                 ;     307    A0 = hour;        V0=A0/1000;
000281 940e 0e14 	CALL SUBOPT_0xC
000283 940e 0e19 	CALL SUBOPT_0xD
000285 940e 0e22 	CALL SUBOPT_0xE
000287 940e 0e27 	CALL SUBOPT_0xF
                 ;     308    value[0]=(unsigned char)(A0/1000); // старший-перший символ зліва
000289 940e 0e22 	CALL SUBOPT_0xE
00028b 940e 0e30 	CALL SUBOPT_0x10
                 ;     309    A1=A0-V0*1000;   V1= (A1/100);
00028d eee8      	LDI  R30,LOW(1000)
00028e e0f3      	LDI  R31,HIGH(1000)
00028f 940e 0e37 	CALL SUBOPT_0x11
000291 940e 0e44 	CALL SUBOPT_0x12
000293 940e 0e49 	CALL SUBOPT_0x13
                 ;     310    value[1]=(unsigned char)(A1/100);  // другий символ зліва
000295 940e 0e44 	CALL SUBOPT_0x12
000297 940e 0e52 	CALL SUBOPT_0x14
                 ;     311    A2=A1-V1*100;    V2=A2/10;
000299 e6e4      	LDI  R30,LOW(100)
00029a 940e 0e59 	CALL SUBOPT_0x15
00029c 940e 0e66 	CALL SUBOPT_0x16
00029e 940e 0e6f 	CALL SUBOPT_0x17
                 ;     312    value[2]=(unsigned char)(A2/10);   // третій символ зліва
0002a0 940e 0e66 	CALL SUBOPT_0x16
0002a2 940e 0e74 	CALL SUBOPT_0x18
                 ;     313    A3=A2-V2*10;     V3=A3;
0002a4 e0ea      	LDI  R30,LOW(10)
0002a5 940e 0e7b 	CALL SUBOPT_0x19
0002a7 91e0 055e 	LDS  R30,_A3
0002a9 91f0 055f 	LDS  R31,_A3+1
0002ab 93e0 0568 	STS  _V3,R30
0002ad 93f0 0569 	STS  _V3+1,R31
                 ;     314    value[3]=(unsigned char)(A3);    // четвертий символ зліва
0002af 91e0 055e 	LDS  R30,_A3
0002b1 93e0 0556 	__PUTB1MN _value,3
                 ;     315 
                 ;     316  // value[0]= (unsigned char)hour/1000;                       // старший-перший символ зліва
                 ;     317  // value[1]= (hour-value[0]*1000)/100;                        // другий символ зліва
                 ;     318  // value[2]= ((hour-value[0]*1000-value[1]*100)/10);         // третій символ зліва
                 ;     319  // value[3]= hour-value[0]*1000-value[1]*100-value[2]*10;  // четвертий символ зліва
                 ;     320 
                 ;     321   while (1) {
                 _0x78:
                 ;     322     PREV_PINF = PINF;
0002b3 940e 0e88 	CALL SUBOPT_0x1A
                 ;     323     sprintf(buffer, "%u%u%u.%u", value[0], value[1], value[2], value[3]); // чотири символи для виводу
0002b5 efe4
0002b6 e0f0      	__POINTW1FN _0,0
0002b7 940e 0e8e 	CALL SUBOPT_0x1B
0002b9 e180      	LDI  R24,16
0002ba 940e 0d8e 	CALL _sprintf
0002bc 9664      	ADIW R28,20
                 ;     324     lcd_gotoxy(x[0],0);
0002bd 85e9      	LDD  R30,Y+9
0002be 940e 0ead 	CALL SUBOPT_0x1C
                 ;     325     lcd_puts(buffer);
                 ;     326 
                 ;     327     if (get_key_status(SELECT_PLUS_BTN))             //   select+  UP ---set_page()-
0002c0 f411      	BRNE PC+3
0002c1 940c 0309 	JMP _0x7B
                 ;     328       if (!get_prev_key_status(SELECT_PLUS_BTN) || (gSelectPlusCounter == CNTREPEAT))
0002c3 940e 0eb9 	CALL SUBOPT_0x1D
0002c5 f021      	BREQ _0x7D
0002c6 940e 0ebf 	CALL SUBOPT_0x1E
0002c8 f009      	BREQ _0x7D
0002c9 c03f      	RJMP _0x7C
                 _0x7D:
                 ;     329       {
                 ;     330         if (gSelectPlusCounter == CNTREPEAT)
0002ca 940e 0ebf 	CALL SUBOPT_0x1E
0002cc f411      	BRNE _0x7F
                 ;     331           delay_ms(80);
0002cd 940e 0ec4 	CALL SUBOPT_0x1F
                 ;     332 
                 ;     333          switch (i)
                 _0x7F:
0002cf 2fe1      	MOV  R30,R17
                 ;     334          {
                 ;     335          case 0:                                   //  ліва_старша=нульова позиція числа page значення=( 0..2)
0002d0 30e0      	CPI  R30,0
0002d1 f461      	BRNE _0x83
                 ;     336               if (value[0] < 2)
0002d2 91a0 0553 	LDS  R26,_value
0002d4 30a2      	CPI  R26,LOW(0x2)
0002d5 f420      	BRSH _0x84
                 ;     337                  value[0]++;
0002d6 91e0 0553 	LDS  R30,_value
0002d8 5fef      	SUBI R30,-LOW(1)
0002d9 c001      	RJMP _0x286
                 ;     338               else value[0] = 0;
                 _0x84:
0002da e0e0      	LDI  R30,LOW(0)
                 _0x286:
0002db 93e0 0553 	STS  _value,R30
                 ;     339          break;
0002dd c02b      	RJMP _0x82
                 ;     340 
                 ;     341          case 1:                                  // друга позиція зліва числа page значення =( 0..9)
                 _0x83:
0002de 30e1      	CPI  R30,LOW(0x1)
0002df f461      	BRNE _0x86
                 ;     342                if (value[1] < 9)
0002e0 91a0 0554 	__GETB2MN _value,1
0002e2 30a9      	CPI  R26,LOW(0x9)
0002e3 f420      	BRSH _0x87
                 ;     343                    value[1]++;
0002e4 91e0 0554 	__GETB1MN _value,1
0002e6 5fef      	SUBI R30,-LOW(1)
0002e7 c001      	RJMP _0x287
                 ;     344                else value[1] = 0;
                 _0x87:
0002e8 e0e0      	LDI  R30,LOW(0)
                 _0x287:
0002e9 93e0 0554 	__PUTB1MN _value,1
                 ;     345          break;
0002eb c01d      	RJMP _0x82
                 ;     346 
                 ;     347          case 2:                                 // третя позиція зліва числа page значення =( 0..9)
                 _0x86:
0002ec 30e2      	CPI  R30,LOW(0x2)
0002ed f469      	BRNE _0x89
                 ;     348               if (value[i] < 9)
0002ee 940e 0ec7 	CALL SUBOPT_0x20
0002f0 81e0      	LD   R30,Z
0002f1 30e9      	CPI  R30,LOW(0x9)
0002f2 f418      	BRSH _0x8A
                 ;     349                  value[i]++;
0002f3 940e 0ecc 	CALL SUBOPT_0x21
                 ;     350               else value[i] = 0;
0002f5 c004      	RJMP _0x8B
                 _0x8A:
0002f6 940e 0ec7 	CALL SUBOPT_0x20
0002f8 e0a0      	LDI  R26,LOW(0)
0002f9 83a0      	STD  Z+0,R26
                 ;     351          break;
                 _0x8B:
0002fa c00e      	RJMP _0x82
                 ;     352 
                 ;     353          case 3:             // четверта позиція зліва числа page значення =( 0..9)
                 _0x89:
0002fb 30e3      	CPI  R30,LOW(0x3)
0002fc f461      	BRNE _0x82
                 ;     354 
                 ;     355               if (value[i] < 9)
0002fd 940e 0ec7 	CALL SUBOPT_0x20
0002ff 81e0      	LD   R30,Z
000300 30e9      	CPI  R30,LOW(0x9)
000301 f418      	BRSH _0x8D
                 ;     356                  value[i]++;
000302 940e 0ecc 	CALL SUBOPT_0x21
                 ;     357               else value[i] = 0;
000304 c004      	RJMP _0x8E
                 _0x8D:
000305 940e 0ec7 	CALL SUBOPT_0x20
000307 e0a0      	LDI  R26,LOW(0)
000308 83a0      	STD  Z+0,R26
                 ;     358          break;
                 _0x8E:
                 ;     359          }
                 _0x82:
                 ;     360       }
                 ;     361  //-end select+  UP ---set_page()--
                 ;     362 
                 ;     363     if (get_key_status(SELECT_MINUS_BTN))             // select-  DOWN---set_page()--
                 _0x7C:
                 _0x7B:
000309 940e 0df7 	CALL SUBOPT_0x7
00030b f411      	BRNE PC+3
00030c 940c 0354 	JMP _0x8F
                 ;     364       if (!get_prev_key_status(SELECT_MINUS_BTN) || (gSelectMinusCounter == CNTREPEAT))
00030e 940e 0ed4 	CALL SUBOPT_0x22
000310 f021      	BREQ _0x91
000311 940e 0eda 	CALL SUBOPT_0x23
000313 f009      	BREQ _0x91
000314 c03f      	RJMP _0x90
                 _0x91:
                 ;     365       {
                 ;     366         if (gSelectMinusCounter == CNTREPEAT)
000315 940e 0eda 	CALL SUBOPT_0x23
000317 f411      	BRNE _0x93
                 ;     367           delay_ms(80);
000318 940e 0ec4 	CALL SUBOPT_0x1F
                 ;     368         switch (i)
                 _0x93:
00031a 2fe1      	MOV  R30,R17
                 ;     369         {
                 ;     370         case 0:
00031b 30e0      	CPI  R30,0
00031c f461      	BRNE _0x97
                 ;     371               if (value[0] > 0)
00031d 91a0 0553 	LDS  R26,_value
00031f 30a1      	CPI  R26,LOW(0x1)
000320 f020      	BRLO _0x98
                 ;     372                   value[0]--;
000321 91e0 0553 	LDS  R30,_value
000323 50e1      	SUBI R30,LOW(1)
000324 c001      	RJMP _0x288
                 ;     373               else value[0] = 2;
                 _0x98:
000325 e0e2      	LDI  R30,LOW(2)
                 _0x288:
000326 93e0 0553 	STS  _value,R30
                 ;     374         break;
000328 c02b      	RJMP _0x96
                 ;     375 
                 ;     376         case 1:
                 _0x97:
000329 30e1      	CPI  R30,LOW(0x1)
00032a f461      	BRNE _0x9A
                 ;     377               if (value[1] > 0)
00032b 91a0 0554 	__GETB2MN _value,1
00032d 30a1      	CPI  R26,LOW(0x1)
00032e f020      	BRLO _0x9B
                 ;     378                 value[1]--;
00032f 91e0 0554 	__GETB1MN _value,1
000331 50e1      	SUBI R30,LOW(1)
000332 c001      	RJMP _0x289
                 ;     379               else value[1] = 9;
                 _0x9B:
000333 e0e9      	LDI  R30,LOW(9)
                 _0x289:
000334 93e0 0554 	__PUTB1MN _value,1
                 ;     380         break;
000336 c01d      	RJMP _0x96
                 ;     381 
                 ;     382         case 2:
                 _0x9A:
000337 30e2      	CPI  R30,LOW(0x2)
000338 f469      	BRNE _0x9D
                 ;     383               if (value[i] > 0)
000339 940e 0ec7 	CALL SUBOPT_0x20
00033b 81e0      	LD   R30,Z
00033c 30e1      	CPI  R30,LOW(0x1)
00033d f018      	BRLO _0x9E
                 ;     384                   value[i]--;
00033e 940e 0edf 	CALL SUBOPT_0x24
                 ;     385               else value[i] = 9;
000340 c004      	RJMP _0x9F
                 _0x9E:
000341 940e 0ec7 	CALL SUBOPT_0x20
000343 e0a9      	LDI  R26,LOW(9)
000344 83a0      	STD  Z+0,R26
                 ;     386         break;
                 _0x9F:
000345 c00e      	RJMP _0x96
                 ;     387 
                 ;     388         case 3:
                 _0x9D:
000346 30e3      	CPI  R30,LOW(0x3)
000347 f461      	BRNE _0x96
                 ;     389               if (value[i] > 0)
000348 940e 0ec7 	CALL SUBOPT_0x20
00034a 81e0      	LD   R30,Z
00034b 30e1      	CPI  R30,LOW(0x1)
00034c f018      	BRLO _0xA1
                 ;     390                   value[i]--;
00034d 940e 0edf 	CALL SUBOPT_0x24
                 ;     391               else value[i] = 9;
00034f c004      	RJMP _0xA2
                 _0xA1:
000350 940e 0ec7 	CALL SUBOPT_0x20
000352 e0a9      	LDI  R26,LOW(9)
000353 83a0      	STD  Z+0,R26
                 ;     392         break;
                 _0xA2:
                 ;     393         }
                 _0x96:
                 ;     394      }
                 ;     395 //-end select-  DOWN---set_page()-
                 ;     396 
                 ;     397     if (get_key_status(MENU_ENTER_BTN))     // enter---set_page()-
                 _0x90:
                 _0x8F:
000354 940e 0ee7 	CALL SUBOPT_0x25
000356 f1b1      	BREQ _0xA3
                 ;     398       if (!get_prev_key_status(MENU_ENTER_BTN))
000357 940e 0eed 	CALL SUBOPT_0x26
000359 f599      	BRNE _0xA4
                 ;     399       {
                 ;     400         if (i==3)    // кількість символів числа =4
00035a 3013      	CPI  R17,3
00035b f531      	BRNE _0xA5
                 ;     401         {
                 ;     402 
                 ;     403          hour = (unsigned int)(value[0])*1000 ; //+(unsigned int)(value[1])*100);
00035c 91e0 0553 	LDS  R30,_value
00035e 940e 0ef3 	CALL SUBOPT_0x27
000360 940e 0ef9 	CALL SUBOPT_0x28
                 ;     404          hour = hour+(unsigned int)(value[1])*100;
000362 91e0 0554 	__GETB1MN _value,1
000364 940e 0efe 	CALL SUBOPT_0x29
                 ;     405           hour = hour+(unsigned int)(value[2])*10;
000366 91e0 0555 	__GETB1MN _value,2
000368 e0aa      	LDI  R26,LOW(10)
000369 9fea      	MUL  R30,R26
00036a 01f0      	MOVW R30,R0
00036b 940e 0f05 	CALL SUBOPT_0x2A
                 ;     406           hour = hour+(unsigned int)(value[3]);
00036d 91e0 0556 	__GETB1MN _value,3
00036f e0f0      	LDI  R31,0
000370 940e 0f05 	CALL SUBOPT_0x2A
                 ;     407 
                 ;     408        //  hour = (int)(value[0]*1000+value[1]*100+value[2]*10+value[3]);  // номер сторінки
                 ;     409            if (hour> 2999)
000372 940e 0e08 	CALL SUBOPT_0xA
000374 3ba8      	CPI  R26,LOW(0xBB8)
000375 e0eb      	LDI  R30,HIGH(0xBB8)
000376 07be      	CPC  R27,R30
000377 f010      	BRLO _0xA6
                 ;     410              hour=2999;
000378 940e 0e0d 	CALL SUBOPT_0xB
                 ;     411              lcd_gotoxy(x[i],1);               // затерти курсор
                 _0xA6:
00037a 940e 0f09 	CALL SUBOPT_0x2B
                 ;     412              lcd_putchar(' ');
00037c 940e 0f11 	CALL SUBOPT_0x2C
                 ;     413           return(hour);                        // сформоване значення
00037e 940e 0e14 	CALL SUBOPT_0xC
000380 8118      	LDD  R17,Y+0
000381 c012      	RJMP _0x283
                 ;     414         }
                 ;     415 
                 ;     416         lcd_gotoxy(x[i],1);
                 _0xA5:
000382 940e 0f09 	CALL SUBOPT_0x2B
                 ;     417         lcd_putchar(' ');
000384 940e 0f11 	CALL SUBOPT_0x2C
                 ;     418         lcd_gotoxy(x[++i],1);
000386 5f1f      	SUBI R17,-LOW(1)
000387 940e 0f09 	CALL SUBOPT_0x2B
                 ;     419         lcd_puts(time_chars[i]);
000389 940e 0f15 	CALL SUBOPT_0x2D
00038b 940e 0f18 	CALL SUBOPT_0x2E
                 ;     420 
                 ;     421       }
                 ;     422   //-end enter---set_page()-
                 ;     423 
                 ;     424     if (get_key_status(ESC_BTN))       // exit --set_page()-
                 _0xA4:
                 _0xA3:
00038d 940e 0f22 	CALL SUBOPT_0x2F
00038f f019      	BREQ _0xA7
                 ;     425     {
                 ;     426       PREV_PINF = PINF;
000390 b040      	IN   R4,0
                 ;     427       // exitflag=1;    // натиснута клавіша exit
                 ;     428       return;
000391 8118      	LDD  R17,Y+0
000392 c001      	RJMP _0x283
                 ;     429     }
                 ;     430   }
                 _0xA7:
000393 cf1f      	RJMP _0x78
                 ;     431 }
                 _0x283:
000394 962d      	ADIW R28,13
000395 9508      	RET
                 ;     432 //--end exit ---set_page()-
                 ;     433 
                 ;     434 
                 ;     435 
                 ;     436 // функція меню -   set частоту більше 300 гц
                 ;     437 unsigned int set_page2(void)
                 ;     438 {
                 _set_page2:
                 ;     439                        // символи числа сторінки
                 ;     440   unsigned char   x[5] = { 7, 8, 9, 10, 11 }, i = 0;  // позиції символів число з 5 значень
                 ;     441   char time_chars[5][2] = {"^", "^", "^", "^","^"};  // нижній курсор - стрілка чотири позиції
                 ;     442 
                 ;     443   lcd_gotoxy(x[0],1);
000396 972f      	SBIW R28,15
000397 e08f      	LDI  R24,15
000398 e0a0      	LDI  R26,LOW(0)
000399 e0b0      	LDI  R27,HIGH(0)
00039a eae8      	LDI  R30,LOW(_0xA8*2)
00039b e0f0      	LDI  R31,HIGH(_0xA8*2)
00039c 940e 1473 	CALL __INITLOCB
00039e 931a      	ST   -Y,R17
                 ;	x -> Y+11
                 ;	i -> R17
                 ;	time_chars -> Y+1
00039f e010      	LDI  R17,0
0003a0 85eb      	LDD  R30,Y+11
0003a1 940e 0dfd 	CALL SUBOPT_0x8
                 ;     444   lcd_puts(time_chars[0]);       //  перше "^"  - курсор нижній
0003a3 940e 0e02 	CALL SUBOPT_0x9
                 ;     445 
                 ;     446    A0 = hour;        V0=A0/10000;
0003a5 940e 0e14 	CALL SUBOPT_0xC
0003a7 940e 0e19 	CALL SUBOPT_0xD
0003a9 e1e0      	LDI  R30,LOW(10000)
0003aa e2f7      	LDI  R31,HIGH(10000)
0003ab 940e 1207 	CALL __DIVW21U
0003ad 940e 0e27 	CALL SUBOPT_0xF
                 ;     447    value[0]=(unsigned char)(A0/10000); // старший-перший символ зліва
0003af e1e0      	LDI  R30,LOW(10000)
0003b0 e2f7      	LDI  R31,HIGH(10000)
0003b1 940e 1207 	CALL __DIVW21U
0003b3 940e 0e30 	CALL SUBOPT_0x10
                 ;     448    A1=A0-V0*10000;   V1= (A1/1000);
0003b5 e1e0      	LDI  R30,LOW(10000)
0003b6 e2f7      	LDI  R31,HIGH(10000)
0003b7 940e 0e37 	CALL SUBOPT_0x11
0003b9 940e 0e22 	CALL SUBOPT_0xE
0003bb 940e 0e49 	CALL SUBOPT_0x13
                 ;     449    value[1]=(unsigned char)(A1/1000);  // другий символ зліва
0003bd 940e 0e22 	CALL SUBOPT_0xE
0003bf 940e 0e52 	CALL SUBOPT_0x14
                 ;     450    A2=A1-V1*1000;    V2=A2/100;
0003c1 eee8      	LDI  R30,LOW(1000)
0003c2 e0f3      	LDI  R31,HIGH(1000)
0003c3 940e 11e6 	CALL __MULW12U
0003c5 91a0 055a 	LDS  R26,_A1
0003c7 91b0 055b 	LDS  R27,_A1+1
0003c9 1bae      	SUB  R26,R30
0003ca 0bbf      	SBC  R27,R31
0003cb 93a0 055c 	STS  _A2,R26
0003cd 93b0 055d 	STS  _A2+1,R27
0003cf 940e 0f28 	CALL SUBOPT_0x30
0003d1 940e 0e6f 	CALL SUBOPT_0x17
                 ;     451    value[2]=(unsigned char)(A2/100);   // третій символ зліва
0003d3 940e 0f28 	CALL SUBOPT_0x30
0003d5 940e 0e74 	CALL SUBOPT_0x18
                 ;     452    A3=A2-V2*100;     V3=A3/10;
0003d7 e6e4      	LDI  R30,LOW(100)
0003d8 940e 0e7b 	CALL SUBOPT_0x19
0003da 940e 0f2d 	CALL SUBOPT_0x31
0003dc 93e0 0568 	STS  _V3,R30
0003de 93f0 0569 	STS  _V3+1,R31
                 ;     453    value[3]=(unsigned char)(A3/10);    // четвертий символ зліва
0003e0 940e 0f2d 	CALL SUBOPT_0x31
0003e2 93e0 0556 	__PUTB1MN _value,3
                 ;     454    A4=A3-V3*10;      V4=A4;
0003e4 91a0 0568 	LDS  R26,_V3
0003e6 91b0 0569 	LDS  R27,_V3+1
0003e8 e0ea      	LDI  R30,LOW(10)
0003e9 940e 11ee 	CALL __MULB1W2U
0003eb 91a0 055e 	LDS  R26,_A3
0003ed 91b0 055f 	LDS  R27,_A3+1
0003ef 1bae      	SUB  R26,R30
0003f0 0bbf      	SBC  R27,R31
0003f1 93a0 0560 	STS  _A4,R26
0003f3 93b0 0561 	STS  _A4+1,R27
0003f5 91e0 0560 	LDS  R30,_A4
0003f7 91f0 0561 	LDS  R31,_A4+1
0003f9 93e0 056a 	STS  _V4,R30
0003fb 93f0 056b 	STS  _V4+1,R31
                 ;     455    value[4]=(unsigned char)A4;         // молодший -п'ятий символ зліва
0003fd 91e0 0560 	LDS  R30,_A4
0003ff 93e0 0557 	__PUTB1MN _value,4
                 ;     456 
                 ;     457   while (1) {
                 _0xA9:
                 ;     458     PREV_PINF = PINF;
000401 940e 0e88 	CALL SUBOPT_0x1A
                 ;     459     sprintf(buffer, "%u%u%u%u%u", value[0], value[1], value[2], value[3], value[4]); // чотири символи для виводу
000403 efee
000404 e0f0      	__POINTW1FN _0,10
000405 940e 0e8e 	CALL SUBOPT_0x1B
000407 91e0 0557 	__GETB1MN _value,4
000409 940e 0f36 	CALL SUBOPT_0x32
00040b e184      	LDI  R24,20
00040c 940e 0d8e 	CALL _sprintf
00040e 9668      	ADIW R28,24
                 ;     460     lcd_gotoxy(x[0],0);
00040f 85eb      	LDD  R30,Y+11
000410 940e 0ead 	CALL SUBOPT_0x1C
                 ;     461     lcd_puts(buffer);
                 ;     462 
                 ;     463     if (get_key_status(SELECT_PLUS_BTN))             //   select+  UP ---set_page()-
000412 f411      	BRNE PC+3
000413 940c 0469 	JMP _0xAC
                 ;     464       if (!get_prev_key_status(SELECT_PLUS_BTN) || (gSelectPlusCounter == CNTREPEAT))
000415 940e 0eb9 	CALL SUBOPT_0x1D
000417 f021      	BREQ _0xAE
000418 940e 0ebf 	CALL SUBOPT_0x1E
00041a f009      	BREQ _0xAE
00041b c04d      	RJMP _0xAD
                 _0xAE:
                 ;     465       {
                 ;     466         if (gSelectPlusCounter == CNTREPEAT)
00041c 940e 0ebf 	CALL SUBOPT_0x1E
00041e f411      	BRNE _0xB0
                 ;     467           delay_ms(80);
00041f 940e 0ec4 	CALL SUBOPT_0x1F
                 ;     468 
                 ;     469          switch (i)
                 _0xB0:
000421 2fe1      	MOV  R30,R17
                 ;     470          {
                 ;     471           case 0:                     // ліва_старша= перша позиція числа page значення=( 0..2)
000422 30e0      	CPI  R30,0
000423 f461      	BRNE _0xB4
                 ;     472               if (value[0] < 2)
000424 91a0 0553 	LDS  R26,_value
000426 30a2      	CPI  R26,LOW(0x2)
000427 f420      	BRSH _0xB5
                 ;     473                  value[0]++;
000428 91e0 0553 	LDS  R30,_value
00042a 5fef      	SUBI R30,-LOW(1)
00042b c001      	RJMP _0x28A
                 ;     474               else value[0] = 0;
                 _0xB5:
00042c e0e0      	LDI  R30,LOW(0)
                 _0x28A:
00042d 93e0 0553 	STS  _value,R30
                 ;     475           break;
00042f c039      	RJMP _0xB3
                 ;     476 
                 ;     477           case 1:                    // друга позиція зліва числа page значення =( 0..9)
                 _0xB4:
000430 30e1      	CPI  R30,LOW(0x1)
000431 f461      	BRNE _0xB7
                 ;     478                if (value[1] < 9)
000432 91a0 0554 	__GETB2MN _value,1
000434 30a9      	CPI  R26,LOW(0x9)
000435 f420      	BRSH _0xB8
                 ;     479                    value[1]++;
000436 91e0 0554 	__GETB1MN _value,1
000438 5fef      	SUBI R30,-LOW(1)
000439 c001      	RJMP _0x28B
                 ;     480                else value[1] = 0;
                 _0xB8:
00043a e0e0      	LDI  R30,LOW(0)
                 _0x28B:
00043b 93e0 0554 	__PUTB1MN _value,1
                 ;     481           break;
00043d c02b      	RJMP _0xB3
                 ;     482 
                 ;     483           case 2:                    // третя позиція зліва числа page значення =( 0..9)
                 _0xB7:
00043e 30e2      	CPI  R30,LOW(0x2)
00043f f461      	BRNE _0xBA
                 ;     484               if (value[2] < 9)
000440 91a0 0555 	__GETB2MN _value,2
000442 30a9      	CPI  R26,LOW(0x9)
000443 f420      	BRSH _0xBB
                 ;     485                  value[2]++;
000444 91e0 0555 	__GETB1MN _value,2
000446 5fef      	SUBI R30,-LOW(1)
000447 c001      	RJMP _0x28C
                 ;     486               else value[2] = 0;
                 _0xBB:
000448 e0e0      	LDI  R30,LOW(0)
                 _0x28C:
000449 93e0 0555 	__PUTB1MN _value,2
                 ;     487           break;
00044b c01d      	RJMP _0xB3
                 ;     488 
                 ;     489           case 3:                    // четверта позиція зліва числа page значення =( 0..9)
                 _0xBA:
00044c 30e3      	CPI  R30,LOW(0x3)
00044d f469      	BRNE _0xBD
                 ;     490               if (value[i] < 9)
00044e 940e 0ec7 	CALL SUBOPT_0x20
000450 81e0      	LD   R30,Z
000451 30e9      	CPI  R30,LOW(0x9)
000452 f418      	BRSH _0xBE
                 ;     491                  value[i]++;
000453 940e 0ecc 	CALL SUBOPT_0x21
                 ;     492               else value[i] = 0;
000455 c004      	RJMP _0xBF
                 _0xBE:
000456 940e 0ec7 	CALL SUBOPT_0x20
000458 e0a0      	LDI  R26,LOW(0)
000459 83a0      	STD  Z+0,R26
                 ;     493           break;
                 _0xBF:
00045a c00e      	RJMP _0xB3
                 ;     494 
                 ;     495           case 4:                   // п'ята позиція зліва числа page значення =( 0..9)
                 _0xBD:
00045b 30e4      	CPI  R30,LOW(0x4)
00045c f461      	BRNE _0xB3
                 ;     496               if (value[i] < 9)
00045d 940e 0ec7 	CALL SUBOPT_0x20
00045f 81e0      	LD   R30,Z
000460 30e9      	CPI  R30,LOW(0x9)
000461 f418      	BRSH _0xC1
                 ;     497                  value[i]++;
000462 940e 0ecc 	CALL SUBOPT_0x21
                 ;     498               else value[i] = 0;
000464 c004      	RJMP _0xC2
                 _0xC1:
000465 940e 0ec7 	CALL SUBOPT_0x20
000467 e0a0      	LDI  R26,LOW(0)
000468 83a0      	STD  Z+0,R26
                 ;     499           break;
                 _0xC2:
                 ;     500          }
                 _0xB3:
                 ;     501       }
                 ;     502      //-end select+  UP ---set_page()--
                 ;     503 
                 ;     504     if (get_key_status(SELECT_MINUS_BTN))             // select-  DOWN---set_page()--
                 _0xAD:
                 _0xAC:
000469 940e 0df7 	CALL SUBOPT_0x7
00046b f411      	BRNE PC+3
00046c 940c 04c0 	JMP _0xC3
                 ;     505       if (!get_prev_key_status(SELECT_MINUS_BTN) || (gSelectMinusCounter == CNTREPEAT))
00046e 940e 0ed4 	CALL SUBOPT_0x22
000470 f021      	BREQ _0xC5
000471 940e 0eda 	CALL SUBOPT_0x23
000473 f009      	BREQ _0xC5
000474 c04b      	RJMP _0xC4
                 _0xC5:
                 ;     506       {
                 ;     507         if (gSelectMinusCounter == CNTREPEAT)
000475 940e 0eda 	CALL SUBOPT_0x23
000477 f411      	BRNE _0xC7
                 ;     508           delay_ms(80);
000478 940e 0ec4 	CALL SUBOPT_0x1F
                 ;     509         switch (i)
                 _0xC7:
00047a 2fe1      	MOV  R30,R17
                 ;     510         {
                 ;     511          case 0:
00047b 30e0      	CPI  R30,0
00047c f461      	BRNE _0xCB
                 ;     512               if (value[0] > 0)
00047d 91a0 0553 	LDS  R26,_value
00047f 30a1      	CPI  R26,LOW(0x1)
000480 f020      	BRLO _0xCC
                 ;     513                   value[0]--;
000481 91e0 0553 	LDS  R30,_value
000483 50e1      	SUBI R30,LOW(1)
000484 c001      	RJMP _0x28D
                 ;     514               else value[0] = 2;
                 _0xCC:
000485 e0e2      	LDI  R30,LOW(2)
                 _0x28D:
000486 93e0 0553 	STS  _value,R30
                 ;     515          break;
000488 c037      	RJMP _0xCA
                 ;     516 
                 ;     517          case 1:
                 _0xCB:
000489 30e1      	CPI  R30,LOW(0x1)
00048a f461      	BRNE _0xCE
                 ;     518               if (value[1] > 0)
00048b 91a0 0554 	__GETB2MN _value,1
00048d 30a1      	CPI  R26,LOW(0x1)
00048e f020      	BRLO _0xCF
                 ;     519                 value[1]--;
00048f 91e0 0554 	__GETB1MN _value,1
000491 50e1      	SUBI R30,LOW(1)
000492 c001      	RJMP _0x28E
                 ;     520               else value[1] = 9;
                 _0xCF:
000493 e0e9      	LDI  R30,LOW(9)
                 _0x28E:
000494 93e0 0554 	__PUTB1MN _value,1
                 ;     521          break;
000496 c029      	RJMP _0xCA
                 ;     522 
                 ;     523          case 2:
                 _0xCE:
000497 30e2      	CPI  R30,LOW(0x2)
000498 f461      	BRNE _0xD1
                 ;     524               if (value[2] > 0)
000499 91a0 0555 	__GETB2MN _value,2
00049b 30a1      	CPI  R26,LOW(0x1)
00049c f020      	BRLO _0xD2
                 ;     525                   value[2]--;
00049d 91e0 0555 	__GETB1MN _value,2
00049f 50e1      	SUBI R30,LOW(1)
0004a0 c001      	RJMP _0x28F
                 ;     526               else value[2] = 9;
                 _0xD2:
0004a1 e0e9      	LDI  R30,LOW(9)
                 _0x28F:
0004a2 93e0 0555 	__PUTB1MN _value,2
                 ;     527          break;
0004a4 c01b      	RJMP _0xCA
                 ;     528 
                 ;     529          case 3:
                 _0xD1:
0004a5 30e3      	CPI  R30,LOW(0x3)
0004a6 f461      	BRNE _0xD4
                 ;     530               if (value[3] > 0)
0004a7 91a0 0556 	__GETB2MN _value,3
0004a9 30a1      	CPI  R26,LOW(0x1)
0004aa f020      	BRLO _0xD5
                 ;     531                   value[3]--;
0004ab 91e0 0556 	__GETB1MN _value,3
0004ad 50e1      	SUBI R30,LOW(1)
0004ae c001      	RJMP _0x290
                 ;     532               else value[3] = 9;
                 _0xD5:
0004af e0e9      	LDI  R30,LOW(9)
                 _0x290:
0004b0 93e0 0556 	__PUTB1MN _value,3
                 ;     533          break;
0004b2 c00d      	RJMP _0xCA
                 ;     534 
                 ;     535          case 4:
                 _0xD4:
0004b3 30e4      	CPI  R30,LOW(0x4)
0004b4 f459      	BRNE _0xCA
                 ;     536               if (value[4] > 0)
0004b5 91a0 0557 	__GETB2MN _value,4
0004b7 30a1      	CPI  R26,LOW(0x1)
0004b8 f020      	BRLO _0xD8
                 ;     537                   value[4]--;
0004b9 91e0 0557 	__GETB1MN _value,4
0004bb 50e1      	SUBI R30,LOW(1)
0004bc c001      	RJMP _0x291
                 ;     538               else value[4] = 9;
                 _0xD8:
0004bd e0e9      	LDI  R30,LOW(9)
                 _0x291:
0004be 93e0 0557 	__PUTB1MN _value,4
                 ;     539          break;
                 ;     540         }
                 _0xCA:
                 ;     541      }
                 ;     542      //-end select-  DOWN---set_page()-
                 ;     543 
                 ;     544     if (get_key_status(MENU_ENTER_BTN))     // enter---set_page()-
                 _0xC4:
                 _0xC3:
0004c0 940e 0ee7 	CALL SUBOPT_0x25
0004c2 f411      	BRNE PC+3
0004c3 940c 0513 	JMP _0xDA
                 ;     545       if (!get_prev_key_status(MENU_ENTER_BTN))
0004c5 940e 0eed 	CALL SUBOPT_0x26
0004c7 f011      	BREQ PC+3
0004c8 940c 0513 	JMP _0xDB
                 ;     546       {
                 ;     547         if (i==4)    // кількість символів числа =5
0004ca 3014      	CPI  R17,4
0004cb f5c1      	BRNE _0xDC
                 ;     548         {
                 ;     549           hour = (unsigned int)(value[0]*10000+value[1]*1000);
0004cc 91e0 0553 	LDS  R30,_value
0004ce e0f0      	LDI  R31,0
0004cf e1a0      	LDI  R26,LOW(10000)
0004d0 e2b7      	LDI  R27,HIGH(10000)
0004d1 940e 11e6 	CALL __MULW12U
0004d3 01bf      	MOVW R22,R30
0004d4 91e0 0554 	__GETB1MN _value,1
0004d6 940e 0ef3 	CALL SUBOPT_0x27
0004d8 0fe6      	ADD  R30,R22
0004d9 1ff7      	ADC  R31,R23
0004da 940e 0ef9 	CALL SUBOPT_0x28
                 ;     550           hour = hour+(unsigned int)(value[2])*100;
0004dc 91e0 0555 	__GETB1MN _value,2
0004de 940e 0efe 	CALL SUBOPT_0x29
                 ;     551           hour = hour+(unsigned int)(value[3])*10+(unsigned int)(value[4]);
0004e0 91e0 0556 	__GETB1MN _value,3
0004e2 e0aa      	LDI  R26,LOW(10)
0004e3 9fea      	MUL  R30,R26
0004e4 01f0      	MOVW R30,R0
0004e5 940e 0e08 	CALL SUBOPT_0xA
0004e7 0fae      	ADD  R26,R30
0004e8 1fbf      	ADC  R27,R31
0004e9 91e0 0557 	__GETB1MN _value,4
0004eb e0f0      	LDI  R31,0
0004ec 0fea      	ADD  R30,R26
0004ed 1ffb      	ADC  R31,R27
0004ee 940e 0ef9 	CALL SUBOPT_0x28
                 ;     552 
                 ;     553            if (hour>29999)
0004f0 940e 0e08 	CALL SUBOPT_0xA
0004f2 33a0      	CPI  R26,LOW(0x7530)
0004f3 e7e5      	LDI  R30,HIGH(0x7530)
0004f4 07be      	CPC  R27,R30
0004f5 f020      	BRLO _0xDD
                 ;     554              hour=29999;
0004f6 e2ef      	LDI  R30,LOW(29999)
0004f7 e7f5      	LDI  R31,HIGH(29999)
0004f8 940e 0ef9 	CALL SUBOPT_0x28
                 ;     555              lcd_gotoxy(x[i],1);               // затерти курсор
                 _0xDD:
0004fa 940e 0f15 	CALL SUBOPT_0x2D
0004fc 940e 0f3c 	CALL SUBOPT_0x33
                 ;     556              lcd_putchar(' ');
0004fe 940e 0f11 	CALL SUBOPT_0x2C
                 ;     557           return(hour);                        // сформоване значення
000500 940e 0e14 	CALL SUBOPT_0xC
000502 8118      	LDD  R17,Y+0
000503 c016      	RJMP _0x282
                 ;     558         }
                 ;     559 
                 ;     560         lcd_gotoxy(x[i],1);
                 _0xDC:
000504 940e 0f15 	CALL SUBOPT_0x2D
000506 940e 0f3c 	CALL SUBOPT_0x33
                 ;     561         lcd_putchar(' ');
000508 940e 0f11 	CALL SUBOPT_0x2C
                 ;     562         lcd_gotoxy(x[++i],1);
00050a 5f1f      	SUBI R17,-LOW(1)
00050b 940e 0f15 	CALL SUBOPT_0x2D
00050d 940e 0f3c 	CALL SUBOPT_0x33
                 ;     563         lcd_puts(time_chars[i]);
00050f 940e 0f15 	CALL SUBOPT_0x2D
000511 940e 0f18 	CALL SUBOPT_0x2E
                 ;     564       }
                 ;     565       //-end enter---set_page()-
                 ;     566 
                 ;     567     if (get_key_status(ESC_BTN))       // exit --set_page()-
                 _0xDB:
                 _0xDA:
000513 940e 0f22 	CALL SUBOPT_0x2F
000515 f019      	BREQ _0xDE
                 ;     568     {
                 ;     569       PREV_PINF = PINF;
000516 b040      	IN   R4,0
                 ;     570       // exitflag=1;    // натиснута клавіша exit
                 ;     571       return;
000517 8118      	LDD  R17,Y+0
000518 c001      	RJMP _0x282
                 ;     572     }
                 ;     573   }
                 _0xDE:
000519 cee7      	RJMP _0xA9
                 ;     574 }
                 _0x282:
00051a 9660      	ADIW R28,16
00051b 9508      	RET
                 ;     575 //--end exit ---set_page()-
                 ;     576 
                 ;     577 
                 ;     578 
                 ;     579 // функція меню -   set speed до 999 ms
                 ;     580 unsigned int set_speed(void)
                 ;     581 {
                 _set_speed:
                 ;     582   unsigned char  x[3] = { 7, 8, 9 }, i = 0;            // позиції символів число з 3 значень
                 ;     583   char time_chars[3][2] = {"^", "^", "^"};  // нижній курсор - стрілка чотири позиції
                 ;     584 
                 ;     585   lcd_gotoxy(x[0],1);
00051c 9729      	SBIW R28,9
00051d e089      	LDI  R24,9
00051e e0a0      	LDI  R26,LOW(0)
00051f e0b0      	LDI  R27,HIGH(0)
000520 ebe8      	LDI  R30,LOW(_0xDF*2)
000521 e0f0      	LDI  R31,HIGH(_0xDF*2)
000522 940e 1473 	CALL __INITLOCB
000524 931a      	ST   -Y,R17
                 ;	x -> Y+7
                 ;	i -> R17
                 ;	time_chars -> Y+1
000525 e010      	LDI  R17,0
000526 81ef      	LDD  R30,Y+7
000527 940e 0dfd 	CALL SUBOPT_0x8
                 ;     586   lcd_puts(time_chars[0]);
000529 940e 0e02 	CALL SUBOPT_0x9
                 ;     587 
                 ;     588   if (speed>=1000) {speed=999;};                 //  перше "^"  - курсор нижній
00052b 940e 0f42 	CALL SUBOPT_0x34
00052d 3ea8      	CPI  R26,LOW(0x3E8)
00052e e0e3      	LDI  R30,HIGH(0x3E8)
00052f 07be      	CPC  R27,R30
000530 f010      	BRLO _0xE0
000531 940e 0f47 	CALL SUBOPT_0x35
                 _0xE0:
                 ;     589 
                 ;     590 
                 ;     591    A0 = speed;        V0=A0/100;
000533 940e 0f4e 	CALL SUBOPT_0x36
000535 940e 0e19 	CALL SUBOPT_0xD
000537 940e 0e44 	CALL SUBOPT_0x12
000539 940e 0e27 	CALL SUBOPT_0xF
                 ;     592    value[0]=(unsigned char)(A0/100); // старший-перший символ зліва
00053b 940e 0e44 	CALL SUBOPT_0x12
00053d 940e 0e30 	CALL SUBOPT_0x10
                 ;     593    A1=A0-V0*100;   V1= (A1/10);
00053f e6e4      	LDI  R30,LOW(100)
000540 940e 11ee 	CALL __MULB1W2U
000542 91a0 0558 	LDS  R26,_A0
000544 91b0 0559 	LDS  R27,_A0+1
000546 1bae      	SUB  R26,R30
000547 0bbf      	SBC  R27,R31
000548 93a0 055a 	STS  _A1,R26
00054a 93b0 055b 	STS  _A1+1,R27
00054c e0ea      	LDI  R30,LOW(10)
00054d e0f0      	LDI  R31,HIGH(10)
00054e 940e 1207 	CALL __DIVW21U
000550 940e 0e49 	CALL SUBOPT_0x13
                 ;     594    value[1]=(unsigned char)(A1/10);  // другий символ зліва
000552 e0ea      	LDI  R30,LOW(10)
000553 e0f0      	LDI  R31,HIGH(10)
000554 940e 1207 	CALL __DIVW21U
000556 940e 0e52 	CALL SUBOPT_0x14
                 ;     595    A2=A1-V1*10;    V2=A2;
000558 e0ea      	LDI  R30,LOW(10)
000559 940e 0e59 	CALL SUBOPT_0x15
00055b 91e0 055c 	LDS  R30,_A2
00055d 91f0 055d 	LDS  R31,_A2+1
00055f 940e 0e6f 	CALL SUBOPT_0x17
                 ;     596    value[2]=(unsigned char)(A2);   // третій символ зліва
000561 91e0 055c 	LDS  R30,_A2
000563 93e0 0555 	__PUTB1MN _value,2
                 ;     597 
                 ;     598 
                 ;     599   while (1) {
                 _0xE1:
                 ;     600     PREV_PINF = PINF;
000565 940e 0e88 	CALL SUBOPT_0x1A
                 ;     601     sprintf(buffer, "%u%u%u", value[0], value[1], value[2]); // три символи для виводу
000567 e0e2
000568 e0f1      	__POINTW1FN _0,14
000569 93fa      	ST   -Y,R31
00056a 93ea      	ST   -Y,R30
00056b 91e0 0553 	LDS  R30,_value
00056d 940e 0f36 	CALL SUBOPT_0x32
00056f 91e0 0554 	__GETB1MN _value,1
000571 940e 0f36 	CALL SUBOPT_0x32
000573 91e0 0555 	__GETB1MN _value,2
000575 940e 0f36 	CALL SUBOPT_0x32
000577 e08c      	LDI  R24,12
000578 940e 0d8e 	CALL _sprintf
00057a 9660      	ADIW R28,16
                 ;     602     lcd_gotoxy(x[0],0);
00057b 81ef      	LDD  R30,Y+7
00057c 940e 0ead 	CALL SUBOPT_0x1C
                 ;     603     lcd_puts(buffer);
                 ;     604 
                 ;     605     if (get_key_status(SELECT_PLUS_BTN))             //   select+  UP --- set speed -
00057e f1b1      	BREQ _0xE4
                 ;     606       if (!get_prev_key_status(SELECT_PLUS_BTN) || (gSelectPlusCounter == CNTREPEAT))
00057f 940e 0eb9 	CALL SUBOPT_0x1D
000581 f019      	BREQ _0xE6
000582 940e 0ebf 	CALL SUBOPT_0x1E
000584 f581      	BRNE _0xE5
                 _0xE6:
                 ;     607       {
                 ;     608         if (gSelectPlusCounter == CNTREPEAT)
000585 940e 0ebf 	CALL SUBOPT_0x1E
000587 f411      	BRNE _0xE8
                 ;     609           delay_ms(80);
000588 940e 0ec4 	CALL SUBOPT_0x1F
                 ;     610 
                 ;     611          switch (i)
                 _0xE8:
00058a 2fe1      	MOV  R30,R17
                 ;     612          {
                 ;     613          case 0:                                   //  ліва_старша=нульова позиція числа page значення=( 0..9)
00058b 30e0      	CPI  R30,0
00058c f461      	BRNE _0xEC
                 ;     614               if (value[0] < 9)
00058d 91a0 0553 	LDS  R26,_value
00058f 30a9      	CPI  R26,LOW(0x9)
000590 f420      	BRSH _0xED
                 ;     615                  value[0]++;
000591 91e0 0553 	LDS  R30,_value
000593 5fef      	SUBI R30,-LOW(1)
000594 c001      	RJMP _0x292
                 ;     616               else value[0] = 0;
                 _0xED:
000595 e0e0      	LDI  R30,LOW(0)
                 _0x292:
000596 93e0 0553 	STS  _value,R30
                 ;     617          break;
000598 c01c      	RJMP _0xEB
                 ;     618 
                 ;     619          case 1:                                  // друга позиція зліва числа page значення =( 0..9)
                 _0xEC:
000599 30e1      	CPI  R30,LOW(0x1)
00059a f461      	BRNE _0xEF
                 ;     620                if (value[1] < 9)
00059b 91a0 0554 	__GETB2MN _value,1
00059d 30a9      	CPI  R26,LOW(0x9)
00059e f420      	BRSH _0xF0
                 ;     621                    value[1]++;
00059f 91e0 0554 	__GETB1MN _value,1
0005a1 5fef      	SUBI R30,-LOW(1)
0005a2 c001      	RJMP _0x293
                 ;     622                else value[1] = 0;
                 _0xF0:
0005a3 e0e0      	LDI  R30,LOW(0)
                 _0x293:
0005a4 93e0 0554 	__PUTB1MN _value,1
                 ;     623          break;
0005a6 c00e      	RJMP _0xEB
                 ;     624 
                 ;     625          case 2:                                 // третя позиція зліва числа page значення =( 0..9)
                 _0xEF:
0005a7 30e2      	CPI  R30,LOW(0x2)
0005a8 f461      	BRNE _0xEB
                 ;     626               if (value[i] < 9)
0005a9 940e 0ec7 	CALL SUBOPT_0x20
0005ab 81e0      	LD   R30,Z
0005ac 30e9      	CPI  R30,LOW(0x9)
0005ad f418      	BRSH _0xF3
                 ;     627                  value[i]++;
0005ae 940e 0ecc 	CALL SUBOPT_0x21
                 ;     628               else value[i] = 0;
0005b0 c004      	RJMP _0xF4
                 _0xF3:
0005b1 940e 0ec7 	CALL SUBOPT_0x20
0005b3 e0a0      	LDI  R26,LOW(0)
0005b4 83a0      	STD  Z+0,R26
                 ;     629          break;
                 _0xF4:
                 ;     630 
                 ;     631          }
                 _0xEB:
                 ;     632       }
                 ;     633  //-end select+  UP ---set speed ()--
                 ;     634 
                 ;     635     if (get_key_status(SELECT_MINUS_BTN))             // select-  DOWN--- set speed --
                 _0xE5:
                 _0xE4:
0005b5 940e 0df7 	CALL SUBOPT_0x7
0005b7 f1b1      	BREQ _0xF5
                 ;     636       if (!get_prev_key_status(SELECT_MINUS_BTN) || (gSelectMinusCounter == CNTREPEAT))
0005b8 940e 0ed4 	CALL SUBOPT_0x22
0005ba f019      	BREQ _0xF7
0005bb 940e 0eda 	CALL SUBOPT_0x23
0005bd f581      	BRNE _0xF6
                 _0xF7:
                 ;     637       {
                 ;     638         if (gSelectMinusCounter == CNTREPEAT)
0005be 940e 0eda 	CALL SUBOPT_0x23
0005c0 f411      	BRNE _0xF9
                 ;     639           delay_ms(80);
0005c1 940e 0ec4 	CALL SUBOPT_0x1F
                 ;     640         switch (i)
                 _0xF9:
0005c3 2fe1      	MOV  R30,R17
                 ;     641         {
                 ;     642         case 0:
0005c4 30e0      	CPI  R30,0
0005c5 f461      	BRNE _0xFD
                 ;     643               if (value[0] > 0)
0005c6 91a0 0553 	LDS  R26,_value
0005c8 30a1      	CPI  R26,LOW(0x1)
0005c9 f020      	BRLO _0xFE
                 ;     644                   value[0]--;
0005ca 91e0 0553 	LDS  R30,_value
0005cc 50e1      	SUBI R30,LOW(1)
0005cd c001      	RJMP _0x294
                 ;     645               else value[0] = 9;
                 _0xFE:
0005ce e0e9      	LDI  R30,LOW(9)
                 _0x294:
0005cf 93e0 0553 	STS  _value,R30
                 ;     646         break;
0005d1 c01c      	RJMP _0xFC
                 ;     647 
                 ;     648         case 1:
                 _0xFD:
0005d2 30e1      	CPI  R30,LOW(0x1)
0005d3 f461      	BRNE _0x100
                 ;     649               if (value[1] > 0)
0005d4 91a0 0554 	__GETB2MN _value,1
0005d6 30a1      	CPI  R26,LOW(0x1)
0005d7 f020      	BRLO _0x101
                 ;     650                 value[1]--;
0005d8 91e0 0554 	__GETB1MN _value,1
0005da 50e1      	SUBI R30,LOW(1)
0005db c001      	RJMP _0x295
                 ;     651               else value[1] = 9;
                 _0x101:
0005dc e0e9      	LDI  R30,LOW(9)
                 _0x295:
0005dd 93e0 0554 	__PUTB1MN _value,1
                 ;     652         break;
0005df c00e      	RJMP _0xFC
                 ;     653 
                 ;     654         case 2:
                 _0x100:
0005e0 30e2      	CPI  R30,LOW(0x2)
0005e1 f461      	BRNE _0xFC
                 ;     655               if (value[i] > 0)
0005e2 940e 0ec7 	CALL SUBOPT_0x20
0005e4 81e0      	LD   R30,Z
0005e5 30e1      	CPI  R30,LOW(0x1)
0005e6 f018      	BRLO _0x104
                 ;     656                   value[i]--;
0005e7 940e 0edf 	CALL SUBOPT_0x24
                 ;     657               else value[i] = 9;
0005e9 c004      	RJMP _0x105
                 _0x104:
0005ea 940e 0ec7 	CALL SUBOPT_0x20
0005ec e0a9      	LDI  R26,LOW(9)
0005ed 83a0      	STD  Z+0,R26
                 ;     658         break;
                 _0x105:
                 ;     659 
                 ;     660         }
                 _0xFC:
                 ;     661      }
                 ;     662 //-end select-  DOWN--- set speed ()-
                 ;     663 
                 ;     664     if (get_key_status(MENU_ENTER_BTN))     // enter--- set speed ()-
                 _0xF6:
                 _0xF5:
0005ee 940e 0ee7 	CALL SUBOPT_0x25
0005f0 f1c9      	BREQ _0x106
                 ;     665       if (!get_prev_key_status(MENU_ENTER_BTN))
0005f1 940e 0eed 	CALL SUBOPT_0x26
0005f3 f5b1      	BRNE _0x107
                 ;     666       {
                 ;     667         if (i==2)    // кількість символів числа =3
0005f4 3012      	CPI  R17,2
0005f5 f529      	BRNE _0x108
                 ;     668         {
                 ;     669 
                 ;     670          speed = (unsigned int)(value[0])*100 ;
0005f6 91e0 0553 	LDS  R30,_value
0005f8 e6a4      	LDI  R26,LOW(100)
0005f9 9fea      	MUL  R30,R26
0005fa 01f0      	MOVW R30,R0
0005fb 940e 0f53 	CALL SUBOPT_0x37
                 ;     671          speed = speed +(unsigned int)(value[1])*10;
0005fd 91e0 0554 	__GETB1MN _value,1
0005ff e0aa      	LDI  R26,LOW(10)
000600 9fea      	MUL  R30,R26
000601 01f0      	MOVW R30,R0
000602 940e 0f58 	CALL SUBOPT_0x38
                 ;     672           speed = speed +(unsigned int)(value[2]);
000604 91e0 0555 	__GETB1MN _value,2
000606 e0f0      	LDI  R31,0
000607 940e 0f58 	CALL SUBOPT_0x38
                 ;     673 
                 ;     674            if (speed >= 1000)
000609 940e 0f42 	CALL SUBOPT_0x34
00060b 3ea8      	CPI  R26,LOW(0x3E8)
00060c e0e3      	LDI  R30,HIGH(0x3E8)
00060d 07be      	CPC  R27,R30
00060e f010      	BRLO _0x109
                 ;     675              speed =999;
00060f 940e 0f47 	CALL SUBOPT_0x35
                 ;     676              lcd_gotoxy(x[i],1);               // затерти курсор
                 _0x109:
000611 940e 0f15 	CALL SUBOPT_0x2D
000613 940e 0f5c 	CALL SUBOPT_0x39
                 ;     677              lcd_putchar(' ');
000615 940e 0f11 	CALL SUBOPT_0x2C
                 ;     678           return(speed);                        // сформоване значення
000617 940e 0f4e 	CALL SUBOPT_0x36
000619 8118      	LDD  R17,Y+0
00061a c016      	RJMP _0x281
                 ;     679         }
                 ;     680 
                 ;     681         lcd_gotoxy(x[i],1);
                 _0x108:
00061b 940e 0f15 	CALL SUBOPT_0x2D
00061d 940e 0f5c 	CALL SUBOPT_0x39
                 ;     682         lcd_putchar(' ');
00061f 940e 0f11 	CALL SUBOPT_0x2C
                 ;     683         lcd_gotoxy(x[++i],1);
000621 5f1f      	SUBI R17,-LOW(1)
000622 940e 0f15 	CALL SUBOPT_0x2D
000624 940e 0f5c 	CALL SUBOPT_0x39
                 ;     684         lcd_puts(time_chars[i]);
000626 940e 0f15 	CALL SUBOPT_0x2D
000628 940e 0f18 	CALL SUBOPT_0x2E
                 ;     685 
                 ;     686       }
                 ;     687   //-end enter--- set speed
                 ;     688 
                 ;     689     if (get_key_status(ESC_BTN))       // exit --set_page()-
                 _0x107:
                 _0x106:
00062a 940e 0f22 	CALL SUBOPT_0x2F
00062c f019      	BREQ _0x10A
                 ;     690     {
                 ;     691       PREV_PINF = PINF;
00062d b040      	IN   R4,0
                 ;     692       return;
00062e 8118      	LDD  R17,Y+0
00062f c001      	RJMP _0x281
                 ;     693     }
                 ;     694   }
                 _0x10A:
000630 cf34      	RJMP _0xE1
                 ;     695 }
                 _0x281:
000631 962a      	ADIW R28,10
000632 9508      	RET
                 ;     696 //--end exit --- set speed
                 ;     697 
                 ;     698 
                 ;     699  void  Red(unsigned int  dutyr)  // функція для PWM - red
                 ;     700 {
                 _Red:
                 ;     701     RedPwm = (ICR3/100)* dutyr;
                 ;	dutyr -> Y+0
000633 01d6      	MOVW R26,R12
000634 940e 0e44 	CALL SUBOPT_0x12
000636 940e 0f62 	CALL SUBOPT_0x3A
000638 940e 0f67 	CALL SUBOPT_0x3B
                 ;     702      if (RedPwm==0) RedPwm=1;
00063a 91e0 053b 	LDS  R30,_RedPwm
00063c 91f0 053c 	LDS  R31,_RedPwm+1
00063e 9730      	SBIW R30,0
00063f f421      	BRNE _0x10B
000640 e0e1      	LDI  R30,LOW(1)
000641 e0f0      	LDI  R31,HIGH(1)
000642 940e 0f67 	CALL SUBOPT_0x3B
                 ;     703      redpwml=(char)(RedPwm);             // Dred% pwm  RED - low byte
                 _0x10B:
000644 940e 0f6c 	CALL SUBOPT_0x3C
                 ;     704      redpwmh=(char)((RedPwm)>>8);   // Dred% pwm  RED - high byte
                 ;     705      return;
000646 c027      	RJMP _0x280
                 ;     706   }
                 ;     707 
                 ;     708   void  Green(unsigned  int  dutyg)   // функція для PWM - Green
                 ;     709 {
                 _Green:
                 ;     710      GreenPwm = (ICR3/100)* dutyg;
                 ;	dutyg -> Y+0
000647 01d6      	MOVW R26,R12
000648 940e 0e44 	CALL SUBOPT_0x12
00064a 940e 0f62 	CALL SUBOPT_0x3A
00064c 940e 0f75 	CALL SUBOPT_0x3D
                 ;     711      if (GreenPwm==0) GreenPwm=1;
00064e 91e0 053d 	LDS  R30,_GreenPwm
000650 91f0 053e 	LDS  R31,_GreenPwm+1
000652 9730      	SBIW R30,0
000653 f421      	BRNE _0x10C
000654 e0e1      	LDI  R30,LOW(1)
000655 e0f0      	LDI  R31,HIGH(1)
000656 940e 0f75 	CALL SUBOPT_0x3D
                 ;     712      greenpwml=(char)(GreenPwm);
                 _0x10C:
000658 940e 0f7a 	CALL SUBOPT_0x3E
                 ;     713      greenpwmh=(char)((GreenPwm)>>8);   //  Dgreen% pwm  GREEN - high byte
                 ;     714      return;
00065a c013      	RJMP _0x280
                 ;     715  }
                 ;     716 
                 ;     717   void  Blue (unsigned  int  dutyb)   // функція для PWM - Blue
                 ;     718 {
                 _Blue:
                 ;     719      BluePwm = (ICR3/100)* dutyb;
                 ;	dutyb -> Y+0
00065b 01d6      	MOVW R26,R12
00065c 940e 0e44 	CALL SUBOPT_0x12
00065e 940e 0f62 	CALL SUBOPT_0x3A
000660 940e 0f83 	CALL SUBOPT_0x3F
                 ;     720      if (BluePwm==0) BluePwm=1;
000662 91e0 053f 	LDS  R30,_BluePwm
000664 91f0 0540 	LDS  R31,_BluePwm+1
000666 9730      	SBIW R30,0
000667 f421      	BRNE _0x10D
000668 e0e1      	LDI  R30,LOW(1)
000669 e0f0      	LDI  R31,HIGH(1)
00066a 940e 0f83 	CALL SUBOPT_0x3F
                 ;     721      bluepwml=(char)(BluePwm);
                 _0x10D:
00066c 940e 0f88 	CALL SUBOPT_0x40
                 ;     722      bluepwmh=(char)((BluePwm)>>8);    // Dblue% pwm  BLUE - high byte
                 ;     723      return;
                 _0x280:
00066e 9622      	ADIW R28,2
00066f 9508      	RET
                 ;     724   }
                 ;     725 
                 ;     726 
                 ;     727   void test (unsigned  int  speedx)   // тестування
                 ;     728    {
                 _test:
                 ;     729     unsigned char R=0, G=0, B=0;
                 ;     730 
                 ;     731     for (R=0; R<100; R++)      // red від 0 до 100 %
000670 940e 1467 	CALL __SAVELOCR4
                 ;	speedx -> Y+4
                 ;	R -> R17
                 ;	G -> R16
                 ;	B -> R19
000672 e000      	LDI  R16,0
000673 e010      	LDI  R17,0
000674 e030      	LDI  R19,0
000675 e010      	LDI  R17,LOW(0)
                 _0x10F:
000676 3614      	CPI  R17,100
000677 f430      	BRSH _0x110
                 ;     732          {
                 ;     733              Red(R);
000678 940e 0f15 	CALL SUBOPT_0x2D
00067a 940e 0f91 	CALL SUBOPT_0x41
                 ;     734              delay_ms(speedx);
                 ;     735           };
00067c 5f1f      	SUBI R17,-1
00067d cff8      	RJMP _0x10F
                 _0x110:
                 ;     736 
                 ;     737      for (R=99; R>0; R--)      // red від 100% до 1%
00067e e613      	LDI  R17,LOW(99)
                 _0x112:
00067f 3011      	CPI  R17,1
000680 f030      	BRLO _0x113
                 ;     738          {
                 ;     739              Red(R);
000681 940e 0f15 	CALL SUBOPT_0x2D
000683 940e 0f91 	CALL SUBOPT_0x41
                 ;     740              delay_ms(speedx);
                 ;     741           };
000685 5011      	SUBI R17,1
000686 cff8      	RJMP _0x112
                 _0x113:
                 ;     742 
                 ;     743     for (G=0; G<100; G++)      // Green від 0 до 100 %
000687 e000      	LDI  R16,LOW(0)
                 _0x115:
000688 3604      	CPI  R16,100
000689 f420      	BRSH _0x116
                 ;     744 
                 ;     745          {
                 ;     746              Green(G);
00068a 940e 0f98 	CALL SUBOPT_0x42
                 ;     747              delay_ms(speedx);
                 ;     748           };
00068c 5f0f      	SUBI R16,-1
00068d cffa      	RJMP _0x115
                 _0x116:
                 ;     749      for (G=99; G>0; G--)      // Green від 100% до 1%
00068e e603      	LDI  R16,LOW(99)
                 _0x118:
00068f 3001      	CPI  R16,1
000690 f020      	BRLO _0x119
                 ;     750          {
                 ;     751              Green(G);
000691 940e 0f98 	CALL SUBOPT_0x42
                 ;     752              delay_ms(speedx);
                 ;     753           };
000693 5001      	SUBI R16,1
000694 cffa      	RJMP _0x118
                 _0x119:
                 ;     754     for (B=0; B<100; B++)      // Blue від 0 до 100 %
000695 e030      	LDI  R19,LOW(0)
                 _0x11B:
000696 3634      	CPI  R19,100
000697 f420      	BRSH _0x11C
                 ;     755 
                 ;     756          {
                 ;     757              Blue (B);
000698 940e 0fa1 	CALL SUBOPT_0x43
                 ;     758              delay_ms(speedx);
                 ;     759           };
00069a 5f3f      	SUBI R19,-1
00069b cffa      	RJMP _0x11B
                 _0x11C:
                 ;     760      for (B=99; B>0; B--)      // Blue від 100% до 1%
00069c e633      	LDI  R19,LOW(99)
                 _0x11E:
00069d 3031      	CPI  R19,1
00069e f020      	BRLO _0x11F
                 ;     761          {
                 ;     762              Blue(B);
00069f 940e 0fa1 	CALL SUBOPT_0x43
                 ;     763              delay_ms(speedx);
                 ;     764           };
0006a1 5031      	SUBI R19,1
0006a2 cffa      	RJMP _0x11E
                 _0x11F:
                 ;     765 
                 ;     766      for (B=0; B<100; B++)      // Red Green Blue від 0 до 100 %
0006a3 e030      	LDI  R19,LOW(0)
                 _0x121:
0006a4 3634      	CPI  R19,100
0006a5 f460      	BRSH _0x122
                 ;     767          {
                 ;     768              Red(B);
0006a6 940e 0faa 	CALL SUBOPT_0x44
0006a8 940e 0633 	CALL _Red
                 ;     769              Green(B);
0006aa 940e 0faa 	CALL SUBOPT_0x44
0006ac 940e 0647 	CALL _Green
                 ;     770              Blue (B);
0006ae 940e 0fa1 	CALL SUBOPT_0x43
                 ;     771              delay_ms(speedx);
                 ;     772           };
0006b0 5f3f      	SUBI R19,-1
0006b1 cff2      	RJMP _0x121
                 _0x122:
                 ;     773      for (B=99; B>0; B--)      // Red =100% Green -Blue від 100% до 1%
0006b2 e633      	LDI  R19,LOW(99)
                 _0x124:
0006b3 3031      	CPI  R19,1
0006b4 f040      	BRLO _0x125
                 ;     774          {
                 ;     775                Green(B);
0006b5 940e 0faa 	CALL SUBOPT_0x44
0006b7 940e 0647 	CALL _Green
                 ;     776                 Blue(B);
0006b9 940e 0fa1 	CALL SUBOPT_0x43
                 ;     777                 delay_ms(speedx);
                 ;     778           };
0006bb 5031      	SUBI R19,1
0006bc cff6      	RJMP _0x124
                 _0x125:
                 ;     779 
                 ;     780         for (B=0; B<100; B++)      // Blue від 0 до 100 %
0006bd e030      	LDI  R19,LOW(0)
                 _0x127:
0006be 3634      	CPI  R19,100
0006bf f420      	BRSH _0x128
                 ;     781 
                 ;     782          {
                 ;     783              Blue(B);
0006c0 940e 0fa1 	CALL SUBOPT_0x43
                 ;     784              delay_ms(speedx);
                 ;     785           };
0006c2 5f3f      	SUBI R19,-1
0006c3 cffa      	RJMP _0x127
                 _0x128:
                 ;     786 
                 ;     787     for (G=0; G<100; G++)      // Green від 0 до 100 %
0006c4 e000      	LDI  R16,LOW(0)
                 _0x12A:
0006c5 3604      	CPI  R16,100
0006c6 f420      	BRSH _0x12B
                 ;     788          {
                 ;     789              Green(G);
0006c7 940e 0f98 	CALL SUBOPT_0x42
                 ;     790              delay_ms(speedx);
                 ;     791           };
0006c9 5f0f      	SUBI R16,-1
0006ca cffa      	RJMP _0x12A
                 _0x12B:
                 ;     792 
                 ;     793      for (R=99; R>0; R--)      // red від 100% до 1%
0006cb e613      	LDI  R17,LOW(99)
                 _0x12D:
0006cc 3011      	CPI  R17,1
0006cd f030      	BRLO _0x12E
                 ;     794          {
                 ;     795              Red(R);
0006ce 940e 0f15 	CALL SUBOPT_0x2D
0006d0 940e 0f91 	CALL SUBOPT_0x41
                 ;     796              delay_ms(speedx);
                 ;     797           };
0006d2 5011      	SUBI R17,1
0006d3 cff8      	RJMP _0x12D
                 _0x12E:
                 ;     798 
                 ;     799    for (B=99; B>49; B--)      // Red =100% Green -Blue від 100% до 1%
0006d4 e633      	LDI  R19,LOW(99)
                 _0x130:
0006d5 3332      	CPI  R19,50
0006d6 f078      	BRLO _0x131
                 ;     800          {
                 ;     801                Green(B);
0006d7 940e 0faa 	CALL SUBOPT_0x44
0006d9 940e 0647 	CALL _Green
                 ;     802                Blue(B);
0006db 940e 0faa 	CALL SUBOPT_0x44
0006dd 940e 065b 	CALL _Blue
                 ;     803                R=R+1;
0006df 5f1f      	SUBI R17,-LOW(1)
                 ;     804                Red(R);
0006e0 940e 0f15 	CALL SUBOPT_0x2D
0006e2 940e 0f91 	CALL SUBOPT_0x41
                 ;     805                 delay_ms(speedx);
                 ;     806           };
0006e4 5031      	SUBI R19,1
0006e5 cfef      	RJMP _0x130
                 _0x131:
                 ;     807 
                 ;     808 
                 ;     809 
                 ;     810      zvyk();
0006e6 940e 025f 	CALL _zvyk
                 ;     811 
                 ;     812      return;
0006e8 940e 146e 	CALL __LOADLOCR4
0006ea 9626      	ADIW R28,6
0006eb 9508      	RET
                 ;     813    }
                 ;     814 
                 ;     815 
                 ;     816 
                 ;     817 
                 ;     818 void fxcalculator (void ) // функція для обчислення значень регістрів
                 ;     819 {
                 _fxcalculator:
                 ;     820  if (fxx<100)
0006ec 940e 0faf 	CALL SUBOPT_0x45
0006ee e0e0
0006ef e0f0
0006f0 ec68
0006f1 e472      	__GETD1N 0x42C80000
0006f2 940e 143d 	CALL __CMPF12
0006f4 f448      	BRSH _0x132
                 ;     821    {
                 ;     822      N=64;  // для частот 1…100гц
0006f5 e4e0      	LDI  R30,LOW(64)
0006f6 2ebe      	MOV  R11,R30
                 ;     823      TCCR3B=0x1B;  // n=64
0006f7 e1eb      	LDI  R30,LOW(27)
0006f8 940e 0fb8 	CALL SUBOPT_0x46
                 ;     824      ICR3top = (3680000/(fxx*N))-1;
                 ;     825      if (ICR3top==0) ICR3top=1;
0006fa f411      	BRNE _0x133
0006fb 940e 0fdb 	CALL SUBOPT_0x47
                 ;     826      ICR3H =(char)(( ICR3top)>>8);    // - high b
                 _0x133:
0006fd c008      	RJMP _0x296
                 ;     827      ICR3L =(char)( ICR3top);         // - low byte
                 ;     828      // ICR3H=0x01;  ICR3L=0x6f;      // 10000
                 ;     829     }
                 ;     830  else
                 _0x132:
                 ;     831    {
                 ;     832      N=1; // для частот 100…30000гц
0006fe e0e1      	LDI  R30,LOW(1)
0006ff 2ebe      	MOV  R11,R30
                 ;     833      TCCR3B=0x19;    // n-prescale=1
000700 e1e9      	LDI  R30,LOW(25)
000701 940e 0fb8 	CALL SUBOPT_0x46
                 ;     834      ICR3top= (3680000/(fxx*N))-1;
                 ;     835      if (ICR3top==0) ICR3top=1;
000703 f411      	BRNE _0x135
000704 940e 0fdb 	CALL SUBOPT_0x47
                 ;     836      ICR3H =(char)(( ICR3top)>>8);  // - high byte
                 _0x135:
                 _0x296:
000706 91e0 0538 	LDS  R30,_ICR3top+1
000708 93e0 0081 	STS  129,R30
                 ;     837      ICR3L =(char)( ICR3top);       // - low byte
00070a 91e0 0537 	LDS  R30,_ICR3top
00070c 93e0 0080 	STS  128,R30
                 ;     838     }
                 ;     839  }
00070e 9508      	RET
                 ;     840  //--end fxcalculator
                 ;     841 
                 ;     842 
                 ;     843  void savesetup(void)  // функція menu save_setup
                 ;     844   {
                 _savesetup:
                 ;     845      //fxx=1.2;
                 ;     846     rom_fxx=fxx;    // запис в ROM значення частоти
00070f 940e 0fe2 	CALL SUBOPT_0x48
000711 e0a0      	LDI  R26,LOW(_rom_fxx)
000712 e0b0      	LDI  R27,HIGH(_rom_fxx)
000713 940e 1292 	CALL __EEPROMWRD
                 ;     847      //  tp= TMAX;
                 ;     848            zvyk();
000715 940e 025f 	CALL _zvyk
                 ;     849   }
000717 9508      	RET
                 ;     850 
                 ;     851 
                 ;     852  void savespeed(void)  // функція menu save_setup
                 ;     853   {
                 _savespeed:
                 ;     854      //speed=10;        //ms
                 ;     855     rom_speed=speed;    // запис в ROM значення швидкості проходження тестів
000718 940e 0f4e 	CALL SUBOPT_0x36
00071a e0a4      	LDI  R26,LOW(_rom_speed)
00071b e0b0      	LDI  R27,HIGH(_rom_speed)
00071c 940e 129d 	CALL __EEPROMWRW
                 ;     856      //  tp= TMAX;
                 ;     857 
                 ;     858            zvyk();
00071e 940e 025f 	CALL _zvyk
                 ;     859   }
000720 9508      	RET
                 ;     860 
                 ;     861 
                 ;     862 
                 ;     863 
                 ;     864 
                 ;     865 void main_menu(void)   // ГОЛОВНЕ МЕНЮ і його підменю
                 ;     866 {
                 _main_menu:
                 ;     867    char *menu_items[7]=  { " SET Fx < 300Hz ", " SET Fx > 300Hz ", "SAVE SETUP", "SAVE SPEED", "SET TEST SPEED", "TEST RGB"};
                 ;     868 
                 ;     869    unsigned char x_pos[] = {0, 0, 3, 3, 1, 4};   // координати для items menu
                 ;     870    int sel=0;                                    // по замовчуванню ставити 0
                 ;     871 
                 ;     872     while(1)
000721 9764      	SBIW R28,20
000722 e184      	LDI  R24,20
000723 e0a0      	LDI  R26,LOW(0)
000724 e0b0      	LDI  R27,HIGH(0)
000725 ece2      	LDI  R30,LOW(_0x137*2)
000726 e0f0      	LDI  R31,HIGH(_0x137*2)
000727 940e 1473 	CALL __INITLOCB
000729 931a      	ST   -Y,R17
00072a 930a      	ST   -Y,R16
                 ;	*menu_items -> Y+8
                 ;	x_pos -> Y+2
                 ;	sel -> R16,R17
00072b e000      	LDI  R16,0
00072c e010      	LDI  R17,0
                 _0x138:
                 ;     873     {
                 ;     874        PREV_PINF=PINF;   // кн. на порті F
00072d b040      	IN   R4,0
                 ;     875        lcd_gotoxy(0,0);
00072e 940e 0feb 	CALL SUBOPT_0x49
                 ;     876        lcd_putsf("***** MENU *****");
000730 e5e9
000731 e0f1      	__POINTW1FN _0,101
000732 940e 0ff0 	CALL SUBOPT_0x4A
                 ;     877        lcd_gotoxy(x_pos[sel],1);
000734 01de      	MOVW R26,R28
000735 9612      	ADIW R26,2
000736 0fa0      	ADD  R26,R16
000737 1fb1      	ADC  R27,R17
000738 91ec      	LD   R30,X
000739 940e 0dfd 	CALL SUBOPT_0x8
                 ;     878        lcd_puts(menu_items[sel]);
00073b 01f8      	MOVW R30,R16
00073c 01de      	MOVW R26,R28
00073d 9618      	ADIW R26,8
00073e 0fee      	LSL  R30
00073f 1fff      	ROL  R31
000740 0fae      	ADD  R26,R30
000741 1fbf      	ADC  R27,R31
000742 940e 125b 	CALL __GETW1P
000744 940e 0ff4 	CALL SUBOPT_0x4B
                 ;     879 
                 ;     880 
                 ;     881        if (get_key_status(SELECT_PLUS_BTN))  // натиснута кл. "select+" main_menu()
000746 940e 0df1 	CALL SUBOPT_0x6
000748 f0b1      	BREQ _0x13B
                 ;     882         {
                 ;     883           if (!get_prev_key_status(SELECT_PLUS_BTN) || (gSelectPlusCounter == CNTREPEAT))
000749 940e 0eb9 	CALL SUBOPT_0x1D
00074b f019      	BREQ _0x13D
00074c 940e 0ebf 	CALL SUBOPT_0x1E
00074e f481      	BRNE _0x13C
                 _0x13D:
                 ;     884            {
                 ;     885              if (gSelectPlusCounter == CNTREPEAT)
00074f 940e 0ebf 	CALL SUBOPT_0x1E
000751 f411      	BRNE _0x13F
                 ;     886                delay_ms(80);
000752 940e 0ec4 	CALL SUBOPT_0x1F
                 ;     887              if (sel<5)       // кількість пунктів (меню - 1)
                 _0x13F:
000754 3005
000755 e0e0
000756 071e      	__CPWRN 16,17,5
000757 f41c      	BRGE _0x140
                 ;     888                sel++;
000758 5f0f
000759 4f1f      	__ADDWRN 16,17,1
                 ;     889              else sel = 0;
00075a c002      	RJMP _0x141
                 _0x140:
00075b e000
00075c e010      	__GETWRN 16,17,0
                 ;     890              lcd_clear();
                 _0x141:
00075d 940e 019f 	CALL _lcd_clear
                 ;     891           }
                 ;     892         }
                 _0x13C:
                 ;     893        // -end "select+" - main_menu()-
                 ;     894 
                 ;     895         if (get_key_status(SELECT_MINUS_BTN))    // натиснута кл. "select-" main_menu()
                 _0x13B:
00075f 940e 0df7 	CALL SUBOPT_0x7
000761 f0b1      	BREQ _0x142
                 ;     896          {
                 ;     897             if (!get_prev_key_status(SELECT_MINUS_BTN) || (gSelectMinusCounter == CNTREPEAT))
000762 940e 0ed4 	CALL SUBOPT_0x22
000764 f019      	BREQ _0x144
000765 940e 0eda 	CALL SUBOPT_0x23
000767 f481      	BRNE _0x143
                 _0x144:
                 ;     898               {
                 ;     899                 if (gSelectMinusCounter == CNTREPEAT)
000768 940e 0eda 	CALL SUBOPT_0x23
00076a f411      	BRNE _0x146
                 ;     900                    delay_ms(80);
00076b 940e 0ec4 	CALL SUBOPT_0x1F
                 ;     901                 if (sel>0)
                 _0x146:
00076d 2400      	CLR  R0
00076e 1600      	CP   R0,R16
00076f 0601      	CPC  R0,R17
000770 f41c      	BRGE _0x147
                 ;     902                     sel--;
000771 5001
000772 4010      	__SUBWRN 16,17,1
                 ;     903                 else sel = 5;   // кількість пунктів (меню - 1)
000773 c002      	RJMP _0x148
                 _0x147:
000774 e005
000775 e010      	__GETWRN 16,17,5
                 ;     904                 lcd_clear();
                 _0x148:
000776 940e 019f 	CALL _lcd_clear
                 ;     905              }
                 ;     906           }
                 _0x143:
                 ;     907          // -end select(-) -main_menu()
                 ;     908 
                 ;     909         if (get_key_status(MENU_ENTER_BTN))      // натиснута кл. "enter"  main_menu()
                 _0x142:
000778 940e 0ee7 	CALL SUBOPT_0x25
00077a f411      	BRNE PC+3
00077b 940c 07f6 	JMP _0x149
                 ;     910           {
                 ;     911              if (!get_prev_key_status(MENU_ENTER_BTN))
00077d 940e 0eed 	CALL SUBOPT_0x26
00077f f011      	BREQ PC+3
000780 940c 07f6 	JMP _0x14A
                 ;     912                 {
                 ;     913                  //  lcd_clear();
                 ;     914                    switch(sel)
000782 01f8      	MOVW R30,R16
                 ;     915                      {
                 ;     916                        case 0:
000783 9730      	SBIW R30,0
000784 f4a9      	BRNE _0x14E
                 ;     917                           lcd_clear();             // модуль SET Fx< 300 Hz
000785 940e 0ff8 	CALL SUBOPT_0x4C
                 ;     918                           lcd_gotoxy(0,0);
                 ;     919                           lcd_putsf(" Fpwm=");
000787 e6ea
000788 e0f1      	__POINTW1FN _0,118
000789 940e 0ff0 	CALL SUBOPT_0x4A
                 ;     920                           start_p=set_page();
00078b 940e 026a 	CALL _set_page
00078d 940e 0ffb 	CALL SUBOPT_0x4D
                 ;     921                           fxx= (float)start_p;     // значення частоти
                 ;     922                           fxx=fxx/10;
00078f 940e 0faf 	CALL SUBOPT_0x45
000791 940e 100c 	CALL SUBOPT_0x4E
000793 940e 13f8 	CALL __DIVF21
000795 940e 1011 	CALL SUBOPT_0x4F
                 ;     923 
                 ;     924                           fxcalculator();
000797 940e 06ec 	CALL _fxcalculator
                 ;     925                        break;                     // end модуль SET Fx
000799 c05c      	RJMP _0x14D
                 ;     926 
                 ;     927                        case 1:
                 _0x14E:
00079a 30e1      	CPI  R30,LOW(0x1)
00079b e0a0      	LDI  R26,HIGH(0x1)
00079c 07fa      	CPC  R31,R26
00079d f469      	BRNE _0x14F
                 ;     928                           lcd_clear();             // модуль SET Fx >300 Hz
00079e 940e 0ff8 	CALL SUBOPT_0x4C
                 ;     929                           lcd_gotoxy(0,0);
                 ;     930                           lcd_putsf(" Fpwm=");
0007a0 e6ea
0007a1 e0f1      	__POINTW1FN _0,118
0007a2 940e 0ff0 	CALL SUBOPT_0x4A
                 ;     931                           start_p=set_page2();
0007a4 940e 0396 	CALL _set_page2
0007a6 940e 0ffb 	CALL SUBOPT_0x4D
                 ;     932                           fxx= (float)start_p;   // значення частоти
                 ;     933                           fxcalculator();
0007a8 940e 06ec 	CALL _fxcalculator
                 ;     934                        break;
0007aa c04b      	RJMP _0x14D
                 ;     935 
                 ;     936                        case 2:
                 _0x14F:
0007ab 30e2      	CPI  R30,LOW(0x2)
0007ac e0a0      	LDI  R26,HIGH(0x2)
0007ad 07fa      	CPC  R31,R26
0007ae f499      	BRNE _0x150
                 ;     937                          savesetup();  // записати налаштування в память
0007af 940e 070f 	CALL _savesetup
                 ;     938                          lcd_clear();             // модуль SET Fx >300 Hz
0007b1 940e 019f 	CALL _lcd_clear
                 ;     939                          lcd_gotoxy(4,0);
0007b3 e0e4      	LDI  R30,LOW(4)
0007b4 93ea      	ST   -Y,R30
0007b5 e0e0      	LDI  R30,LOW(0)
0007b6 93ea      	ST   -Y,R30
0007b7 940e 01c5 	CALL _lcd_gotoxy
                 ;     940                          lcd_putsf("Save OK!");
0007b9 e7e1
0007ba e0f1      	__POINTW1FN _0,125
0007bb 940e 0ff0 	CALL SUBOPT_0x4A
                 ;     941                          delay_ms(900);
0007bd e8e4      	LDI  R30,LOW(900)
0007be e0f3      	LDI  R31,HIGH(900)
0007bf 940e 0dd1 	CALL SUBOPT_0x0
                 ;     942                        break;
0007c1 c034      	RJMP _0x14D
                 ;     943 
                 ;     944                        case 3:
                 _0x150:
0007c2 30e3      	CPI  R30,LOW(0x3)
0007c3 e0a0      	LDI  R26,HIGH(0x3)
0007c4 07fa      	CPC  R31,R26
0007c5 f499      	BRNE _0x151
                 ;     945                          savespeed() ;   // записати в память значення затримки
0007c6 940e 0718 	CALL _savespeed
                 ;     946                          lcd_clear();             // модуль SET Fx >300 Hz
0007c8 940e 019f 	CALL _lcd_clear
                 ;     947                          lcd_gotoxy(2,0);
0007ca e0e2      	LDI  R30,LOW(2)
0007cb 93ea      	ST   -Y,R30
0007cc e0e0      	LDI  R30,LOW(0)
0007cd 93ea      	ST   -Y,R30
0007ce 940e 01c5 	CALL _lcd_gotoxy
                 ;     948                          lcd_putsf("Save speed OK!");
0007d0 e7ea
0007d1 e0f1      	__POINTW1FN _0,134
0007d2 940e 0ff0 	CALL SUBOPT_0x4A
                 ;     949                          delay_ms(900);
0007d4 e8e4      	LDI  R30,LOW(900)
0007d5 e0f3      	LDI  R31,HIGH(900)
0007d6 940e 0dd1 	CALL SUBOPT_0x0
                 ;     950                        break;
0007d8 c01d      	RJMP _0x14D
                 ;     951 
                 ;     952                        case 4:
                 _0x151:
0007d9 30e4      	CPI  R30,LOW(0x4)
0007da e0a0      	LDI  R26,HIGH(0x4)
0007db 07fa      	CPC  R31,R26
0007dc f449      	BRNE _0x152
                 ;     953                          lcd_clear();             // модуль SET Fx >300 Hz
0007dd 940e 0ff8 	CALL SUBOPT_0x4C
                 ;     954                          lcd_gotoxy(0,0);
                 ;     955                          lcd_putsf(" DELAY=");
0007df e8e9
0007e0 e0f1      	__POINTW1FN _0,149
0007e1 940e 0ff0 	CALL SUBOPT_0x4A
                 ;     956                          set_speed();
0007e3 940e 051c 	CALL _set_speed
                 ;     957                        break;
0007e5 c010      	RJMP _0x14D
                 ;     958 
                 ;     959                        case 5:
                 _0x152:
0007e6 30e5      	CPI  R30,LOW(0x5)
0007e7 e0a0      	LDI  R26,HIGH(0x5)
0007e8 07fa      	CPC  R31,R26
0007e9 f461      	BRNE _0x154
                 ;     960                          lcd_clear();             // модуль SET Fx >300 Hz
0007ea 940e 0ff8 	CALL SUBOPT_0x4C
                 ;     961                          lcd_gotoxy(0,0);
                 ;     962                          lcd_putsf("Testing....wait!");
0007ec e9e1
0007ed e0f1      	__POINTW1FN _0,157
0007ee 940e 0ff0 	CALL SUBOPT_0x4A
                 ;     963                          test (speed);
0007f0 940e 0f4e 	CALL SUBOPT_0x36
0007f2 93fa      	ST   -Y,R31
0007f3 93ea      	ST   -Y,R30
0007f4 940e 0670 	CALL _test
                 ;     964                        break;     //     вставити модуль  для п. меню
                 ;     965                        default: break;    //     вставити модуль  для п. меню
                 _0x154:
                 ;     966                      }
                 _0x14D:
                 ;     967                 }
                 ;     968            }
                 _0x14A:
                 ;     969            // end enter-main_menu()
                 ;     970 
                 ;     971 
                 ;     972           if (get_key_status(ESC_BTN))      // натиснута кл. "exit"  main_menu()
                 _0x149:
0007f6 940e 0f22 	CALL SUBOPT_0x2F
0007f8 f051      	BREQ _0x155
                 ;     973              {
                 ;     974                if (!get_prev_key_status(ESC_BTN))
0007f9 e0e2      	LDI  R30,LOW(2)
0007fa 93ea      	ST   -Y,R30
0007fb 940e 01f8 	CALL _get_prev_key_status
0007fd 30e0      	CPI  R30,0
0007fe f421      	BRNE _0x156
                 ;     975                   {
                 ;     976                     TIMSK&=~(1<<6);      // disable Timer 2 overflow interrupt service routine
0007ff b7e7      	IN   R30,0x37
000800 7bef      	ANDI R30,0xBF
000801 bfe7      	OUT  0x37,R30
                 ;     977                      return;                           // back to working mode
000802 c001      	RJMP _0x27F
                 ;     978                    }
                 ;     979               }
                 _0x156:
                 ;     980              //-end exit-main_menu()-
                 ;     981     }
                 _0x155:
000803 cf29      	RJMP _0x138
                 ;     982  }
                 _0x27F:
000804 8119      	LDD  R17,Y+1
000805 8108      	LDD  R16,Y+0
000806 9666      	ADIW R28,22
000807 9508      	RET
                 ;     983 
                 ;     984 
                 ;     985 void main(void)
                 ;     986 {
                 _main:
                 ;     987 // Declare your local variables here
                 ;     988 
                 ;     989 // Input/Output Ports initialization
                 ;     990 PORTA=0x00;  DDRA=0x00;  // Port A initialization
000808 e0e0      	LDI  R30,LOW(0)
000809 bbeb      	OUT  0x1B,R30
00080a bbea      	OUT  0x1A,R30
                 ;     991 PORTB=0x00;  DDRB=0x00;  // Port B initialization
00080b bbe8      	OUT  0x18,R30
00080c bbe7      	OUT  0x17,R30
                 ;     992 PORTC=0x00;  DDRC=0x00;  // Port C initialization
00080d bbe5      	OUT  0x15,R30
00080e bbe4      	OUT  0x14,R30
                 ;     993 PORTD=0x00;  DDRD=0x00;  // Port D initialization
00080f bbe2      	OUT  0x12,R30
000810 bbe1      	OUT  0x11,R30
                 ;     994 PORTE=0x00; DDRE=0x38;   // Port- порт PE = 00111000 (pin5,6,7) {A,B,C}
000811 b9e3      	OUT  0x3,R30
000812 e3e8      	LDI  R30,LOW(56)
000813 b9e2      	OUT  0x2,R30
                 ;     995 PORTF=0x00;  DDRF=0x00;  // Port F initialization
000814 e0e0      	LDI  R30,LOW(0)
000815 93e0 0062 	STS  98,R30
000817 93e0 0061 	STS  97,R30
                 ;     996 PORTG=0x00;  DDRG=0x00;  // Port G initialization
000819 93e0 0065 	STS  101,R30
00081b 93e0 0064 	STS  100,R30
                 ;     997 
                 ;     998 // Timer/Counter 0 initialization
                 ;     999 // Clock source: System Clock   // Clock value: Timer 0 Stopped
                 ;    1000 // Mode: Normal top=FFh    // OC0 output: Disconnected
                 ;    1001 ASSR=0x00;  TCCR0=0x00; TCNT0=0x00; OCR0=0x00;
00081d bfe0      	OUT  0x30,R30
00081e bfe3      	OUT  0x33,R30
00081f bfe2      	OUT  0x32,R30
000820 bfe1      	OUT  0x31,R30
                 ;    1002 
                 ;    1003 // Timer/Counter 1 initialization
                 ;    1004 // Clock source: System Clock   // Clock value: Timer 1 Stopped
                 ;    1005 // Mode: Normal top=FFFFh
                 ;    1006 // OC1A output: Discon.  // OC1B output: Discon. // OC1C output: Discon.
                 ;    1007 // Noise Canceler: Off
                 ;    1008 // Input Capture on Falling Edge
                 ;    1009 // Timer 1 Overflow Interrupt: Off
                 ;    1010 // Input Capture Interrupt: Off
                 ;    1011 // Compare A Interrupt: Off  Compare B  Interrupt: Off  Compare C  Interrupt: Off
                 ;    1012 TCCR1A=0x00; TCCR1B=0x00;
000821 bdef      	OUT  0x2F,R30
000822 bdee      	OUT  0x2E,R30
                 ;    1013 TCNT1H=0x00; TCNT1L=0x00;
000823 bded      	OUT  0x2D,R30
000824 bdec      	OUT  0x2C,R30
                 ;    1014 ICR1H=0x00;  ICR1L=0x00;
000825 bde7      	OUT  0x27,R30
000826 bde6      	OUT  0x26,R30
                 ;    1015 OCR1AH=0x00; OCR1AL=0x00;   OCR1BH=0x00; OCR1BL=0x00;  OCR1CH=0x00; OCR1CL=0x00;
000827 bdeb      	OUT  0x2B,R30
000828 940e 101a 	CALL SUBOPT_0x50
00082a 93e0 0079 	STS  121,R30
00082c e0e0      	LDI  R30,LOW(0)
00082d 93e0 0078 	STS  120,R30
                 ;    1016 
                 ;    1017 
                 ;    1018 // Timer/Counter 1 initialization
                 ;    1019 // Clock source: System Clock
                 ;    1020 
                 ;    1021 // sound - частота timer1
                 ;    1022 TCCR1A=0x82;      // fast PWM = 14
00082f e8e2      	LDI  R30,LOW(130)
000830 bdef      	OUT  0x2F,R30
                 ;    1023 TCCR1B=0x19;
000831 e1e9      	LDI  R30,LOW(25)
000832 bdee      	OUT  0x2E,R30
                 ;    1024 TCNT1H=0x00;
000833 e0e0      	LDI  R30,LOW(0)
000834 bded      	OUT  0x2D,R30
                 ;    1025 TCNT1L=0x00;
000835 bdec      	OUT  0x2C,R30
                 ;    1026 ICR1H=0x07;        // частота
000836 e0e7      	LDI  R30,LOW(7)
000837 bde7      	OUT  0x27,R30
                 ;    1027 ICR1L=0xCF;        // частота
000838 ecef      	LDI  R30,LOW(207)
000839 bde6      	OUT  0x26,R30
                 ;    1028 OCR1AH=0x03;  //  шпаруватість
00083a e0e3      	LDI  R30,LOW(3)
00083b bdeb      	OUT  0x2B,R30
                 ;    1029 OCR1AL=0xFF;   //  шпаруватість
00083c efef      	LDI  R30,LOW(255)
00083d 940e 101a 	CALL SUBOPT_0x50
                 ;    1030 OCR1BH=0x00;
                 ;    1031 OCR1BL=0x00;
                 ;    1032 
                 ;    1033 
                 ;    1034 
                 ;    1035 
                 ;    1036 
                 ;    1037 
                 ;    1038 
                 ;    1039 // Timer/Counter 2 initialization
                 ;    1040   // Clock source: System Clock
                 ;    1041   // Clock value: 8000.000 kHz  - корегувати!!!!!
                 ;    1042   // Mode: Normal top=FFh
                 ;    1043   // OC2 output: Disconnected
                 ;    1044   TCNT2=0x00;   OCR2=0x00;    TCCR2=0x03;
00083f bde4      	OUT  0x24,R30
000840 e0e0      	LDI  R30,LOW(0)
000841 bde3      	OUT  0x23,R30
000842 e0e3      	LDI  R30,LOW(3)
000843 bde5      	OUT  0x25,R30
                 ;    1045 
                 ;    1046 // Timer/Counter 3 initialization
                 ;    1047 // Clock source: System Clock
                 ;    1048 // Clock value: 3680,000 kHz
                 ;    1049 // Mode: Fast PWM top=ICR3
                 ;    1050 // Noise Canceler: Off
                 ;    1051 // Input Capture on Falling Edge
                 ;    1052 // OC3A output: Non-Inv.
                 ;    1053 // OC3B output: Non-Inv.
                 ;    1054 // OC3C output: Non-Inv.
                 ;    1055 // Timer 3 Overflow Interrupt: On
                 ;    1056 // Input Capture Interrupt: Off
                 ;    1057 // Compare A Match Interrupt: Off
                 ;    1058 // Compare B Match Interrupt: Off
                 ;    1059 // Compare C Match Interrupt: Off
                 ;    1060 TCCR3A=0xAA;
000844 eaea      	LDI  R30,LOW(170)
000845 93e0 008b 	STS  139,R30
                 ;    1061 TCCR3B=0x19;    // n-prescale=1   TCCR3B=0x1A; // n=8
000847 e1e9      	LDI  R30,LOW(25)
000848 93e0 008a 	STS  138,R30
                 ;    1062 
                 ;    1063 TCNT3H=0x00;  TCNT3L=0x00;
00084a e0e0      	LDI  R30,LOW(0)
00084b 93e0 0089 	STS  137,R30
00084d 93e0 0088 	STS  136,R30
                 ;    1064 // ICR3H=0x0E; ICR3L=0x5f;  // E5F = for 1000 hz  Top= ICR3 для FAST PWM mode=14
                 ;    1065 // ICR3H=0x47;  ICR3L=0xdf;   // частота 200 Hz output
                 ;    1066 ICR3H=0x8F;  ICR3L=0xBF;   // частота 100 Hz output    8FBF
00084f e8ef      	LDI  R30,LOW(143)
000850 93e0 0081 	STS  129,R30
000852 ebef      	LDI  R30,LOW(191)
000853 93e0 0080 	STS  128,R30
                 ;    1067 // ICR3H=0x01;  ICR3L=0x6f;   // 10000
                 ;    1068 
                 ;    1069 OCR3AH=0x00; OCR3AL=0x00;
000855 e0e0      	LDI  R30,LOW(0)
000856 93e0 0087 	STS  135,R30
000858 93e0 0086 	STS  134,R30
                 ;    1070 OCR3BH=0x00; OCR3BL=0x00;
00085a 93e0 0085 	STS  133,R30
00085c 93e0 0084 	STS  132,R30
                 ;    1071 OCR3CH=0x00; OCR3CL=0x00;
00085e 93e0 0083 	STS  131,R30
000860 93e0 0082 	STS  130,R30
                 ;    1072 
                 ;    1073 // External Interrupt(s) initialization
                 ;    1074 // INT0: Off , INT1: Off, INT2: Off, INT3: Off, INT4: Off, INT5: Off, INT6: Off, INT7: Off
                 ;    1075 EICRA=0x00;  EICRB=0x00;  EIMSK=0x00;
000862 93e0 006a 	STS  106,R30
000864 bfea      	OUT  0x3A,R30
000865 bfe9      	OUT  0x39,R30
                 ;    1076 
                 ;    1077 // Timer(s)/Counter(s) Interrupt(s) initialization
                 ;    1078 TIMSK=0x00;
000866 bfe7      	OUT  0x37,R30
                 ;    1079 ETIMSK=0x04;  // TIM3_OVF
000867 e0e4      	LDI  R30,LOW(4)
000868 93e0 007d 	STS  125,R30
                 ;    1080 
                 ;    1081 // Analog Comparator initialization
                 ;    1082 // Analog Comparator: Off
                 ;    1083 // Analog Comparator Input Capture by Timer/Counter 1: Off
                 ;    1084 ACSR=0x80;     SFIOR=0x00;
00086a e8e0      	LDI  R30,LOW(128)
00086b b9e8      	OUT  0x8,R30
00086c e0e0      	LDI  R30,LOW(0)
00086d bde0      	OUT  0x20,R30
                 ;    1085 
                 ;    1086 DDRC = 0x60;	// Port C RC5, RC6 ->output used for LCD
00086e e6e0      	LDI  R30,LOW(96)
00086f bbe4      	OUT  0x14,R30
                 ;    1087 DDRA = 0x0F;	// D0-D3 -> output used for LCD
000870 e0ef      	LDI  R30,LOW(15)
000871 bbea      	OUT  0x1A,R30
                 ;    1088 DDRA.7=1;  	// LED1 -> output used for LCD
000872 9ad7      	SBI  0x1A,7
                 ;    1089 PORTA.7=1;      // LED1=1 output used for LCD
000873 9adf      	SBI  0x1B,7
                 ;    1090 DDRC.7=1;       // LWR/-> output used for LCD
000874 9aa7      	SBI  0x14,7
                 ;    1091 PORTC.7=0;      // LWR/=0  output used for LCD
000875 98af      	CBI  0x15,7
                 ;    1092 DDRD.2 = 1;     // SD5/-> включити живлення +5Х LCD
000876 9a8a      	SBI  0x11,2
                 ;    1093 PORTD.2=1;      // SD5/=1 включити живлення +5Х LCD
000877 9a92      	SBI  0x12,2
                 ;    1094 
                 ;    1095 //select reference voltage for ADC
                 ;    1096 ADMUX|=(0<<REFS1)|(0<<REFS0);    // AREF pin - опорна напруга 5в
000878 b1e7      	IN   R30,0x7
000879 b9e7      	OUT  0x7,R30
                 ;    1097 ADMUX=ADC_VREF_TYPE & 0xff;    // Bit 5 - ADLAR=0 - 10 бітне АЦП
00087a e0e0      	LDI  R30,LOW(0)
00087b b9e7      	OUT  0x7,R30
                 ;    1098 ADCSRA=0x85;           // Bit 7 - ADEN: ADC Enable
00087c e8e5      	LDI  R30,LOW(133)
00087d b9e6      	OUT  0x6,R30
                 ;    1099                       // Bits 2:0 - ADPS2:0: ADC Prescaler Select Bits =101 -  K=32
                 ;    1100                      // ADC Clock frequency: 4 MHz/32= 125,000 kHz (50kHz - 200kHz = normal )
                 ;    1101 
                 ;    1102 lcd_init();    // ініціалізація LCD
00087e 940e 01d3 	CALL _lcd_init
                 ;    1103 lcd_clear();
000880 940e 0ff8 	CALL SUBOPT_0x4C
                 ;    1104 lcd_gotoxy(0,0);
                 ;    1105 lcd_putsf("RGB STRIP TESTER");
000882 eae2
000883 e0f1      	__POINTW1FN _0,174
000884 940e 0ff0 	CALL SUBOPT_0x4A
                 ;    1106 delay_ms (700);
000886 940e 101f 	CALL SUBOPT_0x51
                 ;    1107 delay_ms (700);
000888 940e 101f 	CALL SUBOPT_0x51
                 ;    1108 
                 ;    1109   fxx=rom_fxx;       // прочитати опорну частоту з  памяті в змінну  fxx
00088a e0a0      	LDI  R26,LOW(_rom_fxx)
00088b e0b0      	LDI  R27,HIGH(_rom_fxx)
00088c 940e 127d 	CALL __EEPROMRDD
00088e 940e 1011 	CALL SUBOPT_0x4F
                 ;    1110  speed=rom_speed;  // прочитати delay  з  памяті в змінну speed
000890 e0a4      	LDI  R26,LOW(_rom_speed)
000891 e0b0      	LDI  R27,HIGH(_rom_speed)
000892 940e 1282 	CALL __EEPROMRDW
000894 940e 0f53 	CALL SUBOPT_0x37
                 ;    1111 
                 ;    1112   fxcalculator(); // функція для обчислення значень регістрів TCCR3B, ICR3H,  ICR3L
000896 940e 06ec 	CALL _fxcalculator
                 ;    1113 
                 ;    1114  //ініціалізація кнопок menu на порті F
                 ;    1115 BTNS_PORT=(1<<MENU_ENTER_BTN)|(1<<SELECT_PLUS_BTN)|(1<<SELECT_MINUS_BTN)|(1<<ESC_BTN);
000898 e1ee      	LDI  R30,LOW(30)
000899 93e0 0062 	STS  98,R30
                 ;    1116 BTNS_PORT_DDR &= ~(1<<MENU_ENTER_BTN)&~(1<<SELECT_PLUS_BTN)&~(1<<SELECT_MINUS_BTN)&~(1<<ESC_BTN);
00089b 91e0 0061 	LDS  R30,97
00089d 7ee1      	ANDI R30,LOW(0xE1)
00089e 93e0 0061 	STS  97,R30
                 ;    1117 
                 ;    1118 // Global enable interrupts
                 ;    1119 #asm("sei")
0008a0 9478      	sei
                 ;    1120 
                 ;    1121 
                 ;    1122 while (1)
                 _0x163:
                 ;    1123    {
                 ;    1124 // Place your code here
                 ;    1125 
                 ;    1126     PREV_PINF=PINF;
0008a1 b040      	IN   R4,0
                 ;    1127     k=get_key_status(MENU_ENTER_BTN);   // - якщо натиснути клавішу ENTER то в  МЕНЮ
0008a2 e0e3      	LDI  R30,LOW(3)
0008a3 93ea      	ST   -Y,R30
0008a4 940e 01ef 	CALL _get_key_status
0008a6 2e5e      	MOV  R5,R30
                 ;    1128 
                 ;    1129          if (k==1)
0008a7 e0e1      	LDI  R30,LOW(1)
0008a8 15e5      	CP   R30,R5
0008a9 f461      	BRNE _0x166
                 ;    1130            {
                 ;    1131               lcd_clear();
0008aa 940e 019f 	CALL _lcd_clear
                 ;    1132               TIMSK |= (1<<6);   // enable Timer 2 overflow interrupt service routine
0008ac b7e7      	IN   R30,0x37
0008ad 64e0      	ORI  R30,0x40
0008ae bfe7      	OUT  0x37,R30
                 ;    1133               main_menu();      // головне меню
0008af 940e 0721 	CALL _main_menu
                 ;    1134               TIMSK&=~(1<<6); // disable Timer 2 overflow interrupt service routine
0008b1 b7e7      	IN   R30,0x37
0008b2 7bef      	ANDI R30,0xBF
0008b3 bfe7      	OUT  0x37,R30
                 ;    1135               lcd_clear();
0008b4 940e 019f 	CALL _lcd_clear
                 ;    1136            }
                 ;    1137 
                 ;    1138      lcd_gotoxy(0,0);
                 _0x166:
0008b6 940e 0feb 	CALL SUBOPT_0x49
                 ;    1139      lcd_putsf("                ");
0008b8 ebe3
0008b9 e0f1      	__POINTW1FN _0,191
0008ba 940e 0ff0 	CALL SUBOPT_0x4A
                 ;    1140      lcd_gotoxy(0,0);
0008bc 940e 0feb 	CALL SUBOPT_0x49
                 ;    1141     // lcd_putsf("F");
                 ;    1142      fx=(int)ICR3L;   // частота pwm
0008be 91e0 0080 	LDS  R30,128
0008c0 e0f0      	LDI  R31,0
0008c1 940e 11dc 	CALL __CWD1
0008c3 93e0 0525 	STS  _fx,R30
0008c5 93f0 0526 	STS  _fx+1,R31
0008c7 9360 0527 	STS  _fx+2,R22
0008c9 9370 0528 	STS  _fx+3,R23
                 ;    1143      ICR3 = ((ICR3H & 0xffff)<<8)|ICR3L;    // fx= ICR3 = ICR3H=0x0E; ICR3L=0x5f, {3679}
0008cb 91e0 0081 	LDS  R30,129
0008cd e0f0      	LDI  R31,0
0008ce 7fef      	ANDI R30,LOW(0xFFFF)
0008cf 2ffe      	MOV  R31,R30
0008d0 e0e0      	LDI  R30,0
0008d1 01df      	MOVW R26,R30
0008d2 91e0 0080 	LDS  R30,128
0008d4 e0f0      	LDI  R31,0
0008d5 2bea      	OR   R30,R26
0008d6 2bfb      	OR   R31,R27
0008d7 016f      	MOVW R12,R30
                 ;    1144 // fx= SYS_FREQ/(ICR3+1)/8;   // n=8
                 ;    1145 // fx= SYS_FREQ/(ICR3+1);     // n=1
                 ;    1146 
                 ;    1147      if (fxx>1)
0008d8 940e 0faf 	CALL SUBOPT_0x45
0008da 940e 1022 	CALL SUBOPT_0x52
0008dc 940e 143d 	CALL __CMPF12
0008de f009      	BREQ PC+2
0008df f410      	BRCC PC+3
0008e0 940c 08ec 	JMP  _0x167
                 ;    1148      {
                 ;    1149         tx=(1000000/(fxx));
0008e2 940e 0fe2 	CALL SUBOPT_0x48
0008e4 e0a0
0008e5 e2b4
0008e6 e784
0008e7 e499      	__GETD2N 0x49742400
0008e8 940e 1027 	CALL SUBOPT_0x53
                 ;    1150         od='u';
0008ea e7e5      	LDI  R30,LOW(117)
0008eb c009      	RJMP _0x297
                 ;    1151      }
                 ;    1152      else
                 _0x167:
                 ;    1153      {
                 ;    1154        tx=(1000/fxx);
0008ec 940e 0fe2 	CALL SUBOPT_0x48
0008ee e0a0
0008ef e0b0
0008f0 e78a
0008f1 e494      	__GETD2N 0x447A0000
0008f2 940e 1027 	CALL SUBOPT_0x53
                 ;    1155        od='m';
0008f4 e6ed      	LDI  R30,LOW(109)
                 _0x297:
0008f5 93e0 0552 	STS  _od,R30
                 ;    1156      };
                 ;    1157 
                 ;    1158 
                 ;    1159      if (fxx<=300)
0008f7 940e 0faf 	CALL SUBOPT_0x45
0008f9 e0e0
0008fa e0f0
0008fb e966
0008fc e473      	__GETD1N 0x43960000
0008fd 940e 143d 	CALL __CMPF12
0008ff f019      	BREQ PC+4
000900 f010      	BRCS PC+3
000901 940c 0908 	JMP  _0x169
                 ;    1160      {sprintf(buffer,"%.1fHz ", fxx);}
000903 940e 1034 	CALL SUBOPT_0x54
000905 ece4
000906 e0f1      	__POINTW1FN _0,208
000907 c004      	RJMP _0x298
                 ;    1161      else
                 _0x169:
                 ;    1162      sprintf(buffer,"%.0fHz ", fxx);
000908 940e 1034 	CALL SUBOPT_0x54
00090a ecec
00090b e0f1      	__POINTW1FN _0,216
                 _0x298:
00090c 93fa      	ST   -Y,R31
00090d 93ea      	ST   -Y,R30
00090e 940e 0fe2 	CALL SUBOPT_0x48
000910 940e 1039 	CALL SUBOPT_0x55
                 ;    1163 
                 ;    1164      lcd_puts(buffer);
000912 940e 1040 	CALL SUBOPT_0x56
                 ;    1165      delay_ms (500);
000914 efe4      	LDI  R30,LOW(500)
000915 e0f1      	LDI  R31,HIGH(500)
000916 940e 0dd1 	CALL SUBOPT_0x0
                 ;    1166 
                 ;    1167      lcd_putsf("T");
000918 ede4
000919 e0f1      	__POINTW1FN _0,224
00091a 940e 0ff0 	CALL SUBOPT_0x4A
                 ;    1168 
                 ;    1169      if (fxx==100)
00091c 940e 0faf 	CALL SUBOPT_0x45
00091e 30a0
00091f e0e0
000920 07be
000921 ece8
000922 078e
000923 e4e2
000924 079e      	__CPD2N 0x42C80000
000925 f461      	BRNE _0x16B
                 ;    1170         {tx=10000;};
000926 e1e0
000927 e2f7
000928 e060
000929 e070      	__GETD1N 0x2710
00092a 93e0 0529 	STS  _tx,R30
00092c 93f0 052a 	STS  _tx+1,R31
00092e 9360 052b 	STS  _tx+2,R22
000930 9370 052c 	STS  _tx+3,R23
                 _0x16B:
                 ;    1171      // {tx=9999;};
                 ;    1172      sprintf(buffer,"%ld%cS", tx,od);
000932 940e 1034 	CALL SUBOPT_0x54
000934 ede6
000935 e0f1      	__POINTW1FN _0,226
000936 93fa      	ST   -Y,R31
000937 93ea      	ST   -Y,R30
000938 91e0 0529 	LDS  R30,_tx
00093a 91f0 052a 	LDS  R31,_tx+1
00093c 9160 052b 	LDS  R22,_tx+2
00093e 9170 052c 	LDS  R23,_tx+3
000940 940e 126b 	CALL __PUTPARD1
000942 91e0 0552 	LDS  R30,_od
000944 940e 0f36 	CALL SUBOPT_0x32
000946 e088      	LDI  R24,8
000947 940e 0d8e 	CALL _sprintf
000949 962c      	ADIW R28,12
                 ;    1173      lcd_puts(buffer);
00094a 940e 1040 	CALL SUBOPT_0x56
                 ;    1174 
                 ;    1175      lcd_gotoxy(0,1);
00094c e0e0      	LDI  R30,LOW(0)
00094d 940e 0dfd 	CALL SUBOPT_0x8
                 ;    1176      lcd_putsf("                ");
00094f ebe3
000950 e0f1      	__POINTW1FN _0,191
000951 940e 0ff0 	CALL SUBOPT_0x4A
                 ;    1177      ADC_INPUT = 0x00; // порт PF0
000953 24aa      	CLR  R10
                 ;    1178      adc_in= read_adc(ADC_INPUT);    // міряємо і отримуємо результат перетворення
000954 940e 1043 	CALL SUBOPT_0x57
                 ;    1179      indication=adc_in/0.1024;          // коефіцієнт залежить від опорної напруги
                 ;    1180      tinf= indication/1000;
                 ;    1181      Dgreen= (unsigned int)((tinf/2/vref)*100);  // перевірити опорну
000956 93e0 0543 	STS  _Dgreen,R30
000958 93f0 0544 	STS  _Dgreen+1,R31
                 ;    1182      lcd_gotoxy(0,1);
00095a e0e0      	LDI  R30,LOW(0)
00095b 940e 0dfd 	CALL SUBOPT_0x8
                 ;    1183      sprintf(buffer," R%u%%", Dgreen);    // buffer for LCD - ADC - Dblue
00095d 940e 1034 	CALL SUBOPT_0x54
00095f eded
000960 e0f1      	__POINTW1FN _0,233
000961 93fa      	ST   -Y,R31
000962 93ea      	ST   -Y,R30
000963 91e0 0543 	LDS  R30,_Dgreen
000965 91f0 0544 	LDS  R31,_Dgreen+1
000967 940e 1096 	CALL SUBOPT_0x58
                 ;    1184      lcd_puts(buffer);
000969 940e 1040 	CALL SUBOPT_0x56
                 ;    1185 
                 ;    1186      ADC_INPUT = 0x05; // порт PF5
00096b e0e5      	LDI  R30,LOW(5)
00096c 2eae      	MOV  R10,R30
                 ;    1187      adc_in= read_adc(ADC_INPUT);    // міряємо і отримуємо результат перетворення
00096d 940e 1043 	CALL SUBOPT_0x57
                 ;    1188      indication=adc_in/0.1024;          // коефіцієнт залежить від опорної напруги
                 ;    1189      tinf= indication/1000;
                 ;    1190      Dred= (unsigned int)((tinf/2/vref)*100);  // перевірити опорну
00096f 93e0 0541 	STS  _Dred,R30
000971 93f0 0542 	STS  _Dred+1,R31
                 ;    1191      //sprintf(buffer," G=%u", Dred);    // buffer for LCD - ADC - Dblue
                 ;    1192      sprintf(buffer," G%u%%", Dred);    // buffer for LCD - ADC - Dblue
000973 940e 1034 	CALL SUBOPT_0x54
000975 eee4
000976 e0f1      	__POINTW1FN _0,240
000977 93fa      	ST   -Y,R31
000978 93ea      	ST   -Y,R30
000979 91e0 0541 	LDS  R30,_Dred
00097b 91f0 0542 	LDS  R31,_Dred+1
00097d 940e 1096 	CALL SUBOPT_0x58
                 ;    1193 
                 ;    1194      lcd_puts(buffer);
00097f 940e 1040 	CALL SUBOPT_0x56
                 ;    1195 
                 ;    1196      ADC_INPUT = 0x06; // порт PF6    blue
000981 e0e6      	LDI  R30,LOW(6)
000982 2eae      	MOV  R10,R30
                 ;    1197      adc_in= read_adc(ADC_INPUT);    // міряємо і отримуємо результат перетворення
000983 940e 1043 	CALL SUBOPT_0x57
                 ;    1198      indication=adc_in/0.1024;          // коефіцієнт залежить від опорної напруги
                 ;    1199      tinf= indication/1000;
                 ;    1200      Dblue= (unsigned int)((tinf/2/vref)*100);  // перевірити опорну
000985 93e0 0545 	STS  _Dblue,R30
000987 93f0 0546 	STS  _Dblue+1,R31
                 ;    1201      sprintf(buffer," B%u%%", Dblue);    // buffer for LCD - ADC - Dblue
000989 940e 1034 	CALL SUBOPT_0x54
00098b eeeb
00098c e0f1      	__POINTW1FN _0,247
00098d 93fa      	ST   -Y,R31
00098e 93ea      	ST   -Y,R30
00098f 91e0 0545 	LDS  R30,_Dblue
000991 91f0 0546 	LDS  R31,_Dblue+1
000993 940e 1096 	CALL SUBOPT_0x58
                 ;    1202      lcd_puts(buffer);
000995 940e 1040 	CALL SUBOPT_0x56
                 ;    1203 
                 ;    1204      RedPwm = (ICR3/100)*Dred;
000997 01d6      	MOVW R26,R12
000998 940e 0e44 	CALL SUBOPT_0x12
00099a 91a0 0541 	LDS  R26,_Dred
00099c 91b0 0542 	LDS  R27,_Dred+1
00099e 940e 11e6 	CALL __MULW12U
0009a0 940e 0f67 	CALL SUBOPT_0x3B
                 ;    1205      if (RedPwm==0) RedPwm=1;
0009a2 91e0 053b 	LDS  R30,_RedPwm
0009a4 91f0 053c 	LDS  R31,_RedPwm+1
0009a6 9730      	SBIW R30,0
0009a7 f421      	BRNE _0x16C
0009a8 e0e1      	LDI  R30,LOW(1)
0009a9 e0f0      	LDI  R31,HIGH(1)
0009aa 940e 0f67 	CALL SUBOPT_0x3B
                 ;    1206      redpwml=(char)(RedPwm);        // Dred% pwm  RED - low byte
                 _0x16C:
0009ac 940e 0f6c 	CALL SUBOPT_0x3C
                 ;    1207      redpwmh=(char)((RedPwm)>>8);  // Dred% pwm  RED - high byte
                 ;    1208 
                 ;    1209      GreenPwm = (ICR3/100)*Dgreen;
0009ae 01d6      	MOVW R26,R12
0009af 940e 0e44 	CALL SUBOPT_0x12
0009b1 91a0 0543 	LDS  R26,_Dgreen
0009b3 91b0 0544 	LDS  R27,_Dgreen+1
0009b5 940e 11e6 	CALL __MULW12U
0009b7 940e 0f75 	CALL SUBOPT_0x3D
                 ;    1210      if (GreenPwm==0) GreenPwm=1;
0009b9 91e0 053d 	LDS  R30,_GreenPwm
0009bb 91f0 053e 	LDS  R31,_GreenPwm+1
0009bd 9730      	SBIW R30,0
0009be f421      	BRNE _0x16D
0009bf e0e1      	LDI  R30,LOW(1)
0009c0 e0f0      	LDI  R31,HIGH(1)
0009c1 940e 0f75 	CALL SUBOPT_0x3D
                 ;    1211      greenpwml=(char)(GreenPwm);
                 _0x16D:
0009c3 940e 0f7a 	CALL SUBOPT_0x3E
                 ;    1212      greenpwmh=(char)((GreenPwm)>>8);  //  Dgreen% pwm  GREEN - high byte
                 ;    1213 
                 ;    1214      BluePwm = (ICR3/100)*Dblue;
0009c5 01d6      	MOVW R26,R12
0009c6 940e 0e44 	CALL SUBOPT_0x12
0009c8 91a0 0545 	LDS  R26,_Dblue
0009ca 91b0 0546 	LDS  R27,_Dblue+1
0009cc 940e 11e6 	CALL __MULW12U
0009ce 940e 0f83 	CALL SUBOPT_0x3F
                 ;    1215      if (BluePwm==0) BluePwm=1;
0009d0 91e0 053f 	LDS  R30,_BluePwm
0009d2 91f0 0540 	LDS  R31,_BluePwm+1
0009d4 9730      	SBIW R30,0
0009d5 f421      	BRNE _0x16E
0009d6 e0e1      	LDI  R30,LOW(1)
0009d7 e0f0      	LDI  R31,HIGH(1)
0009d8 940e 0f83 	CALL SUBOPT_0x3F
                 ;    1216      bluepwml=(char)(BluePwm);
                 _0x16E:
0009da 940e 0f88 	CALL SUBOPT_0x40
                 ;    1217      bluepwmh=(char)((BluePwm)>>8);   // Dblue% pwm  BLUE - high byte
                 ;    1218 
                 ;    1219       ADC_INPUT = 0x07; // порт PF7    // напруга живлення
0009dc e0e7      	LDI  R30,LOW(7)
0009dd 2eae      	MOV  R10,R30
                 ;    1220      adc_in= read_adc(ADC_INPUT);    // міряємо і отримуємо результат перетворення
0009de 92aa      	ST   -Y,R10
0009df 940e 0252 	CALL _read_adc
0009e1 93e0 0547 	STS  _adc_in,R30
0009e3 93f0 0548 	STS  _adc_in+1,R31
                 ;    1221      indication=adc_in/0.1024;          // коефіцієнт залежить від опорної напруги
0009e5 2766      	CLR  R22
0009e6 2777      	CLR  R23
0009e7 940e 1322 	CALL __CDF1
0009e9 01df      	MOVW R26,R30
0009ea 01cb      	MOVW R24,R22
0009eb e1e7
0009ec ebf7
0009ed ed61
0009ee e37d      	__GETD1N 0x3DD1B717
0009ef 940e 13f8 	CALL __DIVF21
0009f1 93e0 0549 	STS  _indication,R30
0009f3 93f0 054a 	STS  _indication+1,R31
0009f5 9360 054b 	STS  _indication+2,R22
0009f7 9370 054c 	STS  _indication+3,R23
                 ;    1222      tinf= indication/1000;
0009f9 91a0 0549 	LDS  R26,_indication
0009fb 91b0 054a 	LDS  R27,_indication+1
0009fd 9180 054b 	LDS  R24,_indication+2
0009ff 9190 054c 	LDS  R25,_indication+3
000a01 e0e0
000a02 e0f0
000a03 e76a
000a04 e474      	__GETD1N 0x447A0000
000a05 940e 13f8 	CALL __DIVF21
000a07 93e0 054d 	STS  _tinf,R30
000a09 93f0 054e 	STS  _tinf+1,R31
000a0b 9360 054f 	STS  _tinf+2,R22
000a0d 9370 0550 	STS  _tinf+3,R23
                 ;    1223 
                 ;    1224      delay_ms (700);
000a0f 940e 101f 	CALL SUBOPT_0x51
                 ;    1225      delay_ms (700);
000a11 940e 101f 	CALL SUBOPT_0x51
                 ;    1226 
                 ;    1227 
                 ;    1228     };
000a13 ce8d      	RJMP _0x163
                 ;    1229 }
                 _0x16F:
000a14 cfff      	RJMP _0x16F
                 
                 	#ifndef __SLEEP_DEFINED__
                 	#endif
                 _getchar:
000a15 9b5f           sbis usr,rxc
000a16 cffe           rjmp _getchar
000a17 b1ec           in   r30,udr
000a18 9508      	RET
                 _putchar:
000a19 9b5d           sbis usr,udre
000a1a cffe           rjmp _putchar
000a1b 81e8           ld   r30,y
000a1c b9ec           out  udr,r30
000a1d 9621      	ADIW R28,1
000a1e 9508      	RET
                 __put_G2:
000a1f 931a      	ST   -Y,R17
000a20 930a      	ST   -Y,R16
000a21 81ac      	LDD  R26,Y+4
000a22 81bd      	LDD  R27,Y+4+1
000a23 940e 125b 	CALL __GETW1P
000a25 9730      	SBIW R30,0
000a26 f0b9      	BREQ _0x17D
000a27 81aa      	LDD  R26,Y+2
000a28 81bb      	LDD  R27,Y+2+1
000a29 940e 125b 	CALL __GETW1P
000a2b 018f      	MOVW R16,R30
000a2c 9730      	SBIW R30,0
000a2d f049      	BREQ _0x17F
000a2e 3002
000a2f e0e0
000a30 071e      	__CPWRN 16,17,2
000a31 f058      	BRLO _0x180
000a32 01f8      	MOVW R30,R16
000a33 9731      	SBIW R30,1
000a34 018f      	MOVW R16,R30
000a35 93ed      	ST   X+,R30
000a36 93fc      	ST   X,R31
                 _0x17F:
000a37 81ac      	LDD  R26,Y+4
000a38 81bd      	LDD  R27,Y+4+1
000a39 940e 1099 	CALL SUBOPT_0x59
000a3b 81ae      	LDD  R26,Y+6
000a3c 83a0      	STD  Z+0,R26
                 _0x180:
000a3d c004      	RJMP _0x181
                 _0x17D:
000a3e 81ee      	LDD  R30,Y+6
000a3f 93ea      	ST   -Y,R30
000a40 940e 0a19 	CALL _putchar
                 _0x181:
000a42 8119      	LDD  R17,Y+1
000a43 8108      	LDD  R16,Y+0
000a44 9627      	ADIW R28,7
000a45 9508      	RET
                 __ftoa_G2:
000a46 9724      	SBIW R28,4
000a47 931a      	ST   -Y,R17
000a48 930a      	ST   -Y,R16
000a49 85a8      	LDD  R26,Y+8
000a4a 30a7      	CPI  R26,LOW(0x7)
000a4b f010      	BRLO _0x182
000a4c e0e6      	LDI  R30,LOW(6)
000a4d 87e8      	STD  Y+8,R30
                 _0x182:
000a4e 85e8      	LDD  R30,Y+8
000a4f eda6      	LDI  R26,LOW(__fround_G2*2)
000a50 e0b0      	LDI  R27,HIGH(__fround_G2*2)
000a51 e0f0      	LDI  R31,0
000a52 940e 11d1 	CALL __LSLW2
000a54 0fea      	ADD  R30,R26
000a55 1ffb      	ADC  R31,R27
000a56 940e 1265 	CALL __GETD1PF
000a58 940e 10a0 	CALL SUBOPT_0x5A
000a5a 940e 135c 	CALL __ADDF12
000a5c 940e 10a5 	CALL SUBOPT_0x5B
000a5e e010      	LDI  R17,LOW(0)
000a5f 940e 1022 	CALL SUBOPT_0x52
000a61 940e 10aa 	CALL SUBOPT_0x5C
                 _0x183:
000a63 940e 10af 	CALL SUBOPT_0x5D
000a65 940e 143d 	CALL __CMPF12
000a67 f040      	BRLO _0x185
000a68 940e 10b4 	CALL SUBOPT_0x5E
000a6a 940e 13aa 	CALL __MULF12
000a6c 940e 10aa 	CALL SUBOPT_0x5C
000a6e 5f1f      	SUBI R17,-LOW(1)
000a6f cff3      	RJMP _0x183
                 _0x185:
000a70 3010      	CPI  R17,0
000a71 f429      	BRNE _0x186
000a72 940e 10b9 	CALL SUBOPT_0x5F
000a74 e3e0      	LDI  R30,LOW(48)
000a75 93ec      	ST   X,R30
000a76 c022      	RJMP _0x187
                 _0x186:
                 _0x188:
000a77 2fe1      	MOV  R30,R17
000a78 5011      	SUBI R17,1
000a79 30e0      	CPI  R30,0
000a7a f0f1      	BREQ _0x18A
000a7b 940e 10b4 	CALL SUBOPT_0x5E
000a7d 940e 10c0 	CALL SUBOPT_0x60
000a7f 940e 10aa 	CALL SUBOPT_0x5C
000a81 940e 10af 	CALL SUBOPT_0x5D
000a83 940e 13f8 	CALL __DIVF21
000a85 940e 12eb 	CALL __CFD1
000a87 2f0e      	MOV  R16,R30
000a88 940e 10b9 	CALL SUBOPT_0x5F
000a8a 940e 10cc 	CALL SUBOPT_0x61
000a8c 81aa
000a8d 81bb
000a8e 818c
000a8f 819d      	__GETD2S 2
000a90 940e 10d1 	CALL SUBOPT_0x62
000a92 940e 13aa 	CALL __MULF12
000a94 940e 10a0 	CALL SUBOPT_0x5A
000a96 940e 10d7 	CALL SUBOPT_0x63
000a98 cfde      	RJMP _0x188
                 _0x18A:
                 _0x187:
000a99 85e8      	LDD  R30,Y+8
000a9a 30e0      	CPI  R30,0
000a9b f429      	BRNE _0x18B
000a9c 81ae      	LDD  R26,Y+6
000a9d 81bf      	LDD  R27,Y+6+1
000a9e e0e0      	LDI  R30,LOW(0)
000a9f 93ec      	ST   X,R30
000aa0 c025      	RJMP _0x27E
                 _0x18B:
000aa1 940e 10b9 	CALL SUBOPT_0x5F
000aa3 e2ee      	LDI  R30,LOW(46)
000aa4 93ec      	ST   X,R30
                 _0x18C:
000aa5 85e8      	LDD  R30,Y+8
000aa6 50e1      	SUBI R30,LOW(1)
000aa7 87e8      	STD  Y+8,R30
000aa8 5fef      	SUBI R30,-LOW(1)
000aa9 f0c1      	BREQ _0x18E
000aaa 940e 10a0 	CALL SUBOPT_0x5A
000aac 940e 10dc 	CALL SUBOPT_0x64
000aae 940e 10a5 	CALL SUBOPT_0x5B
000ab0 85e9
000ab1 85fa
000ab2 856b
000ab3 857c      	__GETD1S 9
000ab4 940e 12e9 	CALL __CFD1U
000ab6 2f0e      	MOV  R16,R30
000ab7 940e 10b9 	CALL SUBOPT_0x5F
000ab9 940e 10cc 	CALL SUBOPT_0x61
000abb 940e 10a0 	CALL SUBOPT_0x5A
000abd 940e 10d1 	CALL SUBOPT_0x62
000abf 940e 10d7 	CALL SUBOPT_0x63
000ac1 cfe3      	RJMP _0x18C
                 _0x18E:
000ac2 81ae      	LDD  R26,Y+6
000ac3 81bf      	LDD  R27,Y+6+1
000ac4 e0e0      	LDI  R30,LOW(0)
000ac5 93ec      	ST   X,R30
                 _0x27E:
000ac6 8119      	LDD  R17,Y+1
000ac7 8108      	LDD  R16,Y+0
000ac8 962d      	ADIW R28,13
000ac9 9508      	RET
                 __ftoe_G2:
000aca 9724      	SBIW R28,4
000acb 940e 1467 	CALL __SAVELOCR4
000acd 940e 1022 	CALL SUBOPT_0x52
000acf 940e 10e0 	CALL SUBOPT_0x65
000ad1 85ab      	LDD  R26,Y+11
000ad2 30a7      	CPI  R26,LOW(0x7)
000ad3 f010      	BRLO _0x18F
000ad4 e0e6      	LDI  R30,LOW(6)
000ad5 87eb      	STD  Y+11,R30
                 _0x18F:
000ad6 851b      	LDD  R17,Y+11
                 _0x190:
000ad7 2fe1      	MOV  R30,R17
000ad8 5011      	SUBI R17,1
000ad9 30e0      	CPI  R30,0
000ada f029      	BREQ _0x192
000adb 940e 10e5 	CALL SUBOPT_0x66
000add 940e 10e0 	CALL SUBOPT_0x65
000adf cff7      	RJMP _0x190
                 _0x192:
000ae0 940e 10ea 	CALL SUBOPT_0x67
000ae2 940e 145d 	CALL __CPD10
000ae4 f431      	BRNE _0x193
000ae5 e030      	LDI  R19,LOW(0)
000ae6 940e 10e5 	CALL SUBOPT_0x66
000ae8 940e 10e0 	CALL SUBOPT_0x65
000aea c034      	RJMP _0x194
                 _0x193:
000aeb 853b      	LDD  R19,Y+11
000aec 940e 10ef 	CALL SUBOPT_0x68
000aee f009      	BREQ PC+2
000aef f410      	BRCC PC+3
000af0 940c 0aff 	JMP  _0x195
000af2 940e 10e5 	CALL SUBOPT_0x66
000af4 940e 10e0 	CALL SUBOPT_0x65
                 _0x196:
000af6 940e 10ef 	CALL SUBOPT_0x68
000af8 f028      	BRLO _0x198
000af9 940e 10fa 	CALL SUBOPT_0x69
000afb 940e 10ff 	CALL SUBOPT_0x6A
000afd cff8      	RJMP _0x196
                 _0x198:
000afe c00f      	RJMP _0x199
                 _0x195:
                 _0x19A:
000aff 940e 10ef 	CALL SUBOPT_0x68
000b01 f440      	BRSH _0x19C
000b02 940e 10fa 	CALL SUBOPT_0x69
000b04 940e 10dc 	CALL SUBOPT_0x64
000b06 940e 1108 	CALL SUBOPT_0x6B
000b08 5031      	SUBI R19,LOW(1)
000b09 cff5      	RJMP _0x19A
                 _0x19C:
000b0a 940e 10e5 	CALL SUBOPT_0x66
000b0c 940e 10e0 	CALL SUBOPT_0x65
                 _0x199:
000b0e 940e 10ea 	CALL SUBOPT_0x67
000b10 e0a0
000b11 e0b0
000b12 e080
000b13 e39f      	__GETD2N 0x3F000000
000b14 940e 135c 	CALL __ADDF12
000b16 940e 1108 	CALL SUBOPT_0x6B
000b18 940e 10ef 	CALL SUBOPT_0x68
000b1a f020      	BRLO _0x19D
000b1b 940e 10fa 	CALL SUBOPT_0x69
000b1d 940e 10ff 	CALL SUBOPT_0x6A
                 _0x19D:
                 _0x194:
000b1f e010      	LDI  R17,LOW(0)
                 _0x19E:
000b20 85eb      	LDD  R30,Y+11
000b21 17e1      	CP   R30,R17
000b22 f190      	BRLO _0x1A0
000b23 81ac
000b24 81bd
000b25 818e
000b26 819f      	__GETD2S 4
000b27 940e 100c 	CALL SUBOPT_0x4E
000b29 940e 10c0 	CALL SUBOPT_0x60
000b2b 940e 10e0 	CALL SUBOPT_0x65
000b2d 81ec
000b2e 81fd
000b2f 816e
000b30 817f      	__GETD1S 4
000b31 940e 10fa 	CALL SUBOPT_0x69
000b33 940e 13f8 	CALL __DIVF21
000b35 940e 12eb 	CALL __CFD1
000b37 2f0e      	MOV  R16,R30
000b38 940e 110d 	CALL SUBOPT_0x6C
000b3a 940e 10cc 	CALL SUBOPT_0x61
000b3c 940e 10d1 	CALL SUBOPT_0x62
000b3e 81ac
000b3f 81bd
000b40 818e
000b41 819f      	__GETD2S 4
000b42 940e 13aa 	CALL __MULF12
000b44 940e 10fa 	CALL SUBOPT_0x69
000b46 940e 1270 	CALL __SWAPD12
000b48 940e 1355 	CALL __SUBF12
000b4a 940e 1108 	CALL SUBOPT_0x6B
000b4c 2fe1      	MOV  R30,R17
000b4d 5f1f      	SUBI R17,-1
000b4e 30e0      	CPI  R30,0
000b4f f681      	BRNE _0x19E
000b50 940e 110d 	CALL SUBOPT_0x6C
000b52 e2ee      	LDI  R30,LOW(46)
000b53 93ec      	ST   X,R30
000b54 cfcb      	RJMP _0x19E
                 _0x1A0:
000b55 940e 1114 	CALL SUBOPT_0x6D
000b57 85aa      	LDD  R26,Y+10
000b58 83a0      	STD  Z+0,R26
000b59 3030      	CPI  R19,0
000b5a f42c      	BRGE _0x1A2
000b5b 940e 110d 	CALL SUBOPT_0x6C
000b5d e2ed      	LDI  R30,LOW(45)
000b5e 93ec      	ST   X,R30
000b5f 9531      	NEG  R19
                 _0x1A2:
000b60 303a      	CPI  R19,10
000b61 f054      	BRLT _0x1A3
000b62 940e 1114 	CALL SUBOPT_0x6D
000b64 01bf      	MOVW R22,R30
000b65 2fa3      	MOV  R26,R19
000b66 e0ea      	LDI  R30,LOW(10)
000b67 940e 1202 	CALL __DIVB21
000b69 5de0      	SUBI R30,-LOW(48)
000b6a 01db      	MOVW R26,R22
000b6b 93ec      	ST   X,R30
                 _0x1A3:
000b6c 940e 1114 	CALL SUBOPT_0x6D
000b6e 01bf      	MOVW R22,R30
000b6f 2fa3      	MOV  R26,R19
000b70 e0ea      	LDI  R30,LOW(10)
000b71 940e 123f 	CALL __MODB21
000b73 5de0      	SUBI R30,-LOW(48)
000b74 01db      	MOVW R26,R22
000b75 93ec      	ST   X,R30
000b76 85a8      	LDD  R26,Y+8
000b77 85b9      	LDD  R27,Y+8+1
000b78 e0e0      	LDI  R30,LOW(0)
000b79 93ec      	ST   X,R30
000b7a 940e 146e 	CALL __LOADLOCR4
000b7c 9660      	ADIW R28,16
000b7d 9508      	RET
                 __print_G2:
000b7e 97ef      	SBIW R28,63
000b7f 972f      	SBIW R28,15
000b80 940e 1465 	CALL __SAVELOCR6
000b82 e010      	LDI  R17,0
000b83 01fe
000b84 5aec
000b85 4fff
000b86 9001
000b87 81f0
000b88 2de0      	__GETW1SX 84
000b89 8be8      	STD  Y+16,R30
000b8a 8bf9      	STD  Y+16+1,R31
                 _0x1A4:
000b8b 01de      	MOVW R26,R28
000b8c 5aa6      	SUBI R26,LOW(-(90))
000b8d 4fbf      	SBCI R27,HIGH(-(90))
000b8e 940e 1099 	CALL SUBOPT_0x59
000b90 91e4      	LPM  R30,Z
000b91 2f2e      	MOV  R18,R30
000b92 30e0      	CPI  R30,0
000b93 f411      	BRNE PC+3
000b94 940c 0d89 	JMP _0x1A6
000b96 2fe1      	MOV  R30,R17
000b97 30e0      	CPI  R30,0
000b98 f439      	BRNE _0x1AA
000b99 3225      	CPI  R18,37
000b9a f411      	BRNE _0x1AB
000b9b e011      	LDI  R17,LOW(1)
000b9c c002      	RJMP _0x1AC
                 _0x1AB:
000b9d 940e 111b 	CALL SUBOPT_0x6E
                 _0x1AC:
000b9f c1e8      	RJMP _0x1A9
                 _0x1AA:
000ba0 30e1      	CPI  R30,LOW(0x1)
000ba1 f4c1      	BRNE _0x1AD
000ba2 3225      	CPI  R18,37
000ba3 f419      	BRNE _0x1AE
000ba4 940e 111b 	CALL SUBOPT_0x6E
000ba6 c1e0      	RJMP _0x299
                 _0x1AE:
000ba7 e012      	LDI  R17,LOW(2)
000ba8 e0e0      	LDI  R30,LOW(0)
000ba9 8beb      	STD  Y+19,R30
000baa e000      	LDI  R16,LOW(0)
000bab 322d      	CPI  R18,45
000bac f411      	BRNE _0x1AF
000bad e001      	LDI  R16,LOW(1)
000bae c1d9      	RJMP _0x1A9
                 _0x1AF:
000baf 322b      	CPI  R18,43
000bb0 f419      	BRNE _0x1B0
000bb1 e2eb      	LDI  R30,LOW(43)
000bb2 8beb      	STD  Y+19,R30
000bb3 c1d4      	RJMP _0x1A9
                 _0x1B0:
000bb4 3220      	CPI  R18,32
000bb5 f419      	BRNE _0x1B1
000bb6 e2e0      	LDI  R30,LOW(32)
000bb7 8beb      	STD  Y+19,R30
000bb8 c1cf      	RJMP _0x1A9
                 _0x1B1:
000bb9 c002      	RJMP _0x1B2
                 _0x1AD:
000bba 30e2      	CPI  R30,LOW(0x2)
000bbb f439      	BRNE _0x1B3
                 _0x1B2:
000bbc e050      	LDI  R21,LOW(0)
000bbd e013      	LDI  R17,LOW(3)
000bbe 3320      	CPI  R18,48
000bbf f411      	BRNE _0x1B4
000bc0 6800      	ORI  R16,LOW(128)
000bc1 c1c6      	RJMP _0x1A9
                 _0x1B4:
000bc2 c002      	RJMP _0x1B5
                 _0x1B3:
000bc3 30e3      	CPI  R30,LOW(0x3)
000bc4 f4a1      	BRNE _0x1B6
                 _0x1B5:
000bc5 3320      	CPI  R18,48
000bc6 f010      	BRLO _0x1B8
000bc7 332a      	CPI  R18,58
000bc8 f008      	BRLO _0x1B9
                 _0x1B8:
000bc9 c009      	RJMP _0x1B7
                 _0x1B9:
000bca 2fa5      	MOV  R26,R21
000bcb e0ea      	LDI  R30,LOW(10)
000bcc 9fea      	MUL  R30,R26
000bcd 01f0      	MOVW R30,R0
000bce 2f5e      	MOV  R21,R30
000bcf 2fe2      	MOV  R30,R18
000bd0 53e0      	SUBI R30,LOW(48)
000bd1 0f5e      	ADD  R21,R30
000bd2 c1b5      	RJMP _0x1A9
                 _0x1B7:
000bd3 e040      	LDI  R20,LOW(0)
000bd4 322e      	CPI  R18,46
000bd5 f411      	BRNE _0x1BA
000bd6 e014      	LDI  R17,LOW(4)
000bd7 c1b0      	RJMP _0x1A9
                 _0x1BA:
000bd8 c011      	RJMP _0x1BB
                 _0x1B6:
000bd9 30e4      	CPI  R30,LOW(0x4)
000bda f4a9      	BRNE _0x1BD
000bdb 3320      	CPI  R18,48
000bdc f010      	BRLO _0x1BF
000bdd 332a      	CPI  R18,58
000bde f008      	BRLO _0x1C0
                 _0x1BF:
000bdf c00a      	RJMP _0x1BE
                 _0x1C0:
000be0 6200      	ORI  R16,LOW(32)
000be1 2fa4      	MOV  R26,R20
000be2 e0ea      	LDI  R30,LOW(10)
000be3 9fea      	MUL  R30,R26
000be4 01f0      	MOVW R30,R0
000be5 2f4e      	MOV  R20,R30
000be6 2fe2      	MOV  R30,R18
000be7 53e0      	SUBI R30,LOW(48)
000be8 0f4e      	ADD  R20,R30
000be9 c19e      	RJMP _0x1A9
                 _0x1BE:
                 _0x1BB:
000bea 362c      	CPI  R18,108
000beb f419      	BRNE _0x1C1
000bec 6002      	ORI  R16,LOW(2)
000bed e015      	LDI  R17,LOW(5)
000bee c199      	RJMP _0x1A9
                 _0x1C1:
000bef c004      	RJMP _0x1C2
                 _0x1BD:
000bf0 30e5      	CPI  R30,LOW(0x5)
000bf1 f011      	BREQ PC+3
000bf2 940c 0d88 	JMP _0x1A9
                 _0x1C2:
000bf4 2fe2      	MOV  R30,R18
000bf5 36e3      	CPI  R30,LOW(0x63)
000bf6 f431      	BRNE _0x1C7
000bf7 940e 112a 	CALL SUBOPT_0x6F
000bf9 81e4      	LDD  R30,Z+4
000bfa 940e 1133 	CALL SUBOPT_0x70
000bfc c18a      	RJMP _0x1C8
                 _0x1C7:
000bfd 34e5      	CPI  R30,LOW(0x45)
000bfe f011      	BREQ _0x1CB
000bff 36e5      	CPI  R30,LOW(0x65)
000c00 f409      	BRNE _0x1CC
                 _0x1CB:
000c01 c004      	RJMP _0x1CD
                 _0x1CC:
000c02 36e6      	CPI  R30,LOW(0x66)
000c03 f011      	BREQ PC+3
000c04 940c 0c4e 	JMP _0x1CE
                 _0x1CD:
000c06 01fe      	MOVW R30,R28
000c07 9674      	ADIW R30,20
000c08 87ea      	STD  Y+10,R30
000c09 87fb      	STD  Y+10+1,R31
000c0a 940e 112a 	CALL SUBOPT_0x6F
000c0c 9634      	ADIW R30,4
000c0d 01df      	MOVW R26,R30
000c0e 940e 125f 	CALL __GETD1P
000c10 940e 1142 	CALL SUBOPT_0x71
000c12 01df      	MOVW R26,R30
000c13 01cb      	MOVW R24,R22
000c14 940e 1461 	CALL __CPD20
000c16 f024      	BRLT _0x1CF
000c17 89ab      	LDD  R26,Y+19
000c18 32ab      	CPI  R26,LOW(0x2B)
000c19 f049      	BREQ _0x1D1
000c1a c012      	RJMP _0x1D2
                 _0x1CF:
000c1b 940e 1147 	CALL SUBOPT_0x72
000c1d 940e 12b6 	CALL __ANEGF1
000c1f 940e 1142 	CALL SUBOPT_0x71
000c21 e2ed      	LDI  R30,LOW(45)
000c22 8beb      	STD  Y+19,R30
                 _0x1D1:
000c23 ff07      	SBRS R16,7
000c24 c004      	RJMP _0x1D3
000c25 89eb      	LDD  R30,Y+19
000c26 940e 1133 	CALL SUBOPT_0x70
000c28 c004      	RJMP _0x1D4
                 _0x1D3:
000c29 940e 114c 	CALL SUBOPT_0x73
000c2b 89ab      	LDD  R26,Y+19
000c2c 83a0      	STD  Z+0,R26
                 _0x1D4:
                 _0x1D2:
000c2d ff05      	SBRS R16,5
000c2e e046      	LDI  R20,LOW(6)
000c2f 3626      	CPI  R18,102
000c30 f461      	BRNE _0x1D6
000c31 940e 1147 	CALL SUBOPT_0x72
000c33 940e 126b 	CALL __PUTPARD1
000c35 934a      	ST   -Y,R20
000c36 85ef      	LDD  R30,Y+15
000c37 89f8      	LDD  R31,Y+15+1
000c38 93fa      	ST   -Y,R31
000c39 93ea      	ST   -Y,R30
000c3a 940e 0a46 	CALL __ftoa_G2
000c3c c00c      	RJMP _0x1D7
                 _0x1D6:
000c3d 940e 1147 	CALL SUBOPT_0x72
000c3f 940e 126b 	CALL __PUTPARD1
000c41 934a      	ST   -Y,R20
000c42 932a      	ST   -Y,R18
000c43 89e8      	LDD  R30,Y+16
000c44 89f9      	LDD  R31,Y+16+1
000c45 93fa      	ST   -Y,R31
000c46 93ea      	ST   -Y,R30
000c47 940e 0aca 	CALL __ftoe_G2
                 _0x1D7:
000c49 01fe      	MOVW R30,R28
000c4a 9674      	ADIW R30,20
000c4b 940e 1153 	CALL SUBOPT_0x74
000c4d c01e      	RJMP _0x1D8
                 _0x1CE:
000c4e 37e3      	CPI  R30,LOW(0x73)
000c4f f439      	BRNE _0x1DA
000c50 940e 112a 	CALL SUBOPT_0x6F
000c52 940e 115b 	CALL SUBOPT_0x75
000c54 940e 1153 	CALL SUBOPT_0x74
000c56 c00e      	RJMP _0x1DB
                 _0x1DA:
000c57 37e0      	CPI  R30,LOW(0x70)
000c58 f4c1      	BRNE _0x1DD
000c59 940e 112a 	CALL SUBOPT_0x6F
000c5b 940e 115b 	CALL SUBOPT_0x75
000c5d 87ea      	STD  Y+10,R30
000c5e 87fb      	STD  Y+10+1,R31
000c5f 93fa      	ST   -Y,R31
000c60 93ea      	ST   -Y,R30
000c61 940e 0dc6 	CALL _strlenf
000c63 2f1e      	MOV  R17,R30
000c64 6008      	ORI  R16,LOW(8)
                 _0x1DB:
000c65 770f      	ANDI R16,LOW(127)
000c66 3040      	CPI  R20,0
000c67 f011      	BREQ _0x1DF
000c68 1741      	CP   R20,R17
000c69 f008      	BRLO _0x1E0
                 _0x1DF:
000c6a c001      	RJMP _0x1DE
                 _0x1E0:
000c6b 2f14      	MOV  R17,R20
                 _0x1DE:
                 _0x1D8:
000c6c e040      	LDI  R20,LOW(0)
000c6d e0e0      	LDI  R30,LOW(0)
000c6e 8bea      	STD  Y+18,R30
000c6f e030      	LDI  R19,LOW(0)
000c70 c06f      	RJMP _0x1E1
                 _0x1DD:
000c71 36e4      	CPI  R30,LOW(0x64)
000c72 f011      	BREQ _0x1E4
000c73 36e9      	CPI  R30,LOW(0x69)
000c74 f411      	BRNE _0x1E5
                 _0x1E4:
000c75 6004      	ORI  R16,LOW(4)
000c76 c002      	RJMP _0x1E6
                 _0x1E5:
000c77 37e5      	CPI  R30,LOW(0x75)
000c78 f4a1      	BRNE _0x1E7
                 _0x1E6:
000c79 e0ea      	LDI  R30,LOW(10)
000c7a 8bea      	STD  Y+18,R30
000c7b ff01      	SBRS R16,1
000c7c c008      	RJMP _0x1E8
000c7d e0e0
000c7e ecfa
000c7f e96a
000c80 e37b      	__GETD1N 0x3B9ACA00
000c81 940e 1108 	CALL SUBOPT_0x6B
000c83 e01a      	LDI  R17,LOW(10)
000c84 c023      	RJMP _0x1E9
                 _0x1E8:
000c85 e1e0
000c86 e2f7
000c87 e060
000c88 e070      	__GETD1N 0x2710
000c89 940e 1108 	CALL SUBOPT_0x6B
000c8b e015      	LDI  R17,LOW(5)
000c8c c01b      	RJMP _0x1E9
                 _0x1E7:
000c8d 35e8      	CPI  R30,LOW(0x58)
000c8e f411      	BRNE _0x1EB
000c8f 6008      	ORI  R16,LOW(8)
000c90 c004      	RJMP _0x1EC
                 _0x1EB:
000c91 37e8      	CPI  R30,LOW(0x78)
000c92 f011      	BREQ PC+3
000c93 940c 0d87 	JMP _0x22A
                 _0x1EC:
000c95 e1e0      	LDI  R30,LOW(16)
000c96 8bea      	STD  Y+18,R30
000c97 ff01      	SBRS R16,1
000c98 c008      	RJMP _0x1EE
000c99 e0e0
000c9a e0f0
000c9b e060
000c9c e170      	__GETD1N 0x10000000
000c9d 940e 1108 	CALL SUBOPT_0x6B
000c9f e018      	LDI  R17,LOW(8)
000ca0 c007      	RJMP _0x1E9
                 _0x1EE:
000ca1 e0e0
000ca2 e1f0
000ca3 e060
000ca4 e070      	__GETD1N 0x1000
000ca5 940e 1108 	CALL SUBOPT_0x6B
000ca7 e014      	LDI  R17,LOW(4)
                 _0x1E9:
000ca8 3040      	CPI  R20,0
000ca9 f011      	BREQ _0x1EF
000caa 770f      	ANDI R16,LOW(127)
000cab c001      	RJMP _0x1F0
                 _0x1EF:
000cac e041      	LDI  R20,LOW(1)
                 _0x1F0:
000cad ff01      	SBRS R16,1
000cae c007      	RJMP _0x1F1
000caf 940e 112a 	CALL SUBOPT_0x6F
000cb1 9634      	ADIW R30,4
000cb2 01df      	MOVW R26,R30
000cb3 940e 125f 	CALL __GETD1P
000cb5 c00f      	RJMP _0x29A
                 _0x1F1:
000cb6 ff02      	SBRS R16,2
000cb7 c007      	RJMP _0x1F3
000cb8 940e 112a 	CALL SUBOPT_0x6F
000cba 940e 115b 	CALL SUBOPT_0x75
000cbc 940e 11dc 	CALL __CWD1
000cbe c006      	RJMP _0x29A
                 _0x1F3:
000cbf 940e 112a 	CALL SUBOPT_0x6F
000cc1 940e 115b 	CALL SUBOPT_0x75
000cc3 2766      	CLR  R22
000cc4 2777      	CLR  R23
                 _0x29A:
000cc5 83ee
000cc6 83ff
000cc7 8768
000cc8 8779      	__PUTD1S 6
000cc9 ff02      	SBRS R16,2
000cca c014      	RJMP _0x1F5
000ccb 940e 1160 	CALL SUBOPT_0x76
000ccd 940e 1461 	CALL __CPD20
000ccf f444      	BRGE _0x1F6
000cd0 940e 1147 	CALL SUBOPT_0x72
000cd2 940e 11c1 	CALL __ANEGD1
000cd4 940e 1142 	CALL SUBOPT_0x71
000cd6 e2ed      	LDI  R30,LOW(45)
000cd7 8beb      	STD  Y+19,R30
                 _0x1F6:
000cd8 89eb      	LDD  R30,Y+19
000cd9 30e0      	CPI  R30,0
000cda f019      	BREQ _0x1F7
000cdb 5f1f      	SUBI R17,-LOW(1)
000cdc 5f4f      	SUBI R20,-LOW(1)
000cdd c001      	RJMP _0x1F8
                 _0x1F7:
000cde 7f0b      	ANDI R16,LOW(251)
                 _0x1F8:
                 _0x1F5:
000cdf 2f34      	MOV  R19,R20
                 _0x1E1:
000ce0 fd00      	SBRC R16,0
000ce1 c014      	RJMP _0x1F9
                 _0x1FA:
000ce2 1715      	CP   R17,R21
000ce3 f410      	BRSH _0x1FD
000ce4 1735      	CP   R19,R21
000ce5 f008      	BRLO _0x1FE
                 _0x1FD:
000ce6 c00f      	RJMP _0x1FC
                 _0x1FE:
000ce7 ff07      	SBRS R16,7
000ce8 c008      	RJMP _0x1FF
000ce9 ff02      	SBRS R16,2
000cea c004      	RJMP _0x200
000ceb 7f0b      	ANDI R16,LOW(251)
000cec 892b      	LDD  R18,Y+19
000ced 5011      	SUBI R17,LOW(1)
000cee c001      	RJMP _0x201
                 _0x200:
000cef e320      	LDI  R18,LOW(48)
                 _0x201:
000cf0 c001      	RJMP _0x202
                 _0x1FF:
000cf1 e220      	LDI  R18,LOW(32)
                 _0x202:
000cf2 940e 111b 	CALL SUBOPT_0x6E
000cf4 5051      	SUBI R21,LOW(1)
000cf5 cfec      	RJMP _0x1FA
                 _0x1FC:
                 _0x1F9:
                 _0x203:
000cf6 1714      	CP   R17,R20
000cf7 f488      	BRSH _0x205
000cf8 6100      	ORI  R16,LOW(16)
000cf9 ff02      	SBRS R16,2
000cfa c006      	RJMP _0x206
000cfb 940e 1165 	CALL SUBOPT_0x77
000cfd f009      	BREQ _0x207
000cfe 5051      	SUBI R21,LOW(1)
                 _0x207:
000cff 5011      	SUBI R17,LOW(1)
000d00 5041      	SUBI R20,LOW(1)
                 _0x206:
000d01 e3e0      	LDI  R30,LOW(48)
000d02 940e 1133 	CALL SUBOPT_0x70
000d04 3050      	CPI  R21,0
000d05 f009      	BREQ _0x208
000d06 5051      	SUBI R21,LOW(1)
                 _0x208:
000d07 5041      	SUBI R20,LOW(1)
000d08 cfed      	RJMP _0x203
                 _0x205:
000d09 2f31      	MOV  R19,R17
000d0a 89ea      	LDD  R30,Y+18
000d0b 30e0      	CPI  R30,0
000d0c f511      	BRNE _0x209
                 _0x20A:
000d0d 3030      	CPI  R19,0
000d0e f0f9      	BREQ _0x20C
000d0f ff03      	SBRS R16,3
000d10 c004      	RJMP _0x20D
000d11 940e 114c 	CALL SUBOPT_0x73
000d13 91e4      	LPM  R30,Z
000d14 c005      	RJMP _0x29B
                 _0x20D:
000d15 85aa      	LDD  R26,Y+10
000d16 85bb      	LDD  R27,Y+10+1
000d17 91ed      	LD   R30,X+
000d18 87aa      	STD  Y+10,R26
000d19 87bb      	STD  Y+10+1,R27
                 _0x29B:
000d1a 93ea      	ST   -Y,R30
000d1b 01fe
000d1c 5ae9
000d1d 4fff
000d1e 9001
000d1f 81f0
000d20 2de0      	__GETW1SX 87
000d21 93fa      	ST   -Y,R31
000d22 93ea      	ST   -Y,R30
000d23 01fe      	MOVW R30,R28
000d24 9673      	ADIW R30,19
000d25 93fa      	ST   -Y,R31
000d26 93ea      	ST   -Y,R30
000d27 940e 0a1f 	CALL __put_G2
000d29 3050      	CPI  R21,0
000d2a f009      	BREQ _0x20F
000d2b 5051      	SUBI R21,LOW(1)
                 _0x20F:
000d2c 5031      	SUBI R19,LOW(1)
000d2d cfdf      	RJMP _0x20A
                 _0x20C:
000d2e c04f      	RJMP _0x210
                 _0x209:
                 _0x212:
000d2f 940e 10ea 	CALL SUBOPT_0x67
000d31 940e 1160 	CALL SUBOPT_0x76
000d33 940e 121a 	CALL __DIVD21U
000d35 2f2e      	MOV  R18,R30
000d36 302a      	CPI  R18,10
000d37 f030      	BRLO _0x214
000d38 ff03      	SBRS R16,3
000d39 c002      	RJMP _0x215
000d3a 5c29      	SUBI R18,-LOW(55)
000d3b c001      	RJMP _0x216
                 _0x215:
000d3c 5a29      	SUBI R18,-LOW(87)
                 _0x216:
000d3d c001      	RJMP _0x217
                 _0x214:
000d3e 5d20      	SUBI R18,-LOW(48)
                 _0x217:
000d3f fd04      	SBRC R16,4
000d40 c01f      	RJMP _0x219
000d41 3321      	CPI  R18,49
000d42 f450      	BRSH _0x21B
000d43 940e 10fa 	CALL SUBOPT_0x69
000d45 30a1
000d46 e0e0
000d47 07be
000d48 e0e0
000d49 078e
000d4a e0e0
000d4b 079e      	__CPD2N 0x1
000d4c f409      	BRNE _0x21A
                 _0x21B:
000d4d c00b      	RJMP _0x21D
                 _0x21A:
000d4e 1743      	CP   R20,R19
000d4f f440      	BRSH _0x29C
000d50 1753      	CP   R21,R19
000d51 f010      	BRLO _0x220
000d52 ff00      	SBRS R16,0
000d53 c001      	RJMP _0x221
                 _0x220:
000d54 c010      	RJMP _0x21F
                 _0x221:
000d55 e220      	LDI  R18,LOW(32)
000d56 ff07      	SBRS R16,7
000d57 c008      	RJMP _0x222
                 _0x29C:
000d58 e320      	LDI  R18,LOW(48)
                 _0x21D:
000d59 6100      	ORI  R16,LOW(16)
000d5a ff02      	SBRS R16,2
000d5b c004      	RJMP _0x223
000d5c 940e 1165 	CALL SUBOPT_0x77
000d5e f009      	BREQ _0x224
000d5f 5051      	SUBI R21,LOW(1)
                 _0x224:
                 _0x223:
                 _0x222:
                 _0x219:
000d60 940e 111b 	CALL SUBOPT_0x6E
000d62 3050      	CPI  R21,0
000d63 f009      	BREQ _0x225
000d64 5051      	SUBI R21,LOW(1)
                 _0x225:
                 _0x21F:
000d65 5031      	SUBI R19,LOW(1)
000d66 940e 10ea 	CALL SUBOPT_0x67
000d68 940e 1160 	CALL SUBOPT_0x76
000d6a 940e 124b 	CALL __MODD21U
000d6c 940e 1142 	CALL SUBOPT_0x71
000d6e 89ea      	LDD  R30,Y+18
000d6f 940e 10fa 	CALL SUBOPT_0x69
000d71 27ff      	CLR  R31
000d72 2766      	CLR  R22
000d73 2777      	CLR  R23
000d74 940e 121a 	CALL __DIVD21U
000d76 940e 1108 	CALL SUBOPT_0x6B
000d78 940e 10ea 	CALL SUBOPT_0x67
000d7a 940e 145d 	CALL __CPD10
000d7c f009      	BREQ _0x213
000d7d cfb1      	RJMP _0x212
                 _0x213:
                 _0x210:
000d7e ff00      	SBRS R16,0
000d7f c007      	RJMP _0x226
                 _0x227:
000d80 3050      	CPI  R21,0
000d81 f029      	BREQ _0x229
000d82 5051      	SUBI R21,LOW(1)
000d83 e2e0      	LDI  R30,LOW(32)
000d84 940e 1133 	CALL SUBOPT_0x70
000d86 cff9      	RJMP _0x227
                 _0x229:
                 _0x226:
                 _0x22A:
                 _0x1C8:
                 _0x299:
000d87 e010      	LDI  R17,LOW(0)
                 _0x1A9:
000d88 ce02      	RJMP _0x1A4
                 _0x1A6:
000d89 940e 146c 	CALL __LOADLOCR6
000d8b 96ef      	ADIW R28,63
000d8c 966d      	ADIW R28,29
000d8d 9508      	RET
                 _sprintf:
000d8e 92ff      	PUSH R15
000d8f 2ef8      	MOV  R15,R24
000d90 9722      	SBIW R28,2
000d91 931a      	ST   -Y,R17
000d92 930a      	ST   -Y,R16
000d93 01de      	MOVW R26,R28
000d94 940e 11bd 	CALL __ADDW2R15
000d96 018d      	MOVW R16,R26
000d97 01de      	MOVW R26,R28
000d98 9616      	ADIW R26,6
000d99 940e 11bd 	CALL __ADDW2R15
000d9b 940e 125b 	CALL __GETW1P
000d9d 83ea      	STD  Y+2,R30
000d9e 83fb      	STD  Y+2+1,R31
000d9f 01de      	MOVW R26,R28
000da0 9614      	ADIW R26,4
000da1 940e 11bd 	CALL __ADDW2R15
000da3 940e 125b 	CALL __GETW1P
000da5 93fa      	ST   -Y,R31
000da6 93ea      	ST   -Y,R30
000da7 931a      	ST   -Y,R17
000da8 930a      	ST   -Y,R16
000da9 01fe      	MOVW R30,R28
000daa 9636      	ADIW R30,6
000dab 93fa      	ST   -Y,R31
000dac 93ea      	ST   -Y,R30
000dad e0e0      	LDI  R30,LOW(0)
000dae e0f0      	LDI  R31,HIGH(0)
000daf 93fa      	ST   -Y,R31
000db0 93ea      	ST   -Y,R30
000db1 940e 0b7e 	CALL __print_G2
000db3 81aa      	LDD  R26,Y+2
000db4 81bb      	LDD  R27,Y+2+1
000db5 e0e0      	LDI  R30,LOW(0)
000db6 93ec      	ST   X,R30
000db7 8119      	LDD  R17,Y+1
000db8 8108      	LDD  R16,Y+0
000db9 9624      	ADIW R28,4
000dba 90ff      	POP  R15
000dbb 9508      	RET
                 _strlen:
000dbc 91a9          ld   r26,y+
000dbd 91b9          ld   r27,y+
000dbe 27ee          clr  r30
000dbf 27ff          clr  r31
                 strlen0:
000dc0 916d          ld   r22,x+
000dc1 2366          tst  r22
000dc2 f011          breq strlen1
000dc3 9631          adiw r30,1
000dc4 cffb          rjmp strlen0
                 strlen1:
000dc5 9508          ret
                 _strlenf:
000dc6 27aa          clr  r26
000dc7 27bb          clr  r27
000dc8 91e9          ld   r30,y+
000dc9 91f9          ld   r31,y+
                 strlenf0:
000dca 9005          lpm  r0,z+
000dcb 2000          tst  r0
000dcc f011          breq strlenf1
000dcd 9611          adiw r26,1
000dce cffb          rjmp strlenf0
                 strlenf1:
000dcf 01fd          movw r30,r26
000dd0 9508          ret
                 
                 	.DSEG
                 _p_S62:
00056c           	.BYTE 0x2
                 
                 	.CSEG
                 
                 ;OPTIMIZER ADDED SUBROUTINE, CALLED 39 TIMES, CODE SIZE REDUCTION:73 WORDS
                 SUBOPT_0x0:
000dd1 93fa      	ST   -Y,R31
000dd2 93ea      	ST   -Y,R30
000dd3 940c 1179 	JMP  _delay_ms
                 
                 ;OPTIMIZER ADDED SUBROUTINE, CALLED 5 TIMES, CODE SIZE REDUCTION:13 WORDS
                 SUBOPT_0x1:
000dd5 940e 0157 	CALL _lcd_strobe
000dd7 e0e5      	LDI  R30,LOW(5)
000dd8 e0f0      	LDI  R31,HIGH(5)
000dd9 cff7      	RJMP SUBOPT_0x0
                 
                 ;OPTIMIZER ADDED SUBROUTINE, CALLED 3 TIMES, CODE SIZE REDUCTION:1 WORDS
                 SUBOPT_0x2:
000dda e0e5      	LDI  R30,LOW(5)
000ddb e0f0      	LDI  R31,HIGH(5)
000ddc cff4      	RJMP SUBOPT_0x0
                 
                 ;OPTIMIZER ADDED SUBROUTINE, CALLED 2 TIMES, CODE SIZE REDUCTION:4 WORDS
                 SUBOPT_0x3:
000ddd 2fe1      	MOV  R30,R17
000dde 81a9      	LDD  R26,Y+1
000ddf 81ba      	LDD  R27,Y+1+1
000de0 e0f0      	LDI  R31,0
000de1 0fea      	ADD  R30,R26
000de2 1ffb      	ADC  R31,R27
000de3 91e4      	LPM  R30,Z
000de4 9508      	RET
                 
                 ;OPTIMIZER ADDED SUBROUTINE, CALLED 2 TIMES, CODE SIZE REDUCTION:1 WORDS
                 SUBOPT_0x4:
000de5 81a9      	LDD  R26,Y+1
000de6 81ba      	LDD  R27,Y+1+1
000de7 27ee      	CLR  R30
000de8 0fa1      	ADD  R26,R17
000de9 1fbe      	ADC  R27,R30
000dea 91ec      	LD   R30,X
000deb 9508      	RET
                 
                 ;OPTIMIZER ADDED SUBROUTINE, CALLED 3 TIMES, CODE SIZE REDUCTION:5 WORDS
                 SUBOPT_0x5:
000dec 98db      	CBI  0x1B,3
000ded 98da      	CBI  0x1B,2
000dee 9ad9      	SBI  0x1B,1
000def 98d8      	CBI  0x1B,0
000df0 cfe4      	RJMP SUBOPT_0x1
                 
                 ;OPTIMIZER ADDED SUBROUTINE, CALLED 5 TIMES, CODE SIZE REDUCTION:9 WORDS
                 SUBOPT_0x6:
000df1 e0e4      	LDI  R30,LOW(4)
000df2 93ea      	ST   -Y,R30
000df3 940e 01ef 	CALL _get_key_status
000df5 30e0      	CPI  R30,0
000df6 9508      	RET
                 
                 ;OPTIMIZER ADDED SUBROUTINE, CALLED 5 TIMES, CODE SIZE REDUCTION:9 WORDS
                 SUBOPT_0x7:
000df7 e0e1      	LDI  R30,LOW(1)
000df8 93ea      	ST   -Y,R30
000df9 940e 01ef 	CALL _get_key_status
000dfb 30e0      	CPI  R30,0
000dfc 9508      	RET
                 
                 ;OPTIMIZER ADDED SUBROUTINE, CALLED 15 TIMES, CODE SIZE REDUCTION:39 WORDS
                 SUBOPT_0x8:
000dfd 93ea      	ST   -Y,R30
000dfe e0e1      	LDI  R30,LOW(1)
000dff 93ea      	ST   -Y,R30
000e00 940c 01c5 	JMP  _lcd_gotoxy
                 
                 ;OPTIMIZER ADDED SUBROUTINE, CALLED 3 TIMES, CODE SIZE REDUCTION:5 WORDS
                 SUBOPT_0x9:
000e02 01fe      	MOVW R30,R28
000e03 9631      	ADIW R30,1
000e04 93fa      	ST   -Y,R31
000e05 93ea      	ST   -Y,R30
000e06 940c 01b6 	JMP  _lcd_puts
                 
                 ;OPTIMIZER ADDED SUBROUTINE, CALLED 8 TIMES, CODE SIZE REDUCTION:11 WORDS
                 SUBOPT_0xA:
000e08 91a0 0500 	LDS  R26,_hour
000e0a 91b0 0501 	LDS  R27,_hour+1
000e0c 9508      	RET
                 
                 ;OPTIMIZER ADDED SUBROUTINE, CALLED 2 TIMES, CODE SIZE REDUCTION:1 WORDS
                 SUBOPT_0xB:
000e0d ebe7      	LDI  R30,LOW(2999)
000e0e e0fb      	LDI  R31,HIGH(2999)
000e0f 93e0 0500 	STS  _hour,R30
000e11 93f0 0501 	STS  _hour+1,R31
000e13 9508      	RET
                 
                 ;OPTIMIZER ADDED SUBROUTINE, CALLED 4 TIMES, CODE SIZE REDUCTION:3 WORDS
                 SUBOPT_0xC:
000e14 91e0 0500 	LDS  R30,_hour
000e16 91f0 0501 	LDS  R31,_hour+1
000e18 9508      	RET
                 
                 ;OPTIMIZER ADDED SUBROUTINE, CALLED 3 TIMES, CODE SIZE REDUCTION:9 WORDS
                 SUBOPT_0xD:
000e19 93e0 0558 	STS  _A0,R30
000e1b 93f0 0559 	STS  _A0+1,R31
000e1d 91a0 0558 	LDS  R26,_A0
000e1f 91b0 0559 	LDS  R27,_A0+1
000e21 9508      	RET
                 
                 ;OPTIMIZER ADDED SUBROUTINE, CALLED 4 TIMES, CODE SIZE REDUCTION:3 WORDS
                 SUBOPT_0xE:
000e22 eee8      	LDI  R30,LOW(1000)
000e23 e0f3      	LDI  R31,HIGH(1000)
000e24 940e 1207 	CALL __DIVW21U
000e26 9508      	RET
                 
                 ;OPTIMIZER ADDED SUBROUTINE, CALLED 3 TIMES, CODE SIZE REDUCTION:9 WORDS
                 SUBOPT_0xF:
000e27 93e0 0562 	STS  _V0,R30
000e29 93f0 0563 	STS  _V0+1,R31
000e2b 91a0 0558 	LDS  R26,_A0
000e2d 91b0 0559 	LDS  R27,_A0+1
000e2f 9508      	RET
                 
                 ;OPTIMIZER ADDED SUBROUTINE, CALLED 3 TIMES, CODE SIZE REDUCTION:5 WORDS
                 SUBOPT_0x10:
000e30 93e0 0553 	STS  _value,R30
000e32 91a0 0562 	LDS  R26,_V0
000e34 91b0 0563 	LDS  R27,_V0+1
000e36 9508      	RET
                 
                 ;OPTIMIZER ADDED SUBROUTINE, CALLED 2 TIMES, CODE SIZE REDUCTION:11 WORDS
                 SUBOPT_0x11:
000e37 940e 11e6 	CALL __MULW12U
000e39 91a0 0558 	LDS  R26,_A0
000e3b 91b0 0559 	LDS  R27,_A0+1
000e3d 1bae      	SUB  R26,R30
000e3e 0bbf      	SBC  R27,R31
000e3f 93a0 055a 	STS  _A1,R26
000e41 93b0 055b 	STS  _A1+1,R27
000e43 9508      	RET
                 
                 ;OPTIMIZER ADDED SUBROUTINE, CALLED 12 TIMES, CODE SIZE REDUCTION:19 WORDS
                 SUBOPT_0x12:
000e44 e6e4      	LDI  R30,LOW(100)
000e45 e0f0      	LDI  R31,HIGH(100)
000e46 940e 1207 	CALL __DIVW21U
000e48 9508      	RET
                 
                 ;OPTIMIZER ADDED SUBROUTINE, CALLED 3 TIMES, CODE SIZE REDUCTION:9 WORDS
                 SUBOPT_0x13:
000e49 93e0 0564 	STS  _V1,R30
000e4b 93f0 0565 	STS  _V1+1,R31
000e4d 91a0 055a 	LDS  R26,_A1
000e4f 91b0 055b 	LDS  R27,_A1+1
000e51 9508      	RET
                 
                 ;OPTIMIZER ADDED SUBROUTINE, CALLED 3 TIMES, CODE SIZE REDUCTION:5 WORDS
                 SUBOPT_0x14:
000e52 93e0 0554 	__PUTB1MN _value,1
000e54 91a0 0564 	LDS  R26,_V1
000e56 91b0 0565 	LDS  R27,_V1+1
000e58 9508      	RET
                 
                 ;OPTIMIZER ADDED SUBROUTINE, CALLED 2 TIMES, CODE SIZE REDUCTION:7 WORDS
                 SUBOPT_0x15:
000e59 940e 11ee 	CALL __MULB1W2U
000e5b 91a0 055a 	LDS  R26,_A1
000e5d 91b0 055b 	LDS  R27,_A1+1
000e5f 1bae      	SUB  R26,R30
000e60 0bbf      	SBC  R27,R31
000e61 93a0 055c 	STS  _A2,R26
000e63 93b0 055d 	STS  _A2+1,R27
000e65 9508      	RET
                 
                 ;OPTIMIZER ADDED SUBROUTINE, CALLED 2 TIMES, CODE SIZE REDUCTION:3 WORDS
                 SUBOPT_0x16:
000e66 91a0 055c 	LDS  R26,_A2
000e68 91b0 055d 	LDS  R27,_A2+1
000e6a e0ea      	LDI  R30,LOW(10)
000e6b e0f0      	LDI  R31,HIGH(10)
000e6c 940e 1207 	CALL __DIVW21U
000e6e 9508      	RET
                 
                 ;OPTIMIZER ADDED SUBROUTINE, CALLED 3 TIMES, CODE SIZE REDUCTION:1 WORDS
                 SUBOPT_0x17:
000e6f 93e0 0566 	STS  _V2,R30
000e71 93f0 0567 	STS  _V2+1,R31
000e73 9508      	RET
                 
                 ;OPTIMIZER ADDED SUBROUTINE, CALLED 2 TIMES, CODE SIZE REDUCTION:1 WORDS
                 SUBOPT_0x18:
000e74 93e0 0555 	__PUTB1MN _value,2
000e76 91a0 0566 	LDS  R26,_V2
000e78 91b0 0567 	LDS  R27,_V2+1
000e7a 9508      	RET
                 
                 ;OPTIMIZER ADDED SUBROUTINE, CALLED 2 TIMES, CODE SIZE REDUCTION:7 WORDS
                 SUBOPT_0x19:
000e7b 940e 11ee 	CALL __MULB1W2U
000e7d 91a0 055c 	LDS  R26,_A2
000e7f 91b0 055d 	LDS  R27,_A2+1
000e81 1bae      	SUB  R26,R30
000e82 0bbf      	SBC  R27,R31
000e83 93a0 055e 	STS  _A3,R26
000e85 93b0 055f 	STS  _A3+1,R27
000e87 9508      	RET
                 
                 ;OPTIMIZER ADDED SUBROUTINE, CALLED 3 TIMES, CODE SIZE REDUCTION:3 WORDS
                 SUBOPT_0x1A:
000e88 b040      	IN   R4,0
000e89 e0e4      	LDI  R30,LOW(_buffer)
000e8a e0f5      	LDI  R31,HIGH(_buffer)
000e8b 93fa      	ST   -Y,R31
000e8c 93ea      	ST   -Y,R30
000e8d 9508      	RET
                 
                 ;OPTIMIZER ADDED SUBROUTINE, CALLED 2 TIMES, CODE SIZE REDUCTION:25 WORDS
                 SUBOPT_0x1B:
000e8e 93fa      	ST   -Y,R31
000e8f 93ea      	ST   -Y,R30
000e90 91e0 0553 	LDS  R30,_value
000e92 27ff      	CLR  R31
000e93 2766      	CLR  R22
000e94 2777      	CLR  R23
000e95 940e 126b 	CALL __PUTPARD1
000e97 91e0 0554 	__GETB1MN _value,1
000e99 27ff      	CLR  R31
000e9a 2766      	CLR  R22
000e9b 2777      	CLR  R23
000e9c 940e 126b 	CALL __PUTPARD1
000e9e 91e0 0555 	__GETB1MN _value,2
000ea0 27ff      	CLR  R31
000ea1 2766      	CLR  R22
000ea2 2777      	CLR  R23
000ea3 940e 126b 	CALL __PUTPARD1
000ea5 91e0 0556 	__GETB1MN _value,3
000ea7 27ff      	CLR  R31
000ea8 2766      	CLR  R22
000ea9 2777      	CLR  R23
000eaa 940e 126b 	CALL __PUTPARD1
000eac 9508      	RET
                 
                 ;OPTIMIZER ADDED SUBROUTINE, CALLED 3 TIMES, CODE SIZE REDUCTION:19 WORDS
                 SUBOPT_0x1C:
000ead 93ea      	ST   -Y,R30
000eae e0e0      	LDI  R30,LOW(0)
000eaf 93ea      	ST   -Y,R30
000eb0 940e 01c5 	CALL _lcd_gotoxy
000eb2 e0e4      	LDI  R30,LOW(_buffer)
000eb3 e0f5      	LDI  R31,HIGH(_buffer)
000eb4 93fa      	ST   -Y,R31
000eb5 93ea      	ST   -Y,R30
000eb6 940e 01b6 	CALL _lcd_puts
000eb8 cf38      	RJMP SUBOPT_0x6
                 
                 ;OPTIMIZER ADDED SUBROUTINE, CALLED 4 TIMES, CODE SIZE REDUCTION:6 WORDS
                 SUBOPT_0x1D:
000eb9 e0e4      	LDI  R30,LOW(4)
000eba 93ea      	ST   -Y,R30
000ebb 940e 01f8 	CALL _get_prev_key_status
000ebd 30e0      	CPI  R30,0
000ebe 9508      	RET
                 
                 ;OPTIMIZER ADDED SUBROUTINE, CALLED 8 TIMES, CODE SIZE REDUCTION:11 WORDS
                 SUBOPT_0x1E:
000ebf e2ec      	LDI  R30,LOW(300)
000ec0 e0f1      	LDI  R31,HIGH(300)
000ec1 15e6      	CP   R30,R6
000ec2 05f7      	CPC  R31,R7
000ec3 9508      	RET
                 
                 ;OPTIMIZER ADDED SUBROUTINE, CALLED 8 TIMES, CODE SIZE REDUCTION:11 WORDS
                 SUBOPT_0x1F:
000ec4 e5e0      	LDI  R30,LOW(80)
000ec5 e0f0      	LDI  R31,HIGH(80)
000ec6 cf0a      	RJMP SUBOPT_0x0
                 
                 ;OPTIMIZER ADDED SUBROUTINE, CALLED 16 TIMES, CODE SIZE REDUCTION:57 WORDS
                 SUBOPT_0x20:
000ec7 2fe1      	MOV  R30,R17
000ec8 e0f0      	LDI  R31,0
000ec9 5aed      	SUBI R30,LOW(-_value)
000eca 4ffa      	SBCI R31,HIGH(-_value)
000ecb 9508      	RET
                 
                 ;OPTIMIZER ADDED SUBROUTINE, CALLED 5 TIMES, CODE SIZE REDUCTION:25 WORDS
                 SUBOPT_0x21:
000ecc 2fa1      	MOV  R26,R17
000ecd e0b0      	LDI  R27,0
000ece 5aad      	SUBI R26,LOW(-_value)
000ecf 4fba      	SBCI R27,HIGH(-_value)
000ed0 91ec      	LD   R30,X
000ed1 5fef      	SUBI R30,-LOW(1)
000ed2 93ec      	ST   X,R30
000ed3 9508      	RET
                 
                 ;OPTIMIZER ADDED SUBROUTINE, CALLED 4 TIMES, CODE SIZE REDUCTION:6 WORDS
                 SUBOPT_0x22:
000ed4 e0e1      	LDI  R30,LOW(1)
000ed5 93ea      	ST   -Y,R30
000ed6 940e 01f8 	CALL _get_prev_key_status
000ed8 30e0      	CPI  R30,0
000ed9 9508      	RET
                 
                 ;OPTIMIZER ADDED SUBROUTINE, CALLED 8 TIMES, CODE SIZE REDUCTION:11 WORDS
                 SUBOPT_0x23:
000eda e2ec      	LDI  R30,LOW(300)
000edb e0f1      	LDI  R31,HIGH(300)
000edc 15e8      	CP   R30,R8
000edd 05f9      	CPC  R31,R9
000ede 9508      	RET
                 
                 ;OPTIMIZER ADDED SUBROUTINE, CALLED 3 TIMES, CODE SIZE REDUCTION:11 WORDS
                 SUBOPT_0x24:
000edf 2fa1      	MOV  R26,R17
000ee0 e0b0      	LDI  R27,0
000ee1 5aad      	SUBI R26,LOW(-_value)
000ee2 4fba      	SBCI R27,HIGH(-_value)
000ee3 91ec      	LD   R30,X
000ee4 50e1      	SUBI R30,LOW(1)
000ee5 93ec      	ST   X,R30
000ee6 9508      	RET
                 
                 ;OPTIMIZER ADDED SUBROUTINE, CALLED 4 TIMES, CODE SIZE REDUCTION:6 WORDS
                 SUBOPT_0x25:
000ee7 e0e3      	LDI  R30,LOW(3)
000ee8 93ea      	ST   -Y,R30
000ee9 940e 01ef 	CALL _get_key_status
000eeb 30e0      	CPI  R30,0
000eec 9508      	RET
                 
                 ;OPTIMIZER ADDED SUBROUTINE, CALLED 4 TIMES, CODE SIZE REDUCTION:6 WORDS
                 SUBOPT_0x26:
000eed e0e3      	LDI  R30,LOW(3)
000eee 93ea      	ST   -Y,R30
000eef 940e 01f8 	CALL _get_prev_key_status
000ef1 30e0      	CPI  R30,0
000ef2 9508      	RET
                 
                 ;OPTIMIZER ADDED SUBROUTINE, CALLED 2 TIMES, CODE SIZE REDUCTION:2 WORDS
                 SUBOPT_0x27:
000ef3 e0f0      	LDI  R31,0
000ef4 eea8      	LDI  R26,LOW(1000)
000ef5 e0b3      	LDI  R27,HIGH(1000)
000ef6 940e 11e6 	CALL __MULW12U
000ef8 9508      	RET
                 
                 ;OPTIMIZER ADDED SUBROUTINE, CALLED 8 TIMES, CODE SIZE REDUCTION:11 WORDS
                 SUBOPT_0x28:
000ef9 93e0 0500 	STS  _hour,R30
000efb 93f0 0501 	STS  _hour+1,R31
000efd 9508      	RET
                 
                 ;OPTIMIZER ADDED SUBROUTINE, CALLED 2 TIMES, CODE SIZE REDUCTION:4 WORDS
                 SUBOPT_0x29:
000efe e6a4      	LDI  R26,LOW(100)
000eff 9fea      	MUL  R30,R26
000f00 01f0      	MOVW R30,R0
000f01 df06      	RCALL SUBOPT_0xA
000f02 0fea      	ADD  R30,R26
000f03 1ffb      	ADC  R31,R27
000f04 cff4      	RJMP SUBOPT_0x28
                 
                 ;OPTIMIZER ADDED SUBROUTINE, CALLED 2 TIMES, CODE SIZE REDUCTION:1 WORDS
                 SUBOPT_0x2A:
000f05 df02      	RCALL SUBOPT_0xA
000f06 0fea      	ADD  R30,R26
000f07 1ffb      	ADC  R31,R27
000f08 cff0      	RJMP SUBOPT_0x28
                 
                 ;OPTIMIZER ADDED SUBROUTINE, CALLED 3 TIMES, CODE SIZE REDUCTION:15 WORDS
                 SUBOPT_0x2B:
000f09 2fe1      	MOV  R30,R17
000f0a e0f0      	LDI  R31,0
000f0b 01de      	MOVW R26,R28
000f0c 9619      	ADIW R26,9
000f0d 0fae      	ADD  R26,R30
000f0e 1fbf      	ADC  R27,R31
000f0f 91ec      	LD   R30,X
000f10 ceec      	RJMP SUBOPT_0x8
                 
                 ;OPTIMIZER ADDED SUBROUTINE, CALLED 6 TIMES, CODE SIZE REDUCTION:7 WORDS
                 SUBOPT_0x2C:
000f11 e2e0      	LDI  R30,LOW(32)
000f12 93ea      	ST   -Y,R30
000f13 940c 0193 	JMP  _lcd_putchar
                 
                 ;OPTIMIZER ADDED SUBROUTINE, CALLED 13 TIMES, CODE SIZE REDUCTION:21 WORDS
                 SUBOPT_0x2D:
000f15 2fe1      	MOV  R30,R17
000f16 e0f0      	LDI  R31,0
000f17 9508      	RET
                 
                 ;OPTIMIZER ADDED SUBROUTINE, CALLED 3 TIMES, CODE SIZE REDUCTION:13 WORDS
                 SUBOPT_0x2E:
000f18 01de      	MOVW R26,R28
000f19 9611      	ADIW R26,1
000f1a 0fee      	LSL  R30
000f1b 1fff      	ROL  R31
000f1c 0fea      	ADD  R30,R26
000f1d 1ffb      	ADC  R31,R27
000f1e 93fa      	ST   -Y,R31
000f1f 93ea      	ST   -Y,R30
000f20 940c 01b6 	JMP  _lcd_puts
                 
                 ;OPTIMIZER ADDED SUBROUTINE, CALLED 4 TIMES, CODE SIZE REDUCTION:6 WORDS
                 SUBOPT_0x2F:
000f22 e0e2      	LDI  R30,LOW(2)
000f23 93ea      	ST   -Y,R30
000f24 940e 01ef 	CALL _get_key_status
000f26 30e0      	CPI  R30,0
000f27 9508      	RET
                 
                 ;OPTIMIZER ADDED SUBROUTINE, CALLED 2 TIMES, CODE SIZE REDUCTION:1 WORDS
                 SUBOPT_0x30:
000f28 91a0 055c 	LDS  R26,_A2
000f2a 91b0 055d 	LDS  R27,_A2+1
000f2c cf17      	RJMP SUBOPT_0x12
                 
                 ;OPTIMIZER ADDED SUBROUTINE, CALLED 2 TIMES, CODE SIZE REDUCTION:3 WORDS
                 SUBOPT_0x31:
000f2d 91a0 055e 	LDS  R26,_A3
000f2f 91b0 055f 	LDS  R27,_A3+1
000f31 e0ea      	LDI  R30,LOW(10)
000f32 e0f0      	LDI  R31,HIGH(10)
000f33 940e 1207 	CALL __DIVW21U
000f35 9508      	RET
                 
                 ;OPTIMIZER ADDED SUBROUTINE, CALLED 5 TIMES, CODE SIZE REDUCTION:9 WORDS
                 SUBOPT_0x32:
000f36 27ff      	CLR  R31
000f37 2766      	CLR  R22
000f38 2777      	CLR  R23
000f39 940e 126b 	CALL __PUTPARD1
000f3b 9508      	RET
                 
                 ;OPTIMIZER ADDED SUBROUTINE, CALLED 3 TIMES, CODE SIZE REDUCTION:7 WORDS
                 SUBOPT_0x33:
000f3c 01de      	MOVW R26,R28
000f3d 961b      	ADIW R26,11
000f3e 0fae      	ADD  R26,R30
000f3f 1fbf      	ADC  R27,R31
000f40 91ec      	LD   R30,X
000f41 cebb      	RJMP SUBOPT_0x8
                 
                 ;OPTIMIZER ADDED SUBROUTINE, CALLED 4 TIMES, CODE SIZE REDUCTION:3 WORDS
                 SUBOPT_0x34:
000f42 91a0 0539 	LDS  R26,_speed
000f44 91b0 053a 	LDS  R27,_speed+1
000f46 9508      	RET
                 
                 ;OPTIMIZER ADDED SUBROUTINE, CALLED 2 TIMES, CODE SIZE REDUCTION:1 WORDS
                 SUBOPT_0x35:
000f47 eee7      	LDI  R30,LOW(999)
000f48 e0f3      	LDI  R31,HIGH(999)
000f49 93e0 0539 	STS  _speed,R30
000f4b 93f0 053a 	STS  _speed+1,R31
000f4d 9508      	RET
                 
                 ;OPTIMIZER ADDED SUBROUTINE, CALLED 4 TIMES, CODE SIZE REDUCTION:3 WORDS
                 SUBOPT_0x36:
000f4e 91e0 0539 	LDS  R30,_speed
000f50 91f0 053a 	LDS  R31,_speed+1
000f52 9508      	RET
                 
                 ;OPTIMIZER ADDED SUBROUTINE, CALLED 4 TIMES, CODE SIZE REDUCTION:3 WORDS
                 SUBOPT_0x37:
000f53 93e0 0539 	STS  _speed,R30
000f55 93f0 053a 	STS  _speed+1,R31
000f57 9508      	RET
                 
                 ;OPTIMIZER ADDED SUBROUTINE, CALLED 2 TIMES, CODE SIZE REDUCTION:1 WORDS
                 SUBOPT_0x38:
000f58 dfe9      	RCALL SUBOPT_0x34
000f59 0fea      	ADD  R30,R26
000f5a 1ffb      	ADC  R31,R27
000f5b cff7      	RJMP SUBOPT_0x37
                 
                 ;OPTIMIZER ADDED SUBROUTINE, CALLED 3 TIMES, CODE SIZE REDUCTION:7 WORDS
                 SUBOPT_0x39:
000f5c 01de      	MOVW R26,R28
000f5d 9617      	ADIW R26,7
000f5e 0fae      	ADD  R26,R30
000f5f 1fbf      	ADC  R27,R31
000f60 91ec      	LD   R30,X
000f61 ce9b      	RJMP SUBOPT_0x8
                 
                 ;OPTIMIZER ADDED SUBROUTINE, CALLED 3 TIMES, CODE SIZE REDUCTION:1 WORDS
                 SUBOPT_0x3A:
000f62 81a8      	LD   R26,Y
000f63 81b9      	LDD  R27,Y+1
000f64 940e 11e6 	CALL __MULW12U
000f66 9508      	RET
                 
                 ;OPTIMIZER ADDED SUBROUTINE, CALLED 4 TIMES, CODE SIZE REDUCTION:3 WORDS
                 SUBOPT_0x3B:
000f67 93e0 053b 	STS  _RedPwm,R30
000f69 93f0 053c 	STS  _RedPwm+1,R31
000f6b 9508      	RET
                 
                 ;OPTIMIZER ADDED SUBROUTINE, CALLED 2 TIMES, CODE SIZE REDUCTION:3 WORDS
                 SUBOPT_0x3C:
000f6c 91e0 053b 	LDS  R30,_RedPwm
000f6e 93e0 0531 	STS  _redpwml,R30
000f70 91e0 053c 	LDS  R30,_RedPwm+1
000f72 93e0 0532 	STS  _redpwmh,R30
000f74 9508      	RET
                 
                 ;OPTIMIZER ADDED SUBROUTINE, CALLED 4 TIMES, CODE SIZE REDUCTION:3 WORDS
                 SUBOPT_0x3D:
000f75 93e0 053d 	STS  _GreenPwm,R30
000f77 93f0 053e 	STS  _GreenPwm+1,R31
000f79 9508      	RET
                 
                 ;OPTIMIZER ADDED SUBROUTINE, CALLED 2 TIMES, CODE SIZE REDUCTION:3 WORDS
                 SUBOPT_0x3E:
000f7a 91e0 053d 	LDS  R30,_GreenPwm
000f7c 93e0 0533 	STS  _greenpwml,R30
000f7e 91e0 053e 	LDS  R30,_GreenPwm+1
000f80 93e0 0534 	STS  _greenpwmh,R30
000f82 9508      	RET
                 
                 ;OPTIMIZER ADDED SUBROUTINE, CALLED 4 TIMES, CODE SIZE REDUCTION:3 WORDS
                 SUBOPT_0x3F:
000f83 93e0 053f 	STS  _BluePwm,R30
000f85 93f0 0540 	STS  _BluePwm+1,R31
000f87 9508      	RET
                 
                 ;OPTIMIZER ADDED SUBROUTINE, CALLED 2 TIMES, CODE SIZE REDUCTION:3 WORDS
                 SUBOPT_0x40:
000f88 91e0 053f 	LDS  R30,_BluePwm
000f8a 93e0 0535 	STS  _bluepwml,R30
000f8c 91e0 0540 	LDS  R30,_BluePwm+1
000f8e 93e0 0536 	STS  _bluepwmh,R30
000f90 9508      	RET
                 
                 ;OPTIMIZER ADDED SUBROUTINE, CALLED 4 TIMES, CODE SIZE REDUCTION:15 WORDS
                 SUBOPT_0x41:
000f91 93fa      	ST   -Y,R31
000f92 93ea      	ST   -Y,R30
000f93 940e 0633 	CALL _Red
000f95 81ec      	LDD  R30,Y+4
000f96 81fd      	LDD  R31,Y+4+1
000f97 ce39      	RJMP SUBOPT_0x0
                 
                 ;OPTIMIZER ADDED SUBROUTINE, CALLED 3 TIMES, CODE SIZE REDUCTION:17 WORDS
                 SUBOPT_0x42:
000f98 2fe0      	MOV  R30,R16
000f99 e0f0      	LDI  R31,0
000f9a 93fa      	ST   -Y,R31
000f9b 93ea      	ST   -Y,R30
000f9c 940e 0647 	CALL _Green
000f9e 81ec      	LDD  R30,Y+4
000f9f 81fd      	LDD  R31,Y+4+1
000fa0 ce30      	RJMP SUBOPT_0x0
                 
                 ;OPTIMIZER ADDED SUBROUTINE, CALLED 5 TIMES, CODE SIZE REDUCTION:37 WORDS
                 SUBOPT_0x43:
000fa1 2fe3      	MOV  R30,R19
000fa2 e0f0      	LDI  R31,0
000fa3 93fa      	ST   -Y,R31
000fa4 93ea      	ST   -Y,R30
000fa5 940e 065b 	CALL _Blue
000fa7 81ec      	LDD  R30,Y+4
000fa8 81fd      	LDD  R31,Y+4+1
000fa9 ce27      	RJMP SUBOPT_0x0
                 
                 ;OPTIMIZER ADDED SUBROUTINE, CALLED 5 TIMES, CODE SIZE REDUCTION:13 WORDS
                 SUBOPT_0x44:
000faa 2fe3      	MOV  R30,R19
000fab e0f0      	LDI  R31,0
000fac 93fa      	ST   -Y,R31
000fad 93ea      	ST   -Y,R30
000fae 9508      	RET
                 
                 ;OPTIMIZER ADDED SUBROUTINE, CALLED 7 TIMES, CODE SIZE REDUCTION:33 WORDS
                 SUBOPT_0x45:
000faf 91a0 052d 	LDS  R26,_fxx
000fb1 91b0 052e 	LDS  R27,_fxx+1
000fb3 9180 052f 	LDS  R24,_fxx+2
000fb5 9190 0530 	LDS  R25,_fxx+3
000fb7 9508      	RET
                 
                 ;OPTIMIZER ADDED SUBROUTINE, CALLED 2 TIMES, CODE SIZE REDUCTION:34 WORDS
                 SUBOPT_0x46:
000fb8 93e0 008a 	STS  138,R30
000fba 2deb      	MOV  R30,R11
000fbb dff3      	RCALL SUBOPT_0x45
000fbc 27ff      	CLR  R31
000fbd 2766      	CLR  R22
000fbe 2777      	CLR  R23
000fbf 940e 1322 	CALL __CDF1
000fc1 940e 13aa 	CALL __MULF12
000fc3 e0a0
000fc4 e9bc
000fc5 e680
000fc6 e49a      	__GETD2N 0x4A609C00
000fc7 940e 13f8 	CALL __DIVF21
000fc9 01df      	MOVW R26,R30
000fca 01cb      	MOVW R24,R22
000fcb e0e0
000fcc e0f0
000fcd e860
000fce e37f      	__GETD1N 0x3F800000
000fcf 940e 1270 	CALL __SWAPD12
000fd1 940e 1355 	CALL __SUBF12
000fd3 940e 12e9 	CALL __CFD1U
000fd5 93e0 0537 	STS  _ICR3top,R30
000fd7 93f0 0538 	STS  _ICR3top+1,R31
000fd9 9730      	SBIW R30,0
000fda 9508      	RET
                 
                 ;OPTIMIZER ADDED SUBROUTINE, CALLED 2 TIMES, CODE SIZE REDUCTION:1 WORDS
                 SUBOPT_0x47:
000fdb e0e1      	LDI  R30,LOW(1)
000fdc e0f0      	LDI  R31,HIGH(1)
000fdd 93e0 0537 	STS  _ICR3top,R30
000fdf 93f0 0538 	STS  _ICR3top+1,R31
000fe1 9508      	RET
                 
                 ;OPTIMIZER ADDED SUBROUTINE, CALLED 4 TIMES, CODE SIZE REDUCTION:15 WORDS
                 SUBOPT_0x48:
000fe2 91e0 052d 	LDS  R30,_fxx
000fe4 91f0 052e 	LDS  R31,_fxx+1
000fe6 9160 052f 	LDS  R22,_fxx+2
000fe8 9170 0530 	LDS  R23,_fxx+3
000fea 9508      	RET
                 
                 ;OPTIMIZER ADDED SUBROUTINE, CALLED 8 TIMES, CODE SIZE REDUCTION:25 WORDS
                 SUBOPT_0x49:
000feb e0e0      	LDI  R30,LOW(0)
000fec 93ea      	ST   -Y,R30
000fed 93ea      	ST   -Y,R30
000fee 940c 01c5 	JMP  _lcd_gotoxy
                 
                 ;OPTIMIZER ADDED SUBROUTINE, CALLED 11 TIMES, CODE SIZE REDUCTION:17 WORDS
                 SUBOPT_0x4A:
000ff0 93fa      	ST   -Y,R31
000ff1 93ea      	ST   -Y,R30
000ff2 940c 01a7 	JMP  _lcd_putsf
                 
                 ;OPTIMIZER ADDED SUBROUTINE, CALLED 6 TIMES, CODE SIZE REDUCTION:7 WORDS
                 SUBOPT_0x4B:
000ff4 93fa      	ST   -Y,R31
000ff5 93ea      	ST   -Y,R30
000ff6 940c 01b6 	JMP  _lcd_puts
                 
                 ;OPTIMIZER ADDED SUBROUTINE, CALLED 5 TIMES, CODE SIZE REDUCTION:5 WORDS
                 SUBOPT_0x4C:
000ff8 940e 019f 	CALL _lcd_clear
000ffa cff0      	RJMP SUBOPT_0x49
                 
                 ;OPTIMIZER ADDED SUBROUTINE, CALLED 2 TIMES, CODE SIZE REDUCTION:15 WORDS
                 SUBOPT_0x4D:
000ffb 93e0 0502 	STS  _start_p,R30
000ffd 93f0 0503 	STS  _start_p+1,R31
000fff 2766      	CLR  R22
001000 2777      	CLR  R23
001001 940e 1322 	CALL __CDF1
001003 93e0 052d 	STS  _fxx,R30
001005 93f0 052e 	STS  _fxx+1,R31
001007 9360 052f 	STS  _fxx+2,R22
001009 9370 0530 	STS  _fxx+3,R23
00100b 9508      	RET
                 
                 ;OPTIMIZER ADDED SUBROUTINE, CALLED 12 TIMES, CODE SIZE REDUCTION:19 WORDS
                 SUBOPT_0x4E:
00100c e0e0
00100d e0f0
00100e e260
00100f e471      	__GETD1N 0x41200000
001010 9508      	RET
                 
                 ;OPTIMIZER ADDED SUBROUTINE, CALLED 2 TIMES, CODE SIZE REDUCTION:3 WORDS
                 SUBOPT_0x4F:
001011 93e0 052d 	STS  _fxx,R30
001013 93f0 052e 	STS  _fxx+1,R31
001015 9360 052f 	STS  _fxx+2,R22
001017 9370 0530 	STS  _fxx+3,R23
001019 9508      	RET
                 
                 ;OPTIMIZER ADDED SUBROUTINE, CALLED 2 TIMES, CODE SIZE REDUCTION:1 WORDS
                 SUBOPT_0x50:
00101a bdea      	OUT  0x2A,R30
00101b e0e0      	LDI  R30,LOW(0)
00101c bde9      	OUT  0x29,R30
00101d bde8      	OUT  0x28,R30
00101e 9508      	RET
                 
                 ;OPTIMIZER ADDED SUBROUTINE, CALLED 4 TIMES, CODE SIZE REDUCTION:3 WORDS
                 SUBOPT_0x51:
00101f ebec      	LDI  R30,LOW(700)
001020 e0f2      	LDI  R31,HIGH(700)
001021 cdaf      	RJMP SUBOPT_0x0
                 
                 ;OPTIMIZER ADDED SUBROUTINE, CALLED 3 TIMES, CODE SIZE REDUCTION:1 WORDS
                 SUBOPT_0x52:
001022 e0e0
001023 e0f0
001024 e860
001025 e37f      	__GETD1N 0x3F800000
001026 9508      	RET
                 
                 ;OPTIMIZER ADDED SUBROUTINE, CALLED 2 TIMES, CODE SIZE REDUCTION:7 WORDS
                 SUBOPT_0x53:
001027 940e 13f8 	CALL __DIVF21
001029 940e 12e9 	CALL __CFD1U
00102b 93e0 0529 	STS  _tx,R30
00102d 93f0 052a 	STS  _tx+1,R31
00102f 9360 052b 	STS  _tx+2,R22
001031 9370 052c 	STS  _tx+3,R23
001033 9508      	RET
                 
                 ;OPTIMIZER ADDED SUBROUTINE, CALLED 6 TIMES, CODE SIZE REDUCTION:7 WORDS
                 SUBOPT_0x54:
001034 e0e4      	LDI  R30,LOW(_buffer)
001035 e0f5      	LDI  R31,HIGH(_buffer)
001036 93fa      	ST   -Y,R31
001037 93ea      	ST   -Y,R30
001038 9508      	RET
                 
                 ;OPTIMIZER ADDED SUBROUTINE, CALLED 4 TIMES, CODE SIZE REDUCTION:9 WORDS
                 SUBOPT_0x55:
001039 940e 126b 	CALL __PUTPARD1
00103b e084      	LDI  R24,4
00103c 940e 0d8e 	CALL _sprintf
00103e 9628      	ADIW R28,8
00103f 9508      	RET
                 
                 ;OPTIMIZER ADDED SUBROUTINE, CALLED 5 TIMES, CODE SIZE REDUCTION:5 WORDS
                 SUBOPT_0x56:
001040 e0e4      	LDI  R30,LOW(_buffer)
001041 e0f5      	LDI  R31,HIGH(_buffer)
001042 cfb1      	RJMP SUBOPT_0x4B
                 
                 ;OPTIMIZER ADDED SUBROUTINE, CALLED 3 TIMES, CODE SIZE REDUCTION:165 WORDS
                 SUBOPT_0x57:
001043 92aa      	ST   -Y,R10
001044 940e 0252 	CALL _read_adc
001046 93e0 0547 	STS  _adc_in,R30
001048 93f0 0548 	STS  _adc_in+1,R31
00104a 2766      	CLR  R22
00104b 2777      	CLR  R23
00104c 940e 1322 	CALL __CDF1
00104e 01df      	MOVW R26,R30
00104f 01cb      	MOVW R24,R22
001050 e1e7
001051 ebf7
001052 ed61
001053 e37d      	__GETD1N 0x3DD1B717
001054 940e 13f8 	CALL __DIVF21
001056 93e0 0549 	STS  _indication,R30
001058 93f0 054a 	STS  _indication+1,R31
00105a 9360 054b 	STS  _indication+2,R22
00105c 9370 054c 	STS  _indication+3,R23
00105e 91a0 0549 	LDS  R26,_indication
001060 91b0 054a 	LDS  R27,_indication+1
001062 9180 054b 	LDS  R24,_indication+2
001064 9190 054c 	LDS  R25,_indication+3
001066 e0e0
001067 e0f0
001068 e76a
001069 e474      	__GETD1N 0x447A0000
00106a 940e 13f8 	CALL __DIVF21
00106c 93e0 054d 	STS  _tinf,R30
00106e 93f0 054e 	STS  _tinf+1,R31
001070 9360 054f 	STS  _tinf+2,R22
001072 9370 0550 	STS  _tinf+3,R23
001074 91a0 054d 	LDS  R26,_tinf
001076 91b0 054e 	LDS  R27,_tinf+1
001078 9180 054f 	LDS  R24,_tinf+2
00107a 9190 0550 	LDS  R25,_tinf+3
00107c e0e0
00107d e0f0
00107e e060
00107f e470      	__GETD1N 0x40000000
001080 940e 13f8 	CALL __DIVF21
001082 01df      	MOVW R26,R30
001083 01cb      	MOVW R24,R22
001084 91e0 0551 	LDS  R30,_vref
001086 27ff      	CLR  R31
001087 2766      	CLR  R22
001088 2777      	CLR  R23
001089 940e 1322 	CALL __CDF1
00108b 940e 13f8 	CALL __DIVF21
00108d e0a0
00108e e0b0
00108f ec88
001090 e492      	__GETD2N 0x42C80000
001091 940e 13aa 	CALL __MULF12
001093 940e 12eb 	CALL __CFD1
001095 9508      	RET
                 
                 ;OPTIMIZER ADDED SUBROUTINE, CALLED 3 TIMES, CODE SIZE REDUCTION:1 WORDS
                 SUBOPT_0x58:
001096 2766      	CLR  R22
001097 2777      	CLR  R23
001098 cfa0      	RJMP SUBOPT_0x55
                 
                 ;OPTIMIZER ADDED SUBROUTINE, CALLED 2 TIMES, CODE SIZE REDUCTION:1 WORDS
                 SUBOPT_0x59:
001099 91ed      	LD   R30,X+
00109a 91fd      	LD   R31,X+
00109b 9631      	ADIW R30,1
00109c 93fe      	ST   -X,R31
00109d 93ee      	ST   -X,R30
00109e 9731      	SBIW R30,1
00109f 9508      	RET
                 
                 ;OPTIMIZER ADDED SUBROUTINE, CALLED 6 TIMES, CODE SIZE REDUCTION:7 WORDS
                 SUBOPT_0x5A:
0010a0 85a9
0010a1 85ba
0010a2 858b
0010a3 859c      	__GETD2S 9
0010a4 9508      	RET
                 
                 ;OPTIMIZER ADDED SUBROUTINE, CALLED 4 TIMES, CODE SIZE REDUCTION:3 WORDS
                 SUBOPT_0x5B:
0010a5 87e9
0010a6 87fa
0010a7 876b
0010a8 877c      	__PUTD1S 9
0010a9 9508      	RET
                 
                 ;OPTIMIZER ADDED SUBROUTINE, CALLED 3 TIMES, CODE SIZE REDUCTION:1 WORDS
                 SUBOPT_0x5C:
0010aa 83ea
0010ab 83fb
0010ac 836c
0010ad 837d      	__PUTD1S 2
0010ae 9508      	RET
                 
                 ;OPTIMIZER ADDED SUBROUTINE, CALLED 2 TIMES, CODE SIZE REDUCTION:1 WORDS
                 SUBOPT_0x5D:
0010af 81ea
0010b0 81fb
0010b1 816c
0010b2 817d      	__GETD1S 2
0010b3 cfec      	RJMP SUBOPT_0x5A
                 
                 ;OPTIMIZER ADDED SUBROUTINE, CALLED 2 TIMES, CODE SIZE REDUCTION:1 WORDS
                 SUBOPT_0x5E:
0010b4 81aa
0010b5 81bb
0010b6 818c
0010b7 819d      	__GETD2S 2
0010b8 cf53      	RJMP SUBOPT_0x4E
                 
                 ;OPTIMIZER ADDED SUBROUTINE, CALLED 4 TIMES, CODE SIZE REDUCTION:9 WORDS
                 SUBOPT_0x5F:
0010b9 81ae      	LDD  R26,Y+6
0010ba 81bf      	LDD  R27,Y+6+1
0010bb 9611      	ADIW R26,1
0010bc 83ae      	STD  Y+6,R26
0010bd 83bf      	STD  Y+6+1,R27
0010be 9711      	SBIW R26,1
0010bf 9508      	RET
                 
                 ;OPTIMIZER ADDED SUBROUTINE, CALLED 2 TIMES, CODE SIZE REDUCTION:7 WORDS
                 SUBOPT_0x60:
0010c0 940e 13f8 	CALL __DIVF21
0010c2 e0a0
0010c3 e0b0
0010c4 e080
0010c5 e39f      	__GETD2N 0x3F000000
0010c6 940e 135c 	CALL __ADDF12
0010c8 940e 126b 	CALL __PUTPARD1
0010ca 940c 11b4 	JMP  _floor
                 
                 ;OPTIMIZER ADDED SUBROUTINE, CALLED 3 TIMES, CODE SIZE REDUCTION:1 WORDS
                 SUBOPT_0x61:
0010cc 2fe0      	MOV  R30,R16
0010cd 5de0      	SUBI R30,-LOW(48)
0010ce 93ec      	ST   X,R30
0010cf 2fe0      	MOV  R30,R16
0010d0 9508      	RET
                 
                 ;OPTIMIZER ADDED SUBROUTINE, CALLED 3 TIMES, CODE SIZE REDUCTION:3 WORDS
                 SUBOPT_0x62:
0010d1 27ff      	CLR  R31
0010d2 2766      	CLR  R22
0010d3 2777      	CLR  R23
0010d4 940e 1322 	CALL __CDF1
0010d6 9508      	RET
                 
                 ;OPTIMIZER ADDED SUBROUTINE, CALLED 2 TIMES, CODE SIZE REDUCTION:1 WORDS
                 SUBOPT_0x63:
0010d7 940e 1270 	CALL __SWAPD12
0010d9 940e 1355 	CALL __SUBF12
0010db cfc9      	RJMP SUBOPT_0x5B
                 
                 ;OPTIMIZER ADDED SUBROUTINE, CALLED 6 TIMES, CODE SIZE REDUCTION:7 WORDS
                 SUBOPT_0x64:
0010dc df2f      	RCALL SUBOPT_0x4E
0010dd 940e 13aa 	CALL __MULF12
0010df 9508      	RET
                 
                 ;OPTIMIZER ADDED SUBROUTINE, CALLED 6 TIMES, CODE SIZE REDUCTION:7 WORDS
                 SUBOPT_0x65:
0010e0 83ec
0010e1 83fd
0010e2 836e
0010e3 837f      	__PUTD1S 4
0010e4 9508      	RET
                 
                 ;OPTIMIZER ADDED SUBROUTINE, CALLED 4 TIMES, CODE SIZE REDUCTION:9 WORDS
                 SUBOPT_0x66:
0010e5 81ac
0010e6 81bd
0010e7 818e
0010e8 819f      	__GETD2S 4
0010e9 cff2      	RJMP SUBOPT_0x64
                 
                 ;OPTIMIZER ADDED SUBROUTINE, CALLED 5 TIMES, CODE SIZE REDUCTION:5 WORDS
                 SUBOPT_0x67:
0010ea 85ec
0010eb 85fd
0010ec 856e
0010ed 857f      	__GETD1S 12
0010ee 9508      	RET
                 
                 ;OPTIMIZER ADDED SUBROUTINE, CALLED 4 TIMES, CODE SIZE REDUCTION:21 WORDS
                 SUBOPT_0x68:
0010ef 81ec
0010f0 81fd
0010f1 816e
0010f2 817f      	__GETD1S 4
0010f3 85ac
0010f4 85bd
0010f5 858e
0010f6 859f      	__GETD2S 12
0010f7 940e 143d 	CALL __CMPF12
0010f9 9508      	RET
                 
                 ;OPTIMIZER ADDED SUBROUTINE, CALLED 7 TIMES, CODE SIZE REDUCTION:9 WORDS
                 SUBOPT_0x69:
0010fa 85ac
0010fb 85bd
0010fc 858e
0010fd 859f      	__GETD2S 12
0010fe 9508      	RET
                 
                 ;OPTIMIZER ADDED SUBROUTINE, CALLED 2 TIMES, CODE SIZE REDUCTION:4 WORDS
                 SUBOPT_0x6A:
0010ff df0c      	RCALL SUBOPT_0x4E
001100 940e 13f8 	CALL __DIVF21
001102 87ec
001103 87fd
001104 876e
001105 877f      	__PUTD1S 12
001106 5f3f      	SUBI R19,-LOW(1)
001107 9508      	RET
                 
                 ;OPTIMIZER ADDED SUBROUTINE, CALLED 8 TIMES, CODE SIZE REDUCTION:11 WORDS
                 SUBOPT_0x6B:
001108 87ec
001109 87fd
00110a 876e
00110b 877f      	__PUTD1S 12
00110c 9508      	RET
                 
                 ;OPTIMIZER ADDED SUBROUTINE, CALLED 3 TIMES, CODE SIZE REDUCTION:5 WORDS
                 SUBOPT_0x6C:
00110d 85a8      	LDD  R26,Y+8
00110e 85b9      	LDD  R27,Y+8+1
00110f 9611      	ADIW R26,1
001110 87a8      	STD  Y+8,R26
001111 87b9      	STD  Y+8+1,R27
001112 9711      	SBIW R26,1
001113 9508      	RET
                 
                 ;OPTIMIZER ADDED SUBROUTINE, CALLED 3 TIMES, CODE SIZE REDUCTION:5 WORDS
                 SUBOPT_0x6D:
001114 85e8      	LDD  R30,Y+8
001115 85f9      	LDD  R31,Y+8+1
001116 9631      	ADIW R30,1
001117 87e8      	STD  Y+8,R30
001118 87f9      	STD  Y+8+1,R31
001119 9731      	SBIW R30,1
00111a 9508      	RET
                 
                 ;OPTIMIZER ADDED SUBROUTINE, CALLED 4 TIMES, CODE SIZE REDUCTION:36 WORDS
                 SUBOPT_0x6E:
00111b 932a      	ST   -Y,R18
00111c 01fe
00111d 5ae9
00111e 4fff
00111f 9001
001120 81f0
001121 2de0      	__GETW1SX 87
001122 93fa      	ST   -Y,R31
001123 93ea      	ST   -Y,R30
001124 01fe      	MOVW R30,R28
001125 9673      	ADIW R30,19
001126 93fa      	ST   -Y,R31
001127 93ea      	ST   -Y,R30
001128 940c 0a1f 	JMP  __put_G2
                 
                 ;OPTIMIZER ADDED SUBROUTINE, CALLED 7 TIMES, CODE SIZE REDUCTION:33 WORDS
                 SUBOPT_0x6F:
00112a 01de      	MOVW R26,R28
00112b 5aa8      	SUBI R26,LOW(-(88))
00112c 4fbf      	SBCI R27,HIGH(-(88))
00112d 91ed      	LD   R30,X+
00112e 91fd      	LD   R31,X+
00112f 9734      	SBIW R30,4
001130 93fe      	ST   -X,R31
001131 93ee      	ST   -X,R30
001132 9508      	RET
                 
                 ;OPTIMIZER ADDED SUBROUTINE, CALLED 4 TIMES, CODE SIZE REDUCTION:36 WORDS
                 SUBOPT_0x70:
001133 93ea      	ST   -Y,R30
001134 01fe
001135 5ae9
001136 4fff
001137 9001
001138 81f0
001139 2de0      	__GETW1SX 87
00113a 93fa      	ST   -Y,R31
00113b 93ea      	ST   -Y,R30
00113c 01fe      	MOVW R30,R28
00113d 9673      	ADIW R30,19
00113e 93fa      	ST   -Y,R31
00113f 93ea      	ST   -Y,R30
001140 940c 0a1f 	JMP  __put_G2
                 
                 ;OPTIMIZER ADDED SUBROUTINE, CALLED 4 TIMES, CODE SIZE REDUCTION:3 WORDS
                 SUBOPT_0x71:
001142 83ee
001143 83ff
001144 8768
001145 8779      	__PUTD1S 6
001146 9508      	RET
                 
                 ;OPTIMIZER ADDED SUBROUTINE, CALLED 4 TIMES, CODE SIZE REDUCTION:3 WORDS
                 SUBOPT_0x72:
001147 81ee
001148 81ff
001149 8568
00114a 8579      	__GETD1S 6
00114b 9508      	RET
                 
                 ;OPTIMIZER ADDED SUBROUTINE, CALLED 2 TIMES, CODE SIZE REDUCTION:1 WORDS
                 SUBOPT_0x73:
00114c 85ea      	LDD  R30,Y+10
00114d 85fb      	LDD  R31,Y+10+1
00114e 9631      	ADIW R30,1
00114f 87ea      	STD  Y+10,R30
001150 87fb      	STD  Y+10+1,R31
001151 9731      	SBIW R30,1
001152 9508      	RET
                 
                 ;OPTIMIZER ADDED SUBROUTINE, CALLED 2 TIMES, CODE SIZE REDUCTION:4 WORDS
                 SUBOPT_0x74:
001153 87ea      	STD  Y+10,R30
001154 87fb      	STD  Y+10+1,R31
001155 93fa      	ST   -Y,R31
001156 93ea      	ST   -Y,R30
001157 940e 0dbc 	CALL _strlen
001159 2f1e      	MOV  R17,R30
00115a 9508      	RET
                 
                 ;OPTIMIZER ADDED SUBROUTINE, CALLED 4 TIMES, CODE SIZE REDUCTION:3 WORDS
                 SUBOPT_0x75:
00115b 9634      	ADIW R30,4
00115c 01df      	MOVW R26,R30
00115d 940e 125b 	CALL __GETW1P
00115f 9508      	RET
                 
                 ;OPTIMIZER ADDED SUBROUTINE, CALLED 3 TIMES, CODE SIZE REDUCTION:1 WORDS
                 SUBOPT_0x76:
001160 81ae
001161 81bf
001162 8588
001163 8599      	__GETD2S 6
001164 9508      	RET
                 
                 ;OPTIMIZER ADDED SUBROUTINE, CALLED 2 TIMES, CODE SIZE REDUCTION:14 WORDS
                 SUBOPT_0x77:
001165 7f0b      	ANDI R16,LOW(251)
001166 89eb      	LDD  R30,Y+19
001167 93ea      	ST   -Y,R30
001168 01fe
001169 5ae9
00116a 4fff
00116b 9001
00116c 81f0
00116d 2de0      	__GETW1SX 87
00116e 93fa      	ST   -Y,R31
00116f 93ea      	ST   -Y,R30
001170 01fe      	MOVW R30,R28
001171 5ae9      	SUBI R30,LOW(-(87))
001172 4fff      	SBCI R31,HIGH(-(87))
001173 93fa      	ST   -Y,R31
001174 93ea      	ST   -Y,R30
001175 940e 0a1f 	CALL __put_G2
001177 3050      	CPI  R21,0
001178 9508      	RET
                 
                 
                 	.DSEG
                 _310:
00056e           	.BYTE 0x50
                 
                 	.CSEG
                 _delay_ms:
001179 91e9      	ld   r30,y+
00117a 91f9      	ld   r31,y+
00117b 9630      	adiw r30,0
00117c f039      	breq __delay_ms1
                 __delay_ms0:
00117d e988
00117e e093
00117f 9701
001180 f7f1      	__DELAY_USW 0x398
001181 95a8      	wdr
001182 9731      	sbiw r30,1
001183 f7c9      	brne __delay_ms0
                 __delay_ms1:
001184 9508      	ret
                 
                 __ftrunc:
001185 817b      	ldd  r23,y+3
001186 816a      	ldd  r22,y+2
001187 81f9      	ldd  r31,y+1
001188 81e8      	ld   r30,y
001189 fb77      	bst  r23,7
00118a 0f77      	lsl  r23
00118b fd67      	sbrc r22,7
00118c 6071      	sbr  r23,1
00118d 2f97      	mov  r25,r23
00118e 579e      	subi r25,0x7e
00118f f081      	breq __ftrunc0
001190 f078      	brcs __ftrunc0
001191 3198      	cpi  r25,24
001192 f490      	brsh __ftrunc1
001193 27aa      	clr  r26
001194 27bb      	clr  r27
001195 2788      	clr  r24
                 __ftrunc2:
001196 9408      	sec
001197 9587      	ror  r24
001198 95b7      	ror  r27
001199 95a7      	ror  r26
00119a 959a      	dec  r25
00119b f7d1      	brne __ftrunc2
00119c 23ea      	and  r30,r26
00119d 23fb      	and  r31,r27
00119e 2368      	and  r22,r24
00119f c005      	rjmp __ftrunc1
                 __ftrunc0:
0011a0 94e8      	clt
0011a1 2777      	clr  r23
0011a2 27ee      	clr  r30
0011a3 27ff      	clr  r31
0011a4 2766      	clr  r22
                 __ftrunc1:
0011a5 776f      	cbr  r22,0x80
0011a6 9576      	lsr  r23
0011a7 f408      	brcc __ftrunc3
0011a8 6860      	sbr  r22,0x80
                 __ftrunc3:
0011a9 f977      	bld  r23,7
0011aa 91a9      	ld   r26,y+
0011ab 91b9      	ld   r27,y+
0011ac 9189      	ld   r24,y+
0011ad 9199      	ld   r25,y+
0011ae 17ea      	cp   r30,r26
0011af 07fb      	cpc  r31,r27
0011b0 0768      	cpc  r22,r24
0011b1 0779      	cpc  r23,r25
0011b2 fb97      	bst  r25,7
0011b3 9508      	ret
                 
                 _floor:
0011b4 dfd0      	rcall __ftrunc
0011b5 f409      	brne __floor1
                 __floor0:
0011b6 9508      	ret
                 __floor1:
0011b7 f7f6      	brtc __floor0
0011b8 eb9f      	ldi  r25,0xbf
                 
                 __addfc:
0011b9 27aa      	clr  r26
0011ba 27bb      	clr  r27
0011bb e880      	ldi  r24,0x80
0011bc c19f      	rjmp __addf12
                 
                 __ADDW2R15:
0011bd 2400      	CLR  R0
0011be 0daf      	ADD  R26,R15
0011bf 1db0      	ADC  R27,R0
0011c0 9508      	RET
                 
                 __ANEGD1:
0011c1 95f0      	COM  R31
0011c2 9560      	COM  R22
0011c3 9570      	COM  R23
0011c4 95e1      	NEG  R30
0011c5 4fff      	SBCI R31,-1
0011c6 4f6f      	SBCI R22,-1
0011c7 4f7f      	SBCI R23,-1
0011c8 9508      	RET
                 
                 __LSLB12:
0011c9 23ee      	TST  R30
0011ca 2e0e      	MOV  R0,R30
0011cb 2fea      	MOV  R30,R26
0011cc f019      	BREQ __LSLB12R
                 __LSLB12L:
0011cd 0fee      	LSL  R30
0011ce 940a      	DEC  R0
0011cf f7e9      	BRNE __LSLB12L
                 __LSLB12R:
0011d0 9508      	RET
                 
                 __LSLW2:
0011d1 0fee      	LSL  R30
0011d2 1fff      	ROL  R31
0011d3 0fee      	LSL  R30
0011d4 1fff      	ROL  R31
0011d5 9508      	RET
                 
                 __CBD1:
0011d6 2ffe      	MOV  R31,R30
0011d7 0fff      	ADD  R31,R31
0011d8 0bff      	SBC  R31,R31
0011d9 2f6f      	MOV  R22,R31
0011da 2f7f      	MOV  R23,R31
0011db 9508      	RET
                 
                 __CWD1:
0011dc 2f6f      	MOV  R22,R31
0011dd 0f66      	ADD  R22,R22
0011de 0b66      	SBC  R22,R22
0011df 2f76      	MOV  R23,R22
0011e0 9508      	RET
                 
                 __LNEGB1:
0011e1 23ee      	TST  R30
0011e2 e0e1      	LDI  R30,1
0011e3 f009      	BREQ __LNEGB1F
0011e4 27ee      	CLR  R30
                 __LNEGB1F:
0011e5 9508      	RET
                 
                 __MULW12U:
0011e6 9ffa      	MUL  R31,R26
0011e7 2df0      	MOV  R31,R0
0011e8 9feb      	MUL  R30,R27
0011e9 0df0      	ADD  R31,R0
0011ea 9fea      	MUL  R30,R26
0011eb 2de0      	MOV  R30,R0
0011ec 0df1      	ADD  R31,R1
0011ed 9508      	RET
                 
                 __MULB1W2U:
0011ee 2f6e      	MOV  R22,R30
0011ef 9f6a      	MUL  R22,R26
0011f0 01f0      	MOVW R30,R0
0011f1 9f6b      	MUL  R22,R27
0011f2 0df0      	ADD  R31,R0
0011f3 9508      	RET
                 
                 __DIVB21U:
0011f4 2400      	CLR  R0
0011f5 e098      	LDI  R25,8
                 __DIVB21U1:
0011f6 0faa      	LSL  R26
0011f7 1c00      	ROL  R0
0011f8 1a0e      	SUB  R0,R30
0011f9 f410      	BRCC __DIVB21U2
0011fa 0e0e      	ADD  R0,R30
0011fb c001      	RJMP __DIVB21U3
                 __DIVB21U2:
0011fc 60a1      	SBR  R26,1
                 __DIVB21U3:
0011fd 959a      	DEC  R25
0011fe f7b9      	BRNE __DIVB21U1
0011ff 2fea      	MOV  R30,R26
001200 2da0      	MOV  R26,R0
001201 9508      	RET
                 
                 __DIVB21:
001202 d04c      	RCALL __CHKSIGNB
001203 dff0      	RCALL __DIVB21U
001204 f40e      	BRTC __DIVB211
001205 95e1      	NEG  R30
                 __DIVB211:
001206 9508      	RET
                 
                 __DIVW21U:
001207 2400      	CLR  R0
001208 2411      	CLR  R1
001209 e190      	LDI  R25,16
                 __DIVW21U1:
00120a 0faa      	LSL  R26
00120b 1fbb      	ROL  R27
00120c 1c00      	ROL  R0
00120d 1c11      	ROL  R1
00120e 1a0e      	SUB  R0,R30
00120f 0a1f      	SBC  R1,R31
001210 f418      	BRCC __DIVW21U2
001211 0e0e      	ADD  R0,R30
001212 1e1f      	ADC  R1,R31
001213 c001      	RJMP __DIVW21U3
                 __DIVW21U2:
001214 60a1      	SBR  R26,1
                 __DIVW21U3:
001215 959a      	DEC  R25
001216 f799      	BRNE __DIVW21U1
001217 01fd      	MOVW R30,R26
001218 01d0      	MOVW R26,R0
001219 9508      	RET
                 
                 __DIVD21U:
00121a 933f      	PUSH R19
00121b 934f      	PUSH R20
00121c 935f      	PUSH R21
00121d 2400      	CLR  R0
00121e 2411      	CLR  R1
00121f 2744      	CLR  R20
001220 2755      	CLR  R21
001221 e230      	LDI  R19,32
                 __DIVD21U1:
001222 0faa      	LSL  R26
001223 1fbb      	ROL  R27
001224 1f88      	ROL  R24
001225 1f99      	ROL  R25
001226 1c00      	ROL  R0
001227 1c11      	ROL  R1
001228 1f44      	ROL  R20
001229 1f55      	ROL  R21
00122a 1a0e      	SUB  R0,R30
00122b 0a1f      	SBC  R1,R31
00122c 0b46      	SBC  R20,R22
00122d 0b57      	SBC  R21,R23
00122e f428      	BRCC __DIVD21U2
00122f 0e0e      	ADD  R0,R30
001230 1e1f      	ADC  R1,R31
001231 1f46      	ADC  R20,R22
001232 1f57      	ADC  R21,R23
001233 c001      	RJMP __DIVD21U3
                 __DIVD21U2:
001234 60a1      	SBR  R26,1
                 __DIVD21U3:
001235 953a      	DEC  R19
001236 f759      	BRNE __DIVD21U1
001237 01fd      	MOVW R30,R26
001238 01bc      	MOVW R22,R24
001239 01d0      	MOVW R26,R0
00123a 01ca      	MOVW R24,R20
00123b 915f      	POP  R21
00123c 914f      	POP  R20
00123d 913f      	POP  R19
00123e 9508      	RET
                 
                 __MODB21:
00123f 94e8      	CLT
001240 ffa7      	SBRS R26,7
001241 c002      	RJMP __MODB211
001242 95a1      	NEG  R26
001243 9468      	SET
                 __MODB211:
001244 fde7      	SBRC R30,7
001245 95e1      	NEG  R30
001246 dfad      	RCALL __DIVB21U
001247 2fea      	MOV  R30,R26
001248 f40e      	BRTC __MODB212
001249 95e1      	NEG  R30
                 __MODB212:
00124a 9508      	RET
                 
                 __MODD21U:
00124b dfce      	RCALL __DIVD21U
00124c 01fd      	MOVW R30,R26
00124d 01bc      	MOVW R22,R24
00124e 9508      	RET
                 
                 __CHKSIGNB:
00124f 94e8      	CLT
001250 ffe7      	SBRS R30,7
001251 c002      	RJMP __CHKSB1
001252 95e1      	NEG  R30
001253 9468      	SET
                 __CHKSB1:
001254 ffa7      	SBRS R26,7
001255 c004      	RJMP __CHKSB2
001256 95a1      	NEG  R26
001257 f800      	BLD  R0,0
001258 9403      	INC  R0
001259 fa00      	BST  R0,0
                 __CHKSB2:
00125a 9508      	RET
                 
                 __GETW1P:
00125b 91ed      	LD   R30,X+
00125c 91fc      	LD   R31,X
00125d 9711      	SBIW R26,1
00125e 9508      	RET
                 
                 __GETD1P:
00125f 91ed      	LD   R30,X+
001260 91fd      	LD   R31,X+
001261 916d      	LD   R22,X+
001262 917c      	LD   R23,X
001263 9713      	SBIW R26,3
001264 9508      	RET
                 
                 __GETD1PF:
001265 9005      	LPM  R0,Z+
001266 9015      	LPM  R1,Z+
001267 9165      	LPM  R22,Z+
001268 9174      	LPM  R23,Z
001269 01f0      	MOVW R30,R0
00126a 9508      	RET
                 
                 __PUTPARD1:
00126b 937a      	ST   -Y,R23
00126c 936a      	ST   -Y,R22
00126d 93fa      	ST   -Y,R31
00126e 93ea      	ST   -Y,R30
00126f 9508      	RET
                 
                 __SWAPD12:
001270 2e18      	MOV  R1,R24
001271 2f86      	MOV  R24,R22
001272 2d61      	MOV  R22,R1
001273 2e19      	MOV  R1,R25
001274 2f97      	MOV  R25,R23
001275 2d71      	MOV  R23,R1
                 
                 __SWAPW12:
001276 2e1b      	MOV  R1,R27
001277 2fbf      	MOV  R27,R31
001278 2df1      	MOV  R31,R1
                 
                 __SWAPB12:
001279 2e1a      	MOV  R1,R26
00127a 2fae      	MOV  R26,R30
00127b 2de1      	MOV  R30,R1
00127c 9508      	RET
                 
                 __EEPROMRDD:
00127d 9612      	ADIW R26,2
00127e d003      	RCALL __EEPROMRDW
00127f 2f7f      	MOV  R23,R31
001280 2f6e      	MOV  R22,R30
001281 9712      	SBIW R26,2
                 
                 __EEPROMRDW:
001282 9611      	ADIW R26,1
001283 d002      	RCALL __EEPROMRDB
001284 2ffe      	MOV  R31,R30
001285 9711      	SBIW R26,1
                 
                 __EEPROMRDB:
001286 99e1      	SBIC EECR,EEWE
001287 cffe      	RJMP __EEPROMRDB
001288 93ff      	PUSH R31
001289 b7ff      	IN   R31,SREG
00128a 94f8      	CLI
00128b bbae      	OUT  EEARL,R26
00128c bbbf      	OUT  EEARH,R27
00128d 9ae0      	SBI  EECR,EERE
00128e b3ed      	IN   R30,EEDR
00128f bfff      	OUT  SREG,R31
001290 91ff      	POP  R31
001291 9508      	RET
                 
                 __EEPROMWRD:
001292 d00a      	RCALL __EEPROMWRW
001293 9612      	ADIW R26,2
001294 2e0e      	MOV  R0,R30
001295 2e1f      	MOV  R1,R31
001296 2fe6      	MOV  R30,R22
001297 2ff7      	MOV  R31,R23
001298 d004      	RCALL __EEPROMWRW
001299 2de0      	MOV  R30,R0
00129a 2df1      	MOV  R31,R1
00129b 9712      	SBIW R26,2
00129c 9508      	RET
                 
                 __EEPROMWRW:
00129d d007      	RCALL __EEPROMWRB
00129e 9611      	ADIW R26,1
00129f 93ef      	PUSH R30
0012a0 2fef      	MOV  R30,R31
0012a1 d003      	RCALL __EEPROMWRB
0012a2 91ef      	POP  R30
0012a3 9711      	SBIW R26,1
0012a4 9508      	RET
                 
                 __EEPROMWRB:
0012a5 9be1      	SBIS EECR,EEWE
0012a6 c002      	RJMP __EEPROMWRB1
0012a7 95a8      	WDR
0012a8 cffc      	RJMP __EEPROMWRB
                 __EEPROMWRB1:
0012a9 b79f      	IN   R25,SREG
0012aa 94f8      	CLI
0012ab bbae      	OUT  EEARL,R26
0012ac bbbf      	OUT  EEARH,R27
0012ad 9ae0      	SBI  EECR,EERE
0012ae b38d      	IN   R24,EEDR
0012af 17e8      	CP   R30,R24
0012b0 f019      	BREQ __EEPROMWRB0
0012b1 bbed      	OUT  EEDR,R30
0012b2 9ae2      	SBI  EECR,EEMWE
0012b3 9ae1      	SBI  EECR,EEWE
                 __EEPROMWRB0:
0012b4 bf9f      	OUT  SREG,R25
0012b5 9508      	RET
                 
                 __ANEGF1:
0012b6 9730      	SBIW R30,0
0012b7 4060      	SBCI R22,0
0012b8 4070      	SBCI R23,0
0012b9 f009      	BREQ __ANEGF10
0012ba 5870      	SUBI R23,0x80
                 __ANEGF10:
0012bb 9508      	RET
                 
                 __ROUND_REPACK:
0012bc 2355      	TST  R21
0012bd f442      	BRPL __REPACK
0012be 3850      	CPI  R21,0x80
0012bf f411      	BRNE __ROUND_REPACK0
0012c0 ffe0      	SBRS R30,0
0012c1 c004      	RJMP __REPACK
                 __ROUND_REPACK0:
0012c2 9631      	ADIW R30,1
0012c3 1f69      	ADC  R22,R25
0012c4 1f79      	ADC  R23,R25
0012c5 f06b      	BRVS __REPACK1
                 
                 __REPACK:
0012c6 e850      	LDI  R21,0x80
0012c7 2757      	EOR  R21,R23
0012c8 f411      	BRNE __REPACK0
0012c9 935f      	PUSH R21
0012ca c0cd      	RJMP __ZERORES
                 __REPACK0:
0012cb 3f5f      	CPI  R21,0xFF
0012cc f031      	BREQ __REPACK1
0012cd 0f66      	LSL  R22
0012ce 0c00      	LSL  R0
0012cf 9557      	ROR  R21
0012d0 9567      	ROR  R22
0012d1 2f75      	MOV  R23,R21
0012d2 9508      	RET
                 __REPACK1:
0012d3 935f      	PUSH R21
0012d4 2000      	TST  R0
0012d5 f00a      	BRMI __REPACK2
0012d6 c0cd      	RJMP __MAXRES
                 __REPACK2:
0012d7 c0c6      	RJMP __MINRES
                 
                 __UNPACK:
0012d8 e850      	LDI  R21,0x80
0012d9 2e19      	MOV  R1,R25
0012da 2215      	AND  R1,R21
0012db 0f88      	LSL  R24
0012dc 1f99      	ROL  R25
0012dd 2795      	EOR  R25,R21
0012de 0f55      	LSL  R21
0012df 9587      	ROR  R24
                 
                 __UNPACK1:
0012e0 e850      	LDI  R21,0x80
0012e1 2e07      	MOV  R0,R23
0012e2 2205      	AND  R0,R21
0012e3 0f66      	LSL  R22
0012e4 1f77      	ROL  R23
0012e5 2775      	EOR  R23,R21
0012e6 0f55      	LSL  R21
0012e7 9567      	ROR  R22
0012e8 9508      	RET
                 
                 __CFD1U:
0012e9 9468      	SET
0012ea c001      	RJMP __CFD1U0
                 __CFD1:
0012eb 94e8      	CLT
                 __CFD1U0:
0012ec 935f      	PUSH R21
0012ed dff2      	RCALL __UNPACK1
0012ee 3870      	CPI  R23,0x80
0012ef f018      	BRLO __CFD10
0012f0 3f7f      	CPI  R23,0xFF
0012f1 f408      	BRCC __CFD10
0012f2 c0a5      	RJMP __ZERORES
                 __CFD10:
0012f3 e156      	LDI  R21,22
0012f4 1b57      	SUB  R21,R23
0012f5 f4aa      	BRPL __CFD11
0012f6 9551      	NEG  R21
0012f7 3058      	CPI  R21,8
0012f8 f40e      	BRTC __CFD19
0012f9 3059      	CPI  R21,9
                 __CFD19:
0012fa f030      	BRLO __CFD17
0012fb efef      	SER  R30
0012fc efff      	SER  R31
0012fd ef6f      	SER  R22
0012fe e77f      	LDI  R23,0x7F
0012ff f977      	BLD  R23,7
001300 c01a      	RJMP __CFD15
                 __CFD17:
001301 2777      	CLR  R23
001302 2355      	TST  R21
001303 f0b9      	BREQ __CFD15
                 __CFD18:
001304 0fee      	LSL  R30
001305 1fff      	ROL  R31
001306 1f66      	ROL  R22
001307 1f77      	ROL  R23
001308 955a      	DEC  R21
001309 f7d1      	BRNE __CFD18
00130a c010      	RJMP __CFD15
                 __CFD11:
00130b 2777      	CLR  R23
                 __CFD12:
00130c 3058      	CPI  R21,8
00130d f028      	BRLO __CFD13
00130e 2fef      	MOV  R30,R31
00130f 2ff6      	MOV  R31,R22
001310 2f67      	MOV  R22,R23
001311 5058      	SUBI R21,8
001312 cff9      	RJMP __CFD12
                 __CFD13:
001313 2355      	TST  R21
001314 f031      	BREQ __CFD15
                 __CFD14:
001315 9576      	LSR  R23
001316 9567      	ROR  R22
001317 95f7      	ROR  R31
001318 95e7      	ROR  R30
001319 955a      	DEC  R21
00131a f7d1      	BRNE __CFD14
                 __CFD15:
00131b 2000      	TST  R0
00131c f40a      	BRPL __CFD16
00131d dea3      	RCALL __ANEGD1
                 __CFD16:
00131e 915f      	POP  R21
00131f 9508      	RET
                 
                 __CDF1U:
001320 9468      	SET
001321 c001      	RJMP __CDF1U0
                 __CDF1:
001322 94e8      	CLT
                 __CDF1U0:
001323 9730      	SBIW R30,0
001324 4060      	SBCI R22,0
001325 4070      	SBCI R23,0
001326 f0b1      	BREQ __CDF10
001327 2400      	CLR  R0
001328 f026      	BRTS __CDF11
001329 2377      	TST  R23
00132a f412      	BRPL __CDF11
00132b 9400      	COM  R0
00132c de94      	RCALL __ANEGD1
                 __CDF11:
00132d 2e17      	MOV  R1,R23
00132e e17e      	LDI  R23,30
00132f 2011      	TST  R1
                 __CDF12:
001330 f032      	BRMI __CDF13
001331 957a      	DEC  R23
001332 0fee      	LSL  R30
001333 1fff      	ROL  R31
001334 1f66      	ROL  R22
001335 1c11      	ROL  R1
001336 cff9      	RJMP __CDF12
                 __CDF13:
001337 2fef      	MOV  R30,R31
001338 2ff6      	MOV  R31,R22
001339 2d61      	MOV  R22,R1
00133a 935f      	PUSH R21
00133b df8a      	RCALL __REPACK
00133c 915f      	POP  R21
                 __CDF10:
00133d 9508      	RET
                 
                 __SWAPACC:
00133e 934f      	PUSH R20
00133f 01af      	MOVW R20,R30
001340 01fd      	MOVW R30,R26
001341 01da      	MOVW R26,R20
001342 01ab      	MOVW R20,R22
001343 01bc      	MOVW R22,R24
001344 01ca      	MOVW R24,R20
001345 2d40      	MOV  R20,R0
001346 2c01      	MOV  R0,R1
001347 2e14      	MOV  R1,R20
001348 914f      	POP  R20
001349 9508      	RET
                 
                 __UADD12:
00134a 0fea      	ADD  R30,R26
00134b 1ffb      	ADC  R31,R27
00134c 1f68      	ADC  R22,R24
00134d 9508      	RET
                 
                 __NEGMAN1:
00134e 95e0      	COM  R30
00134f 95f0      	COM  R31
001350 9560      	COM  R22
001351 5fef      	SUBI R30,-1
001352 4fff      	SBCI R31,-1
001353 4f6f      	SBCI R22,-1
001354 9508      	RET
                 
                 __SUBF12:
001355 935f      	PUSH R21
001356 df81      	RCALL __UNPACK
001357 3890      	CPI  R25,0x80
001358 f171      	BREQ __ADDF129
001359 e850      	LDI  R21,0x80
00135a 2615      	EOR  R1,R21
                 
00135b c004      	RJMP __ADDF120
                 
                 __ADDF12:
00135c 935f      	PUSH R21
00135d df7a      	RCALL __UNPACK
00135e 3890      	CPI  R25,0x80
00135f f139      	BREQ __ADDF129
                 
                 __ADDF120:
001360 3870      	CPI  R23,0x80
001361 f121      	BREQ __ADDF128
                 __ADDF121:
001362 2f57      	MOV  R21,R23
001363 1b59      	SUB  R21,R25
001364 f113      	BRVS __ADDF129
001365 f412      	BRPL __ADDF122
001366 dfd7      	RCALL __SWAPACC
001367 cffa      	RJMP __ADDF121
                 __ADDF122:
001368 3158      	CPI  R21,24
001369 f018      	BRLO __ADDF123
00136a 27aa      	CLR  R26
00136b 27bb      	CLR  R27
00136c 2788      	CLR  R24
                 __ADDF123:
00136d 3058      	CPI  R21,8
00136e f028      	BRLO __ADDF124
00136f 2fab      	MOV  R26,R27
001370 2fb8      	MOV  R27,R24
001371 2788      	CLR  R24
001372 5058      	SUBI R21,8
001373 cff9      	RJMP __ADDF123
                 __ADDF124:
001374 2355      	TST  R21
001375 f029      	BREQ __ADDF126
                 __ADDF125:
001376 9586      	LSR  R24
001377 95b7      	ROR  R27
001378 95a7      	ROR  R26
001379 955a      	DEC  R21
00137a f7d9      	BRNE __ADDF125
                 __ADDF126:
00137b 2d50      	MOV  R21,R0
00137c 2551      	EOR  R21,R1
00137d f062      	BRMI __ADDF127
00137e dfcb      	RCALL __UADD12
00137f f438      	BRCC __ADDF129
001380 9567      	ROR  R22
001381 95f7      	ROR  R31
001382 95e7      	ROR  R30
001383 9573      	INC  R23
001384 f413      	BRVC __ADDF129
001385 c01e      	RJMP __MAXRES
                 __ADDF128:
001386 dfb7      	RCALL __SWAPACC
                 __ADDF129:
001387 df3e      	RCALL __REPACK
001388 915f      	POP  R21
001389 9508      	RET
                 __ADDF127:
00138a 1bea      	SUB  R30,R26
00138b 0bfb      	SBC  R31,R27
00138c 0b68      	SBC  R22,R24
00138d f051      	BREQ __ZERORES
00138e f410      	BRCC __ADDF1210
00138f 9400      	COM  R0
001390 dfbd      	RCALL __NEGMAN1
                 __ADDF1210:
001391 2366      	TST  R22
001392 f3a2      	BRMI __ADDF129
001393 0fee      	LSL  R30
001394 1fff      	ROL  R31
001395 1f66      	ROL  R22
001396 957a      	DEC  R23
001397 f7cb      	BRVC __ADDF1210
                 
                 __ZERORES:
001398 27ee      	CLR  R30
001399 27ff      	CLR  R31
00139a 2766      	CLR  R22
00139b 2777      	CLR  R23
00139c 915f      	POP  R21
00139d 9508      	RET
                 
                 __MINRES:
00139e efef      	SER  R30
00139f efff      	SER  R31
0013a0 e76f      	LDI  R22,0x7F
0013a1 ef7f      	SER  R23
0013a2 915f      	POP  R21
0013a3 9508      	RET
                 
                 __MAXRES:
0013a4 efef      	SER  R30
0013a5 efff      	SER  R31
0013a6 e76f      	LDI  R22,0x7F
0013a7 e77f      	LDI  R23,0x7F
0013a8 915f      	POP  R21
0013a9 9508      	RET
                 
                 __MULF12:
0013aa 935f      	PUSH R21
0013ab df2c      	RCALL __UNPACK
0013ac 3870      	CPI  R23,0x80
0013ad f351      	BREQ __ZERORES
0013ae 3890      	CPI  R25,0x80
0013af f341      	BREQ __ZERORES
0013b0 2401      	EOR  R0,R1
0013b1 9408      	SEC
0013b2 1f79      	ADC  R23,R25
0013b3 f423      	BRVC __MULF124
0013b4 f31c      	BRLT __ZERORES
                 __MULF125:
0013b5 2000      	TST  R0
0013b6 f33a      	BRMI __MINRES
0013b7 cfec      	RJMP __MAXRES
                 __MULF124:
0013b8 920f      	PUSH R0
0013b9 931f      	PUSH R17
0013ba 932f      	PUSH R18
0013bb 933f      	PUSH R19
0013bc 934f      	PUSH R20
0013bd 2711      	CLR  R17
0013be 2722      	CLR  R18
0013bf 2799      	CLR  R25
0013c0 9f68      	MUL  R22,R24
0013c1 01a0      	MOVW R20,R0
0013c2 9f8f      	MUL  R24,R31
0013c3 2d30      	MOV  R19,R0
0013c4 0d41      	ADD  R20,R1
0013c5 1f59      	ADC  R21,R25
0013c6 9f6b      	MUL  R22,R27
0013c7 0d30      	ADD  R19,R0
0013c8 1d41      	ADC  R20,R1
0013c9 1f59      	ADC  R21,R25
0013ca 9f8e      	MUL  R24,R30
0013cb d027      	RCALL __MULF126
0013cc 9fbf      	MUL  R27,R31
0013cd d025      	RCALL __MULF126
0013ce 9f6a      	MUL  R22,R26
0013cf d023      	RCALL __MULF126
0013d0 9fbe      	MUL  R27,R30
0013d1 d01d      	RCALL __MULF127
0013d2 9faf      	MUL  R26,R31
0013d3 d01b      	RCALL __MULF127
0013d4 9fae      	MUL  R26,R30
0013d5 0d11      	ADD  R17,R1
0013d6 1f29      	ADC  R18,R25
0013d7 1f39      	ADC  R19,R25
0013d8 1f49      	ADC  R20,R25
0013d9 1f59      	ADC  R21,R25
0013da 2fe3      	MOV  R30,R19
0013db 2ff4      	MOV  R31,R20
0013dc 2f65      	MOV  R22,R21
0013dd 2f52      	MOV  R21,R18
0013de 914f      	POP  R20
0013df 913f      	POP  R19
0013e0 912f      	POP  R18
0013e1 911f      	POP  R17
0013e2 900f      	POP  R0
0013e3 2366      	TST  R22
0013e4 f02a      	BRMI __MULF122
0013e5 0f55      	LSL  R21
0013e6 1fee      	ROL  R30
0013e7 1fff      	ROL  R31
0013e8 1f66      	ROL  R22
0013e9 c002      	RJMP __MULF123
                 __MULF122:
0013ea 9573      	INC  R23
0013eb f24b      	BRVS __MULF125
                 __MULF123:
0013ec decf      	RCALL __ROUND_REPACK
0013ed 915f      	POP  R21
0013ee 9508      	RET
                 
                 __MULF127:
0013ef 0d10      	ADD  R17,R0
0013f0 1d21      	ADC  R18,R1
0013f1 1f39      	ADC  R19,R25
0013f2 c002      	RJMP __MULF128
                 __MULF126:
0013f3 0d20      	ADD  R18,R0
0013f4 1d31      	ADC  R19,R1
                 __MULF128:
0013f5 1f49      	ADC  R20,R25
0013f6 1f59      	ADC  R21,R25
0013f7 9508      	RET
                 
                 __DIVF21:
0013f8 935f      	PUSH R21
0013f9 dede      	RCALL __UNPACK
0013fa 3870      	CPI  R23,0x80
0013fb f421      	BRNE __DIVF210
0013fc 2011      	TST  R1
                 __DIVF211:
0013fd f40a      	BRPL __DIVF219
0013fe cf9f      	RJMP __MINRES
                 __DIVF219:
0013ff cfa4      	RJMP __MAXRES
                 __DIVF210:
001400 3890      	CPI  R25,0x80
001401 f409      	BRNE __DIVF218
                 __DIVF217:
001402 cf95      	RJMP __ZERORES
                 __DIVF218:
001403 2401      	EOR  R0,R1
001404 9408      	SEC
001405 0b97      	SBC  R25,R23
001406 f41b      	BRVC __DIVF216
001407 f3d4      	BRLT __DIVF217
001408 2000      	TST  R0
001409 cff3      	RJMP __DIVF211
                 __DIVF216:
00140a 2f79      	MOV  R23,R25
00140b 931f      	PUSH R17
00140c 932f      	PUSH R18
00140d 933f      	PUSH R19
00140e 934f      	PUSH R20
00140f 2411      	CLR  R1
001410 2711      	CLR  R17
001411 2722      	CLR  R18
001412 2733      	CLR  R19
001413 2744      	CLR  R20
001414 2755      	CLR  R21
001415 e290      	LDI  R25,32
                 __DIVF212:
001416 17ae      	CP   R26,R30
001417 07bf      	CPC  R27,R31
001418 0786      	CPC  R24,R22
001419 0741      	CPC  R20,R17
00141a f030      	BRLO __DIVF213
00141b 1bae      	SUB  R26,R30
00141c 0bbf      	SBC  R27,R31
00141d 0b86      	SBC  R24,R22
00141e 0b41      	SBC  R20,R17
00141f 9408      	SEC
001420 c001      	RJMP __DIVF214
                 __DIVF213:
001421 9488      	CLC
                 __DIVF214:
001422 1f55      	ROL  R21
001423 1f22      	ROL  R18
001424 1f33      	ROL  R19
001425 1c11      	ROL  R1
001426 1faa      	ROL  R26
001427 1fbb      	ROL  R27
001428 1f88      	ROL  R24
001429 1f44      	ROL  R20
00142a 959a      	DEC  R25
00142b f751      	BRNE __DIVF212
00142c 01f9      	MOVW R30,R18
00142d 2d61      	MOV  R22,R1
00142e 914f      	POP  R20
00142f 913f      	POP  R19
001430 912f      	POP  R18
001431 911f      	POP  R17
001432 2366      	TST  R22
001433 f032      	BRMI __DIVF215
001434 0f55      	LSL  R21
001435 1fee      	ROL  R30
001436 1fff      	ROL  R31
001437 1f66      	ROL  R22
001438 957a      	DEC  R23
001439 f243      	BRVS __DIVF217
                 __DIVF215:
00143a de81      	RCALL __ROUND_REPACK
00143b 915f      	POP  R21
00143c 9508      	RET
                 
                 __CMPF12:
00143d 2399      	TST  R25
00143e f09a      	BRMI __CMPF120
00143f 2377      	TST  R23
001440 f042      	BRMI __CMPF121
001441 1797      	CP   R25,R23
001442 f048      	BRLO __CMPF122
001443 f429      	BRNE __CMPF121
001444 17ae      	CP   R26,R30
001445 07bf      	CPC  R27,R31
001446 0786      	CPC  R24,R22
001447 f020      	BRLO __CMPF122
001448 f031      	BREQ __CMPF123
                 __CMPF121:
001449 9498      	CLZ
00144a 9488      	CLC
00144b 9508      	RET
                 __CMPF122:
00144c 9498      	CLZ
00144d 9408      	SEC
00144e 9508      	RET
                 __CMPF123:
00144f 9418      	SEZ
001450 9488      	CLC
001451 9508      	RET
                 __CMPF120:
001452 2377      	TST  R23
001453 f7c2      	BRPL __CMPF122
001454 1797      	CP   R25,R23
001455 f398      	BRLO __CMPF121
001456 f7a9      	BRNE __CMPF122
001457 17ea      	CP   R30,R26
001458 07fb      	CPC  R31,R27
001459 0768      	CPC  R22,R24
00145a f388      	BRLO __CMPF122
00145b f399      	BREQ __CMPF123
00145c cfec      	RJMP __CMPF121
                 
                 __CPD10:
00145d 9730      	SBIW R30,0
00145e 4060      	SBCI R22,0
00145f 4070      	SBCI R23,0
001460 9508      	RET
                 
                 __CPD20:
001461 9710      	SBIW R26,0
001462 4080      	SBCI R24,0
001463 4090      	SBCI R25,0
001464 9508      	RET
                 
                 __SAVELOCR6:
001465 935a      	ST   -Y,R21
                 __SAVELOCR5:
001466 934a      	ST   -Y,R20
                 __SAVELOCR4:
001467 933a      	ST   -Y,R19
                 __SAVELOCR3:
001468 932a      	ST   -Y,R18
                 __SAVELOCR2:
001469 931a      	ST   -Y,R17
00146a 930a      	ST   -Y,R16
00146b 9508      	RET
                 
                 __LOADLOCR6:
00146c 815d      	LDD  R21,Y+5
                 __LOADLOCR5:
00146d 814c      	LDD  R20,Y+4
                 __LOADLOCR4:
00146e 813b      	LDD  R19,Y+3
                 __LOADLOCR3:
00146f 812a      	LDD  R18,Y+2
                 __LOADLOCR2:
001470 8119      	LDD  R17,Y+1
001471 8108      	LD   R16,Y
001472 9508      	RET
                 
                 __INITLOCB:
                 __INITLOCW:
001473 0fac      	ADD R26,R28
001474 1fbd      	ADC R27,R29
                 __INITLOC0:
001475 9005      	LPM  R0,Z+
001476 920d      	ST   X+,R0
001477 958a      	DEC  R24
001478 f7e1      	BRNE __INITLOC0
001479 9508      	RET
                 
                 ;END OF CODE MARKER
                 __END_OF_CODE:


RESOURCE USE INFORMATION
------------------------

Notice:
The register and instruction counts are symbol table hit counts,
and hence implicitly used resources are not counted, eg, the
'lpm' instruction without operands implicitly uses r0 and z,
none of which are counted.

x,y,z are separate entities in the symbol table and are
counted separately from r26..r31 here.

.dseg memory usage only counts static data declared with .byte

ATmega128 register use summary:
r0 :  83 r1 :  46 r2 :   0 r3 :   0 r4 :   7 r5 :   2 r6 :   5 r7 :   3 
r8 :   5 r9 :   3 r10:   6 r11:   3 r12:   7 r13:   0 r14:   0 r15:   6 
r16:  75 r17: 119 r18:  44 r19:  57 r20:  50 r21:  90 r22: 141 r23: 120 
r24:  84 r25:  72 r26: 307 r27: 144 r28:  55 r29:   2 r30:1002 r31: 341 
x  :  42 y  : 398 z  :  46 
Registers used: 31 out of 35 (88.6%)

ATmega128 instruction use summary:
adc   :  38 add   :  34 adiw  :  53 and   :   7 andi  :  17 asr   :   0 
bclr  :   0 bld   :   3 brbc  :   0 brbs  :   0 brcc  :   9 brcs  :   2 
break :   0 breq  :  83 brge  :   4 brhc  :   0 brhs  :   0 brid  :   0 
brie  :   0 brlo  :  48 brlt  :   4 brmi  :   9 brne  : 116 brpl  :   7 
brsh  :  27 brtc  :   4 brts  :   1 brvc  :   4 brvs  :   4 bset  :   0 
bst   :   3 call  : 626 cbi   :  17 cbr   :   1 clc   :   3 clh   :   0 
cli   :   3 cln   :   0 clr   :  88 cls   :   0 clt   :   5 clv   :   0 
clz   :   2 com   :   8 cp    :  20 cpc   :  33 cpi   : 158 cpse  :   0 
dec   :  15 elpm  :   0 eor   :   7 fmul  :   0 fmuls :   0 fmulsu:   0 
icall :   0 ijmp  :   0 in    :  19 inc   :   3 jmp   :  62 ld    :  77 
ldd   : 152 ldi   : 492 lds   : 169 lpm   :  16 lsl   :  20 lsr   :   3 
mov   : 114 movw  :  89 mul   :  21 muls  :   0 mulsu :   0 neg   :   9 
nop   :   0 or    :   2 ori   :   9 out   :  65 pop   :  24 push  :  24 
rcall :  37 ret   : 161 reti  :   2 rjmp  : 245 rol   :  39 ror   :  15 
sbc   :  18 sbci  :  26 sbi   :  23 sbic  :   1 sbis  :   4 sbiw  :  41 
sbr   :   5 sbrc  :   4 sbrs  :  20 sec   :   5 seh   :   0 sei   :   1 
sen   :   0 ser   :   8 ses   :   0 set   :   4 sev   :   0 sez   :   1 
sleep :   0 spm   :   0 st    : 171 std   :  70 sts   : 154 sub   :  13 
subi  :  85 swap  :   0 tst   :  21 wdr   :   2 
Instructions used: 81 out of 112 (72.3%)

ATmega128 memory use summary [bytes]:
Segment   Begin    End      Code   Data   Used    Size   Use%
---------------------------------------------------------------
[.cseg] 0x000000 0x0028f4  10040    444  10484  131072   8.0%
[.dseg] 0x000100 0x0005be      0    190    190    4096   4.6%
[.eseg] 0x000000 0x000006      0      6      6    4096   0.1%

Assembly complete, 0 errors, 14 warnings
